
kernel.elf:     file format elf32-littlearm


Disassembly of section .text:

00008000 <_start>:
    8000:	e59ff018 	ldr	pc, [pc, #24]	; 8020 <reset_handler>
    8004:	e59ff018 	ldr	pc, [pc, #24]	; 8024 <undefined_handler>
    8008:	e59ff018 	ldr	pc, [pc, #24]	; 8028 <swi_handler>
    800c:	e59ff018 	ldr	pc, [pc, #24]	; 802c <prefetch_handler>
    8010:	e59ff018 	ldr	pc, [pc, #24]	; 8030 <data_handler>
    8014:	e59ff018 	ldr	pc, [pc, #24]	; 8034 <unused_handler>
    8018:	e59ff018 	ldr	pc, [pc, #24]	; 8038 <irq_handler>
    801c:	e59ff018 	ldr	pc, [pc, #24]	; 803c <fiq_handler>

00008020 <reset_handler>:
    8020:	00008040 	andeq	r8, r0, r0, asr #32

00008024 <undefined_handler>:
    8024:	00008084 	andeq	r8, r0, r4, lsl #1

00008028 <swi_handler>:
    8028:	000080cc 	andeq	r8, r0, ip, asr #1

0000802c <prefetch_handler>:
    802c:	00008088 	andeq	r8, r0, r8, lsl #1

00008030 <data_handler>:
    8030:	0000808c 	andeq	r8, r0, ip, lsl #1

00008034 <unused_handler>:
    8034:	00008090 	muleq	r0, r0, r0

00008038 <irq_handler>:
    8038:	000080c8 	andeq	r8, r0, r8, asr #1

0000803c <fiq_handler>:
    803c:	00008094 	muleq	r0, r4, r0

00008040 <reset>:
    8040:	e3a00902 	mov	r0, #32768	; 0x8000
    8044:	e3a01000 	mov	r1, #0
    8048:	e8b003fc 	ldm	r0!, {r2, r3, r4, r5, r6, r7, r8, r9}
    804c:	e8a103fc 	stmia	r1!, {r2, r3, r4, r5, r6, r7, r8, r9}
    8050:	e8b003fc 	ldm	r0!, {r2, r3, r4, r5, r6, r7, r8, r9}
    8054:	e8a103fc 	stmia	r1!, {r2, r3, r4, r5, r6, r7, r8, r9}
    8058:	e3a000d1 	mov	r0, #209	; 0xd1
    805c:	e121f000 	msr	CPSR_c, r0
    8060:	e3a0d90e 	mov	sp, #229376	; 0x38000
    8064:	e3a000d2 	mov	r0, #210	; 0xd2
    8068:	e121f000 	msr	CPSR_c, r0
    806c:	e3a0d701 	mov	sp, #262144	; 0x40000
    8070:	e3a000d3 	mov	r0, #211	; 0xd3
    8074:	e121f000 	msr	CPSR_c, r0
    8078:	e3a0d912 	mov	sp, #294912	; 0x48000
    807c:	eb000021 	bl	8108 <kmain>

00008080 <hang>:
    8080:	eafffffe 	b	8080 <hang>

00008084 <undefined>:
    8084:	eafffffe 	b	8084 <undefined>

00008088 <prefetch>:
    8088:	eafffffe 	b	8088 <prefetch>

0000808c <data>:
    808c:	eafffffe 	b	808c <data>

00008090 <unused>:
    8090:	eafffffe 	b	8090 <unused>

00008094 <fiq>:
    8094:	eafffffe 	b	8094 <fiq>

00008098 <PUT32>:
    8098:	e5801000 	str	r1, [r0]
    809c:	e12fff1e 	bx	lr

000080a0 <PUT16>:
    80a0:	e1c010b0 	strh	r1, [r0]
    80a4:	e12fff1e 	bx	lr

000080a8 <PUT8>:
    80a8:	e5c01000 	strb	r1, [r0]
    80ac:	e12fff1e 	bx	lr

000080b0 <GET32>:
    80b0:	e5900000 	ldr	r0, [r0]
    80b4:	e12fff1e 	bx	lr

000080b8 <GETPC>:
    80b8:	e1a0000e 	mov	r0, lr
    80bc:	e12fff1e 	bx	lr

000080c0 <BRANCHTO>:
    80c0:	e12fff10 	bx	r0

000080c4 <dummy>:
    80c4:	e12fff1e 	bx	lr

000080c8 <irq>:
    80c8:	ea000198 	b	8730 <ctx_switch_from_irq>

000080cc <swi>:
    80cc:	ea000259 	b	8a38 <SWIHandler>

000080d0 <funcA>:
    80d0:	e24dd008 	sub	sp, sp, #8
    80d4:	e3a03000 	mov	r3, #0
    80d8:	e58d3004 	str	r3, [sp, #4]
    80dc:	e59d3004 	ldr	r3, [sp, #4]
    80e0:	e2833001 	add	r3, r3, #1
    80e4:	e58d3004 	str	r3, [sp, #4]
    80e8:	eafffffb 	b	80dc <funcA+0xc>

000080ec <funcB>:
    80ec:	e24dd008 	sub	sp, sp, #8
    80f0:	e3a03001 	mov	r3, #1
    80f4:	e58d3004 	str	r3, [sp, #4]
    80f8:	e59d3004 	ldr	r3, [sp, #4]
    80fc:	e2833001 	add	r3, r3, #1
    8100:	e58d3004 	str	r3, [sp, #4]
    8104:	eafffffb 	b	80f8 <funcB+0xc>

00008108 <kmain>:
    8108:	e92d4008 	push	{r3, lr}
    810c:	eb000078 	bl	82f4 <init_hw>
    8110:	e59f0020 	ldr	r0, [pc, #32]	; 8138 <kmain+0x30>
    8114:	e3a01000 	mov	r1, #0
    8118:	e3a02b02 	mov	r2, #2048	; 0x800
    811c:	eb0000d7 	bl	8480 <create_process>
    8120:	e59f0014 	ldr	r0, [pc, #20]	; 813c <kmain+0x34>
    8124:	e3a01000 	mov	r1, #0
    8128:	e3a02b02 	mov	r2, #2048	; 0x800
    812c:	eb0000d3 	bl	8480 <create_process>
    8130:	eb000170 	bl	86f8 <start_sched>
    8134:	eafffffe 	b	8134 <kmain+0x2c>
    8138:	000080d0 	ldrdeq	r8, [r0], -r0
    813c:	000080ec 	andeq	r8, r0, ip, ror #1

00008140 <phyAlloc_alloc>:
    8140:	e92d0030 	push	{r4, r5}
    8144:	e24dd008 	sub	sp, sp, #8
    8148:	e58d0004 	str	r0, [sp, #4]
    814c:	e59f3094 	ldr	r3, [pc, #148]	; 81e8 <phyAlloc_alloc+0xa8>
    8150:	e5934000 	ldr	r4, [r3]
    8154:	e59f508c 	ldr	r5, [pc, #140]	; 81e8 <phyAlloc_alloc+0xa8>
    8158:	ea000001 	b	8164 <phyAlloc_alloc+0x24>
    815c:	e1a05004 	mov	r5, r4
    8160:	e5944000 	ldr	r4, [r4]
    8164:	e3540000 	cmp	r4, #0
    8168:	0a000003 	beq	817c <phyAlloc_alloc+0x3c>
    816c:	e5942004 	ldr	r2, [r4, #4]
    8170:	e59d3004 	ldr	r3, [sp, #4]
    8174:	e1520003 	cmp	r2, r3
    8178:	3afffff7 	bcc	815c <phyAlloc_alloc+0x1c>
    817c:	e3540000 	cmp	r4, #0
    8180:	1a000011 	bne	81cc <phyAlloc_alloc+0x8c>
    8184:	e59f3060 	ldr	r3, [pc, #96]	; 81ec <phyAlloc_alloc+0xac>
    8188:	e5934000 	ldr	r4, [r3]
    818c:	e59f3058 	ldr	r3, [pc, #88]	; 81ec <phyAlloc_alloc+0xac>
    8190:	e5932000 	ldr	r2, [r3]
    8194:	e59d3004 	ldr	r3, [sp, #4]
    8198:	e2833003 	add	r3, r3, #3
    819c:	e3c33003 	bic	r3, r3, #3
    81a0:	e0822003 	add	r2, r2, r3
    81a4:	e59f3040 	ldr	r3, [pc, #64]	; 81ec <phyAlloc_alloc+0xac>
    81a8:	e5832000 	str	r2, [r3]
    81ac:	e59f3038 	ldr	r3, [pc, #56]	; 81ec <phyAlloc_alloc+0xac>
    81b0:	e5932000 	ldr	r2, [r3]
    81b4:	e59f3034 	ldr	r3, [pc, #52]	; 81f0 <phyAlloc_alloc+0xb0>
    81b8:	e5933000 	ldr	r3, [r3]
    81bc:	e1520003 	cmp	r2, r3
    81c0:	9a000003 	bls	81d4 <phyAlloc_alloc+0x94>
    81c4:	e3a03000 	mov	r3, #0
    81c8:	ea000002 	b	81d8 <phyAlloc_alloc+0x98>
    81cc:	e5943000 	ldr	r3, [r4]
    81d0:	e5853000 	str	r3, [r5]
    81d4:	e1a03004 	mov	r3, r4
    81d8:	e1a00003 	mov	r0, r3
    81dc:	e28dd008 	add	sp, sp, #8
    81e0:	e8bd0030 	pop	{r4, r5}
    81e4:	e12fff1e 	bx	lr
    81e8:	00009430 	andeq	r9, r0, r0, lsr r4
    81ec:	00009434 	andeq	r9, r0, r4, lsr r4
    81f0:	00009438 	andeq	r9, r0, r8, lsr r4

000081f4 <phyAlloc_free>:
    81f4:	e52d4004 	push	{r4}		; (str r4, [sp, #-4]!)
    81f8:	e24dd00c 	sub	sp, sp, #12
    81fc:	e58d0004 	str	r0, [sp, #4]
    8200:	e58d1000 	str	r1, [sp]
    8204:	e59d4004 	ldr	r4, [sp, #4]
    8208:	e59d3000 	ldr	r3, [sp]
    820c:	e2833003 	add	r3, r3, #3
    8210:	e3c33003 	bic	r3, r3, #3
    8214:	e5843004 	str	r3, [r4, #4]
    8218:	e59f3018 	ldr	r3, [pc, #24]	; 8238 <phyAlloc_free+0x44>
    821c:	e5933000 	ldr	r3, [r3]
    8220:	e5843000 	str	r3, [r4]
    8224:	e59f300c 	ldr	r3, [pc, #12]	; 8238 <phyAlloc_free+0x44>
    8228:	e5834000 	str	r4, [r3]
    822c:	e28dd00c 	add	sp, sp, #12
    8230:	e8bd0010 	pop	{r4}
    8234:	e12fff1e 	bx	lr
    8238:	00009430 	andeq	r9, r0, r0, lsr r4

0000823c <phyAlloc_init>:
    823c:	e24dd008 	sub	sp, sp, #8
    8240:	e58d0004 	str	r0, [sp, #4]
    8244:	e58d1000 	str	r1, [sp]
    8248:	e59f3020 	ldr	r3, [pc, #32]	; 8270 <phyAlloc_init+0x34>
    824c:	e59d2004 	ldr	r2, [sp, #4]
    8250:	e5832000 	str	r2, [r3]
    8254:	e59d2004 	ldr	r2, [sp, #4]
    8258:	e59d3000 	ldr	r3, [sp]
    825c:	e0822003 	add	r2, r2, r3
    8260:	e59f300c 	ldr	r3, [pc, #12]	; 8274 <phyAlloc_init+0x38>
    8264:	e5832000 	str	r2, [r3]
    8268:	e28dd008 	add	sp, sp, #8
    826c:	e12fff1e 	bx	lr
    8270:	00009434 	andeq	r9, r0, r4, lsr r4
    8274:	00009438 	andeq	r9, r0, r8, lsr r4

00008278 <set_tick_and_enable_timer>:
    8278:	e52de004 	push	{lr}		; (str lr, [sp, #-4]!)
    827c:	e24dd00c 	sub	sp, sp, #12
    8280:	e59f0030 	ldr	r0, [pc, #48]	; 82b8 <set_tick_and_enable_timer+0x40>
    8284:	ebffff89 	bl	80b0 <GET32>
    8288:	e58d0004 	str	r0, [sp, #4]
    828c:	e59d3004 	ldr	r3, [sp, #4]
    8290:	e2833702 	add	r3, r3, #524288	; 0x80000
    8294:	e58d3004 	str	r3, [sp, #4]
    8298:	e59f001c 	ldr	r0, [pc, #28]	; 82bc <set_tick_and_enable_timer+0x44>
    829c:	e59d1004 	ldr	r1, [sp, #4]
    82a0:	ebffff7c 	bl	8098 <PUT32>
    82a4:	e59f0014 	ldr	r0, [pc, #20]	; 82c0 <set_tick_and_enable_timer+0x48>
    82a8:	e3a01002 	mov	r1, #2
    82ac:	ebffff79 	bl	8098 <PUT32>
    82b0:	e28dd00c 	add	sp, sp, #12
    82b4:	e8bd8000 	pop	{pc}
    82b8:	20003004 	andcs	r3, r0, r4
    82bc:	20003010 	andcs	r3, r0, r0, lsl r0
    82c0:	20003000 	andcs	r3, r0, r0

000082c4 <led_off>:
    82c4:	e92d4008 	push	{r3, lr}
    82c8:	e59f0008 	ldr	r0, [pc, #8]	; 82d8 <led_off+0x14>
    82cc:	e3a01801 	mov	r1, #65536	; 0x10000
    82d0:	ebffff70 	bl	8098 <PUT32>
    82d4:	e8bd8008 	pop	{r3, pc}
    82d8:	2020001c 	eorcs	r0, r0, ip, lsl r0

000082dc <led_on>:
    82dc:	e92d4008 	push	{r3, lr}
    82e0:	e59f0008 	ldr	r0, [pc, #8]	; 82f0 <led_on+0x14>
    82e4:	e3a01801 	mov	r1, #65536	; 0x10000
    82e8:	ebffff6a 	bl	8098 <PUT32>
    82ec:	e8bd8008 	pop	{r3, pc}
    82f0:	20200028 	eorcs	r0, r0, r8, lsr #32

000082f4 <init_hw>:
    82f4:	e52de004 	push	{lr}		; (str lr, [sp, #-4]!)
    82f8:	e24dd00c 	sub	sp, sp, #12
    82fc:	e59f0098 	ldr	r0, [pc, #152]	; 839c <init_hw+0xa8>
    8300:	ebffff6a 	bl	80b0 <GET32>
    8304:	e58d0004 	str	r0, [sp, #4]
    8308:	e59d3004 	ldr	r3, [sp, #4]
    830c:	e3c33707 	bic	r3, r3, #1835008	; 0x1c0000
    8310:	e58d3004 	str	r3, [sp, #4]
    8314:	e59d3004 	ldr	r3, [sp, #4]
    8318:	e3833701 	orr	r3, r3, #262144	; 0x40000
    831c:	e58d3004 	str	r3, [sp, #4]
    8320:	e59f0074 	ldr	r0, [pc, #116]	; 839c <init_hw+0xa8>
    8324:	e59d1004 	ldr	r1, [sp, #4]
    8328:	ebffff5a 	bl	8098 <PUT32>
    832c:	e59f006c 	ldr	r0, [pc, #108]	; 83a0 <init_hw+0xac>
    8330:	e3a01801 	mov	r1, #65536	; 0x10000
    8334:	ebffff57 	bl	8098 <PUT32>
    8338:	e59f0064 	ldr	r0, [pc, #100]	; 83a4 <init_hw+0xb0>
    833c:	ebffff5b 	bl	80b0 <GET32>
    8340:	e58d0000 	str	r0, [sp]
    8344:	e59d3000 	ldr	r3, [sp]
    8348:	e2833702 	add	r3, r3, #524288	; 0x80000
    834c:	e58d3000 	str	r3, [sp]
    8350:	e59f0050 	ldr	r0, [pc, #80]	; 83a8 <init_hw+0xb4>
    8354:	e59d1000 	ldr	r1, [sp]
    8358:	ebffff4e 	bl	8098 <PUT32>
    835c:	e59f0048 	ldr	r0, [pc, #72]	; 83ac <init_hw+0xb8>
    8360:	e3a01002 	mov	r1, #2
    8364:	ebffff4b 	bl	8098 <PUT32>
    8368:	e59f0040 	ldr	r0, [pc, #64]	; 83b0 <init_hw+0xbc>
    836c:	e3a01002 	mov	r1, #2
    8370:	ebffff48 	bl	8098 <PUT32>
    8374:	e92d0001 	push	{r0}
    8378:	e10f0000 	mrs	r0, CPSR
    837c:	e3800080 	orr	r0, r0, #128	; 0x80
    8380:	e121f000 	msr	CPSR_c, r0
    8384:	e8bd0001 	pop	{r0}
    8388:	e3a00805 	mov	r0, #327680	; 0x50000
    838c:	e3a01a32 	mov	r1, #204800	; 0x32000
    8390:	ebffffa9 	bl	823c <phyAlloc_init>
    8394:	e28dd00c 	add	sp, sp, #12
    8398:	e8bd8000 	pop	{pc}
    839c:	20200004 	eorcs	r0, r0, r4
    83a0:	2020001c 	eorcs	r0, r0, ip, lsl r0
    83a4:	20003004 	andcs	r3, r0, r4
    83a8:	20003010 	andcs	r3, r0, r0, lsl r0
    83ac:	20003000 	andcs	r3, r0, r0
    83b0:	2000b210 	andcs	fp, r0, r0, lsl r2

000083b4 <init_ctx>:
    83b4:	e52de004 	push	{lr}		; (str lr, [sp, #-4]!)
    83b8:	e24dd014 	sub	sp, sp, #20
    83bc:	e58d000c 	str	r0, [sp, #12]
    83c0:	e58d1008 	str	r1, [sp, #8]
    83c4:	e58d2004 	str	r2, [sp, #4]
    83c8:	e59d0004 	ldr	r0, [sp, #4]
    83cc:	ebffff5b 	bl	8140 <phyAlloc_alloc>
    83d0:	e1a02000 	mov	r2, r0
    83d4:	e59d300c 	ldr	r3, [sp, #12]
    83d8:	e5832008 	str	r2, [r3, #8]
    83dc:	e59d300c 	ldr	r3, [sp, #12]
    83e0:	e5933008 	ldr	r3, [r3, #8]
    83e4:	e2833e7f 	add	r3, r3, #2032	; 0x7f0
    83e8:	e283300c 	add	r3, r3, #12
    83ec:	e59d200c 	ldr	r2, [sp, #12]
    83f0:	e5823000 	str	r3, [r2]
    83f4:	e59d300c 	ldr	r3, [sp, #12]
    83f8:	e59d2008 	ldr	r2, [sp, #8]
    83fc:	e5832004 	str	r2, [r3, #4]
    8400:	e28dd014 	add	sp, sp, #20
    8404:	e8bd8000 	pop	{pc}

00008408 <init_pcb>:
    8408:	e52de004 	push	{lr}		; (str lr, [sp, #-4]!)
    840c:	e24dd01c 	sub	sp, sp, #28
    8410:	e58d000c 	str	r0, [sp, #12]
    8414:	e58d1008 	str	r1, [sp, #8]
    8418:	e58d2004 	str	r2, [sp, #4]
    841c:	e58d3000 	str	r3, [sp]
    8420:	e59d300c 	ldr	r3, [sp, #12]
    8424:	e59d2008 	ldr	r2, [sp, #8]
    8428:	e583200c 	str	r2, [r3, #12]
    842c:	e59d300c 	ldr	r3, [sp, #12]
    8430:	e59d2000 	ldr	r2, [sp]
    8434:	e5832004 	str	r2, [r3, #4]
    8438:	e59d300c 	ldr	r3, [sp, #12]
    843c:	e3a02000 	mov	r2, #0
    8440:	e5832008 	str	r2, [r3, #8]
    8444:	e3a0000c 	mov	r0, #12
    8448:	ebffff3c 	bl	8140 <phyAlloc_alloc>
    844c:	e58d0014 	str	r0, [sp, #20]
    8450:	e59d0014 	ldr	r0, [sp, #20]
    8454:	e59d1008 	ldr	r1, [sp, #8]
    8458:	e59d2004 	ldr	r2, [sp, #4]
    845c:	ebffffd4 	bl	83b4 <init_ctx>
    8460:	e59d300c 	ldr	r3, [sp, #12]
    8464:	e59d2014 	ldr	r2, [sp, #20]
    8468:	e5832010 	str	r2, [r3, #16]
    846c:	e59d300c 	ldr	r3, [sp, #12]
    8470:	e3a02000 	mov	r2, #0
    8474:	e5832014 	str	r2, [r3, #20]
    8478:	e28dd01c 	add	sp, sp, #28
    847c:	e8bd8000 	pop	{pc}

00008480 <create_process>:
    8480:	e52de004 	push	{lr}		; (str lr, [sp, #-4]!)
    8484:	e24dd01c 	sub	sp, sp, #28
    8488:	e58d000c 	str	r0, [sp, #12]
    848c:	e58d1008 	str	r1, [sp, #8]
    8490:	e58d2004 	str	r2, [sp, #4]
    8494:	e3a0001c 	mov	r0, #28
    8498:	ebffff28 	bl	8140 <phyAlloc_alloc>
    849c:	e58d0014 	str	r0, [sp, #20]
    84a0:	e59d0014 	ldr	r0, [sp, #20]
    84a4:	e59d100c 	ldr	r1, [sp, #12]
    84a8:	e59d2004 	ldr	r2, [sp, #4]
    84ac:	e59d3008 	ldr	r3, [sp, #8]
    84b0:	ebffffd4 	bl	8408 <init_pcb>
    84b4:	e59f30a8 	ldr	r3, [pc, #168]	; 8564 <create_process+0xe4>
    84b8:	e5933000 	ldr	r3, [r3]
    84bc:	e5933014 	ldr	r3, [r3, #20]
    84c0:	e3530000 	cmp	r3, #0
    84c4:	0a000018 	beq	852c <create_process+0xac>
    84c8:	e59f3094 	ldr	r3, [pc, #148]	; 8564 <create_process+0xe4>
    84cc:	e5933000 	ldr	r3, [r3]
    84d0:	e5933014 	ldr	r3, [r3, #20]
    84d4:	e3530001 	cmp	r3, #1
    84d8:	0a000013 	beq	852c <create_process+0xac>
    84dc:	e59f3080 	ldr	r3, [pc, #128]	; 8564 <create_process+0xe4>
    84e0:	e5933000 	ldr	r3, [r3]
    84e4:	e5933014 	ldr	r3, [r3, #20]
    84e8:	e3530003 	cmp	r3, #3
    84ec:	0a00000e 	beq	852c <create_process+0xac>
    84f0:	e59f306c 	ldr	r3, [pc, #108]	; 8564 <create_process+0xe4>
    84f4:	e5933000 	ldr	r3, [r3]
    84f8:	e5933014 	ldr	r3, [r3, #20]
    84fc:	e3530002 	cmp	r3, #2
    8500:	0a000009 	beq	852c <create_process+0xac>
    8504:	e59f3058 	ldr	r3, [pc, #88]	; 8564 <create_process+0xe4>
    8508:	e59d2014 	ldr	r2, [sp, #20]
    850c:	e5832000 	str	r2, [r3]
    8510:	e59f304c 	ldr	r3, [pc, #76]	; 8564 <create_process+0xe4>
    8514:	e59d2014 	ldr	r2, [sp, #20]
    8518:	e5832000 	str	r2, [r3]
    851c:	e59f3040 	ldr	r3, [pc, #64]	; 8564 <create_process+0xe4>
    8520:	e59d2014 	ldr	r2, [sp, #20]
    8524:	e5832004 	str	r2, [r3, #4]
    8528:	ea00000b 	b	855c <create_process+0xdc>
    852c:	e59f3030 	ldr	r3, [pc, #48]	; 8564 <create_process+0xe4>
    8530:	e5933004 	ldr	r3, [r3, #4]
    8534:	e59d2014 	ldr	r2, [sp, #20]
    8538:	e5832000 	str	r2, [r3]
    853c:	e59f3020 	ldr	r3, [pc, #32]	; 8564 <create_process+0xe4>
    8540:	e59d2014 	ldr	r2, [sp, #20]
    8544:	e5832004 	str	r2, [r3, #4]
    8548:	e59f3014 	ldr	r3, [pc, #20]	; 8564 <create_process+0xe4>
    854c:	e5933004 	ldr	r3, [r3, #4]
    8550:	e59f200c 	ldr	r2, [pc, #12]	; 8564 <create_process+0xe4>
    8554:	e5922000 	ldr	r2, [r2]
    8558:	e5832000 	str	r2, [r3]
    855c:	e28dd01c 	add	sp, sp, #28
    8560:	e8bd8000 	pop	{pc}
    8564:	00009458 	andeq	r9, r0, r8, asr r4

00008568 <start_current_process>:
    8568:	e92d4008 	push	{r3, lr}
    856c:	e92d0001 	push	{r0}
    8570:	e10f0000 	mrs	r0, CPSR
    8574:	e3c00080 	bic	r0, r0, #128	; 0x80
    8578:	e121f000 	msr	CPSR_c, r0
    857c:	e8bd0001 	pop	{r0}
    8580:	ebffff3c 	bl	8278 <set_tick_and_enable_timer>
    8584:	e59f3040 	ldr	r3, [pc, #64]	; 85cc <start_current_process+0x64>
    8588:	e5933000 	ldr	r3, [r3]
    858c:	e3a02002 	mov	r2, #2
    8590:	e5832014 	str	r2, [r3, #20]
    8594:	e59f3030 	ldr	r3, [pc, #48]	; 85cc <start_current_process+0x64>
    8598:	e5933000 	ldr	r3, [r3]
    859c:	e593300c 	ldr	r3, [r3, #12]
    85a0:	e12fff33 	blx	r3
    85a4:	e92d0001 	push	{r0}
    85a8:	e10f0000 	mrs	r0, CPSR
    85ac:	e3800080 	orr	r0, r0, #128	; 0x80
    85b0:	e121f000 	msr	CPSR_c, r0
    85b4:	e8bd0001 	pop	{r0}
    85b8:	e59f300c 	ldr	r3, [pc, #12]	; 85cc <start_current_process+0x64>
    85bc:	e5933000 	ldr	r3, [r3]
    85c0:	e3a02003 	mov	r2, #3
    85c4:	e5832014 	str	r2, [r3, #20]
    85c8:	e8bd8008 	pop	{r3, pc}
    85cc:	00009460 	andeq	r9, r0, r0, ror #8

000085d0 <terminate_process>:
    85d0:	e52de004 	push	{lr}		; (str lr, [sp, #-4]!)
    85d4:	e24dd00c 	sub	sp, sp, #12
    85d8:	e59f30e0 	ldr	r3, [pc, #224]	; 86c0 <terminate_process+0xf0>
    85dc:	e5933000 	ldr	r3, [r3]
    85e0:	e58d3004 	str	r3, [sp, #4]
    85e4:	ea00002d 	b	86a0 <terminate_process+0xd0>
    85e8:	e59d3004 	ldr	r3, [sp, #4]
    85ec:	e5933000 	ldr	r3, [r3]
    85f0:	e58d3004 	str	r3, [sp, #4]
    85f4:	ea000000 	b	85fc <terminate_process+0x2c>
    85f8:	e1a00000 	nop			; (mov r0, r0)
    85fc:	e59d3004 	ldr	r3, [sp, #4]
    8600:	e5933000 	ldr	r3, [r3]
    8604:	e5933014 	ldr	r3, [r3, #20]
    8608:	e3530003 	cmp	r3, #3
    860c:	0a000005 	beq	8628 <terminate_process+0x58>
    8610:	e59d3004 	ldr	r3, [sp, #4]
    8614:	e5932000 	ldr	r2, [r3]
    8618:	e59f30a0 	ldr	r3, [pc, #160]	; 86c0 <terminate_process+0xf0>
    861c:	e5933000 	ldr	r3, [r3]
    8620:	e1520003 	cmp	r2, r3
    8624:	1affffef 	bne	85e8 <terminate_process+0x18>
    8628:	e59d3004 	ldr	r3, [sp, #4]
    862c:	e5933000 	ldr	r3, [r3]
    8630:	e5933014 	ldr	r3, [r3, #20]
    8634:	e3530003 	cmp	r3, #3
    8638:	1a000018 	bne	86a0 <terminate_process+0xd0>
    863c:	e59d3004 	ldr	r3, [sp, #4]
    8640:	e5933000 	ldr	r3, [r3]
    8644:	e5933000 	ldr	r3, [r3]
    8648:	e58d3000 	str	r3, [sp]
    864c:	e59d3004 	ldr	r3, [sp, #4]
    8650:	e5933000 	ldr	r3, [r3]
    8654:	e5933010 	ldr	r3, [r3, #16]
    8658:	e5933008 	ldr	r3, [r3, #8]
    865c:	e1a00003 	mov	r0, r3
    8660:	e3a01b02 	mov	r1, #2048	; 0x800
    8664:	ebfffee2 	bl	81f4 <phyAlloc_free>
    8668:	e59d3004 	ldr	r3, [sp, #4]
    866c:	e5933000 	ldr	r3, [r3]
    8670:	e5933010 	ldr	r3, [r3, #16]
    8674:	e1a00003 	mov	r0, r3
    8678:	e3a0100c 	mov	r1, #12
    867c:	ebfffedc 	bl	81f4 <phyAlloc_free>
    8680:	e59d3004 	ldr	r3, [sp, #4]
    8684:	e5933000 	ldr	r3, [r3]
    8688:	e1a00003 	mov	r0, r3
    868c:	e3a0101c 	mov	r1, #28
    8690:	ebfffed7 	bl	81f4 <phyAlloc_free>
    8694:	e59d3004 	ldr	r3, [sp, #4]
    8698:	e59d2000 	ldr	r2, [sp]
    869c:	e5832000 	str	r2, [r3]
    86a0:	e59d3004 	ldr	r3, [sp, #4]
    86a4:	e5932000 	ldr	r2, [r3]
    86a8:	e59f3010 	ldr	r3, [pc, #16]	; 86c0 <terminate_process+0xf0>
    86ac:	e5933000 	ldr	r3, [r3]
    86b0:	e1520003 	cmp	r2, r3
    86b4:	1affffcf 	bne	85f8 <terminate_process+0x28>
    86b8:	e28dd00c 	add	sp, sp, #12
    86bc:	e8bd8000 	pop	{pc}
    86c0:	00009458 	andeq	r9, r0, r8, asr r4

000086c4 <elect>:
    86c4:	ea000004 	b	86dc <elect+0x18>
    86c8:	e59f3024 	ldr	r3, [pc, #36]	; 86f4 <elect+0x30>
    86cc:	e5933000 	ldr	r3, [r3]
    86d0:	e5932000 	ldr	r2, [r3]
    86d4:	e59f3018 	ldr	r3, [pc, #24]	; 86f4 <elect+0x30>
    86d8:	e5832000 	str	r2, [r3]
    86dc:	e59f3010 	ldr	r3, [pc, #16]	; 86f4 <elect+0x30>
    86e0:	e5933000 	ldr	r3, [r3]
    86e4:	e5933008 	ldr	r3, [r3, #8]
    86e8:	e3530000 	cmp	r3, #0
    86ec:	1afffff5 	bne	86c8 <elect+0x4>
    86f0:	e12fff1e 	bx	lr
    86f4:	00009460 	andeq	r9, r0, r0, ror #8

000086f8 <start_sched>:
    86f8:	e92d4008 	push	{r3, lr}
    86fc:	e92d0001 	push	{r0}
    8700:	e10f0000 	mrs	r0, CPSR
    8704:	e3c00080 	bic	r0, r0, #128	; 0x80
    8708:	e121f000 	msr	CPSR_c, r0
    870c:	e8bd0001 	pop	{r0}
    8710:	ebfffed8 	bl	8278 <set_tick_and_enable_timer>
    8714:	e59f300c 	ldr	r3, [pc, #12]	; 8728 <start_sched+0x30>
    8718:	e5932000 	ldr	r2, [r3]
    871c:	e59f3008 	ldr	r3, [pc, #8]	; 872c <start_sched+0x34>
    8720:	e5832000 	str	r2, [r3]
    8724:	e8bd8008 	pop	{r3, pc}
    8728:	00009458 	andeq	r9, r0, r8, asr r4
    872c:	00009460 	andeq	r9, r0, r0, ror #8

00008730 <ctx_switch_from_irq>:
    8730:	e52de004 	push	{lr}		; (str lr, [sp, #-4]!)
    8734:	e24dd00c 	sub	sp, sp, #12
    8738:	e92d0001 	push	{r0}
    873c:	e10f0000 	mrs	r0, CPSR
    8740:	e3800080 	orr	r0, r0, #128	; 0x80
    8744:	e121f000 	msr	CPSR_c, r0
    8748:	e8bd0001 	pop	{r0}
    874c:	e24ee004 	sub	lr, lr, #4
    8750:	f96d0513 	srsdb	sp!, #19
    8754:	f1020013 	cps	#19
    8758:	e59f3150 	ldr	r3, [pc, #336]	; 88b0 <ctx_switch_from_irq+0x180>
    875c:	e5933000 	ldr	r3, [r3]
    8760:	e3530000 	cmp	r3, #0
    8764:	0a000013 	beq	87b8 <ctx_switch_from_irq+0x88>
    8768:	e59f3140 	ldr	r3, [pc, #320]	; 88b0 <ctx_switch_from_irq+0x180>
    876c:	e5933000 	ldr	r3, [r3]
    8770:	e5933014 	ldr	r3, [r3, #20]
    8774:	e3530000 	cmp	r3, #0
    8778:	0a00000e 	beq	87b8 <ctx_switch_from_irq+0x88>
    877c:	e92d1fff 	push	{r0, r1, r2, r3, r4, r5, r6, r7, r8, r9, sl, fp, ip}
    8780:	e59f3128 	ldr	r3, [pc, #296]	; 88b0 <ctx_switch_from_irq+0x180>
    8784:	e5933000 	ldr	r3, [r3]
    8788:	e5933010 	ldr	r3, [r3, #16]
    878c:	e1a0200d 	mov	r2, sp
    8790:	e5832000 	str	r2, [r3]
    8794:	e59f3114 	ldr	r3, [pc, #276]	; 88b0 <ctx_switch_from_irq+0x180>
    8798:	e5933000 	ldr	r3, [r3]
    879c:	e5933010 	ldr	r3, [r3, #16]
    87a0:	e1a0200e 	mov	r2, lr
    87a4:	e5832004 	str	r2, [r3, #4]
    87a8:	e59f3100 	ldr	r3, [pc, #256]	; 88b0 <ctx_switch_from_irq+0x180>
    87ac:	e5933000 	ldr	r3, [r3]
    87b0:	e3a02001 	mov	r2, #1
    87b4:	e5832014 	str	r2, [r3, #20]
    87b8:	ebffffc1 	bl	86c4 <elect>
    87bc:	e59f30ec 	ldr	r3, [pc, #236]	; 88b0 <ctx_switch_from_irq+0x180>
    87c0:	e5933000 	ldr	r3, [r3]
    87c4:	e5933014 	ldr	r3, [r3, #20]
    87c8:	e3530003 	cmp	r3, #3
    87cc:	1a000014 	bne	8824 <ctx_switch_from_irq+0xf4>
    87d0:	e59f30d8 	ldr	r3, [pc, #216]	; 88b0 <ctx_switch_from_irq+0x180>
    87d4:	e5933000 	ldr	r3, [r3]
    87d8:	e58d3004 	str	r3, [sp, #4]
    87dc:	ea000002 	b	87ec <ctx_switch_from_irq+0xbc>
    87e0:	e59d3004 	ldr	r3, [sp, #4]
    87e4:	e5933000 	ldr	r3, [r3]
    87e8:	e58d3004 	str	r3, [sp, #4]
    87ec:	e59d3004 	ldr	r3, [sp, #4]
    87f0:	e5933000 	ldr	r3, [r3]
    87f4:	e5933014 	ldr	r3, [r3, #20]
    87f8:	e3530003 	cmp	r3, #3
    87fc:	0afffff7 	beq	87e0 <ctx_switch_from_irq+0xb0>
    8800:	e59d3004 	ldr	r3, [sp, #4]
    8804:	e5932000 	ldr	r2, [r3]
    8808:	e59f30a0 	ldr	r3, [pc, #160]	; 88b0 <ctx_switch_from_irq+0x180>
    880c:	e5832000 	str	r2, [r3]
    8810:	ebffff6e 	bl	85d0 <terminate_process>
    8814:	ea000002 	b	8824 <ctx_switch_from_irq+0xf4>
    8818:	ebffff52 	bl	8568 <start_current_process>
    881c:	ebffffa8 	bl	86c4 <elect>
    8820:	ea000000 	b	8828 <ctx_switch_from_irq+0xf8>
    8824:	e1a00000 	nop			; (mov r0, r0)
    8828:	e59f3080 	ldr	r3, [pc, #128]	; 88b0 <ctx_switch_from_irq+0x180>
    882c:	e5933000 	ldr	r3, [r3]
    8830:	e5933014 	ldr	r3, [r3, #20]
    8834:	e3530000 	cmp	r3, #0
    8838:	0afffff6 	beq	8818 <ctx_switch_from_irq+0xe8>
    883c:	e59f306c 	ldr	r3, [pc, #108]	; 88b0 <ctx_switch_from_irq+0x180>
    8840:	e5933000 	ldr	r3, [r3]
    8844:	e5933014 	ldr	r3, [r3, #20]
    8848:	e3530001 	cmp	r3, #1
    884c:	1a000003 	bne	8860 <ctx_switch_from_irq+0x130>
    8850:	e59f3058 	ldr	r3, [pc, #88]	; 88b0 <ctx_switch_from_irq+0x180>
    8854:	e5933000 	ldr	r3, [r3]
    8858:	e3a02002 	mov	r2, #2
    885c:	e5832014 	str	r2, [r3, #20]
    8860:	e59f3048 	ldr	r3, [pc, #72]	; 88b0 <ctx_switch_from_irq+0x180>
    8864:	e5933000 	ldr	r3, [r3]
    8868:	e5933010 	ldr	r3, [r3, #16]
    886c:	e5933000 	ldr	r3, [r3]
    8870:	e1a0d003 	mov	sp, r3
    8874:	e59f3034 	ldr	r3, [pc, #52]	; 88b0 <ctx_switch_from_irq+0x180>
    8878:	e5933000 	ldr	r3, [r3]
    887c:	e5933010 	ldr	r3, [r3, #16]
    8880:	e5933004 	ldr	r3, [r3, #4]
    8884:	e1a0e003 	mov	lr, r3
    8888:	e8bd1fff 	pop	{r0, r1, r2, r3, r4, r5, r6, r7, r8, r9, sl, fp, ip}
    888c:	e92d0001 	push	{r0}
    8890:	e10f0000 	mrs	r0, CPSR
    8894:	e3c00080 	bic	r0, r0, #128	; 0x80
    8898:	e121f000 	msr	CPSR_c, r0
    889c:	e8bd0001 	pop	{r0}
    88a0:	ebfffe74 	bl	8278 <set_tick_and_enable_timer>
    88a4:	f8bd0a00 	rfeia	sp!
    88a8:	e28dd00c 	add	sp, sp, #12
    88ac:	e8bd8000 	pop	{pc}
    88b0:	00009460 	andeq	r9, r0, r0, ror #8

000088b4 <ctx_switch>:
    88b4:	e59f3108 	ldr	r3, [pc, #264]	; 89c4 <ctx_switch+0x110>
    88b8:	e5933000 	ldr	r3, [r3]
    88bc:	e5933014 	ldr	r3, [r3, #20]
    88c0:	e3530000 	cmp	r3, #0
    88c4:	1a000001 	bne	88d0 <ctx_switch+0x1c>
    88c8:	ebffff26 	bl	8568 <start_current_process>
    88cc:	ea000021 	b	8958 <ctx_switch+0xa4>
    88d0:	e59f30ec 	ldr	r3, [pc, #236]	; 89c4 <ctx_switch+0x110>
    88d4:	e5933000 	ldr	r3, [r3]
    88d8:	e5933014 	ldr	r3, [r3, #20]
    88dc:	e3530003 	cmp	r3, #3
    88e0:	1a00000c 	bne	8918 <ctx_switch+0x64>
    88e4:	e59f30d8 	ldr	r3, [pc, #216]	; 89c4 <ctx_switch+0x110>
    88e8:	e5934000 	ldr	r4, [r3]
    88ec:	ea000000 	b	88f4 <ctx_switch+0x40>
    88f0:	e5944000 	ldr	r4, [r4]
    88f4:	e5943000 	ldr	r3, [r4]
    88f8:	e5933014 	ldr	r3, [r3, #20]
    88fc:	e3530003 	cmp	r3, #3
    8900:	0afffffa 	beq	88f0 <ctx_switch+0x3c>
    8904:	e5942000 	ldr	r2, [r4]
    8908:	e59f30b4 	ldr	r3, [pc, #180]	; 89c4 <ctx_switch+0x110>
    890c:	e5832000 	str	r2, [r3]
    8910:	ebffff2e 	bl	85d0 <terminate_process>
    8914:	ea00000f 	b	8958 <ctx_switch+0xa4>
    8918:	e92d1fff 	push	{r0, r1, r2, r3, r4, r5, r6, r7, r8, r9, sl, fp, ip}
    891c:	e59f30a0 	ldr	r3, [pc, #160]	; 89c4 <ctx_switch+0x110>
    8920:	e5933000 	ldr	r3, [r3]
    8924:	e5933010 	ldr	r3, [r3, #16]
    8928:	e1a0200d 	mov	r2, sp
    892c:	e5832000 	str	r2, [r3]
    8930:	e59f308c 	ldr	r3, [pc, #140]	; 89c4 <ctx_switch+0x110>
    8934:	e5933000 	ldr	r3, [r3]
    8938:	e5933010 	ldr	r3, [r3, #16]
    893c:	e1a0200e 	mov	r2, lr
    8940:	e5832004 	str	r2, [r3, #4]
    8944:	e59f3078 	ldr	r3, [pc, #120]	; 89c4 <ctx_switch+0x110>
    8948:	e5933000 	ldr	r3, [r3]
    894c:	e3a02001 	mov	r2, #1
    8950:	e5832014 	str	r2, [r3, #20]
    8954:	ebffff5a 	bl	86c4 <elect>
    8958:	e59f3064 	ldr	r3, [pc, #100]	; 89c4 <ctx_switch+0x110>
    895c:	e5933000 	ldr	r3, [r3]
    8960:	e5933014 	ldr	r3, [r3, #20]
    8964:	e3530000 	cmp	r3, #0
    8968:	1a000000 	bne	8970 <ctx_switch+0xbc>
    896c:	ebfffefd 	bl	8568 <start_current_process>
    8970:	e59f304c 	ldr	r3, [pc, #76]	; 89c4 <ctx_switch+0x110>
    8974:	e5933000 	ldr	r3, [r3]
    8978:	e5933014 	ldr	r3, [r3, #20]
    897c:	e3530001 	cmp	r3, #1
    8980:	1a00000f 	bne	89c4 <ctx_switch+0x110>
    8984:	e59f3038 	ldr	r3, [pc, #56]	; 89c4 <ctx_switch+0x110>
    8988:	e5933000 	ldr	r3, [r3]
    898c:	e3a02002 	mov	r2, #2
    8990:	e5832014 	str	r2, [r3, #20]
    8994:	e59f3028 	ldr	r3, [pc, #40]	; 89c4 <ctx_switch+0x110>
    8998:	e5933000 	ldr	r3, [r3]
    899c:	e5933010 	ldr	r3, [r3, #16]
    89a0:	e5933000 	ldr	r3, [r3]
    89a4:	e1a0d003 	mov	sp, r3
    89a8:	e59f3014 	ldr	r3, [pc, #20]	; 89c4 <ctx_switch+0x110>
    89ac:	e5933000 	ldr	r3, [r3]
    89b0:	e5933010 	ldr	r3, [r3, #16]
    89b4:	e5933004 	ldr	r3, [r3, #4]
    89b8:	e1a0e003 	mov	lr, r3
    89bc:	e8bd1fff 	pop	{r0, r1, r2, r3, r4, r5, r6, r7, r8, r9, sl, fp, ip}
    89c0:	e12fff1e 	bx	lr
    89c4:	00009460 	andeq	r9, r0, r0, ror #8

000089c8 <sys_reboot>:
    89c8:	e52de004 	push	{lr}		; (str lr, [sp, #-4]!)
    89cc:	e3a03001 	mov	r3, #1
    89d0:	e1a00003 	mov	r0, r3
    89d4:	ef000000 	svc	0x00000000
    89d8:	e49df004 	pop	{pc}		; (ldr pc, [sp], #4)

000089dc <sys_wait>:
    89dc:	e52de004 	push	{lr}		; (str lr, [sp, #-4]!)
    89e0:	e24dd00c 	sub	sp, sp, #12
    89e4:	e58d0004 	str	r0, [sp, #4]
    89e8:	e3a03001 	mov	r3, #1
    89ec:	e1a00003 	mov	r0, r3
    89f0:	e59d3004 	ldr	r3, [sp, #4]
    89f4:	e1a01003 	mov	r1, r3
    89f8:	ef000000 	svc	0x00000000
    89fc:	e28dd00c 	add	sp, sp, #12
    8a00:	e8bd8000 	pop	{pc}

00008a04 <doSysCallReboot>:
    8a04:	e12fff1e 	bx	lr

00008a08 <doSysCallWait>:
    8a08:	e52d4004 	push	{r4}		; (str r4, [sp, #-4]!)
    8a0c:	e24dd00c 	sub	sp, sp, #12
    8a10:	e1a04001 	mov	r4, r1
    8a14:	e58d4004 	str	r4, [sp, #4]
    8a18:	e59f3014 	ldr	r3, [pc, #20]	; 8a34 <doSysCallWait+0x2c>
    8a1c:	e5933000 	ldr	r3, [r3]
    8a20:	e59d2004 	ldr	r2, [sp, #4]
    8a24:	e5832008 	str	r2, [r3, #8]
    8a28:	e28dd00c 	add	sp, sp, #12
    8a2c:	e8bd0010 	pop	{r4}
    8a30:	e12fff1e 	bx	lr
    8a34:	00009460 	andeq	r9, r0, r0, ror #8

00008a38 <SWIHandler>:
    8a38:	e92d4010 	push	{r4, lr}
    8a3c:	e24dd008 	sub	sp, sp, #8
    8a40:	e3a03000 	mov	r3, #0
    8a44:	e58d3004 	str	r3, [sp, #4]
    8a48:	e1a04000 	mov	r4, r0
    8a4c:	e58d4004 	str	r4, [sp, #4]
    8a50:	e59d3004 	ldr	r3, [sp, #4]
    8a54:	e3530001 	cmp	r3, #1
    8a58:	0a000002 	beq	8a68 <SWIHandler+0x30>
    8a5c:	e3530002 	cmp	r3, #2
    8a60:	0a000002 	beq	8a70 <SWIHandler+0x38>
    8a64:	ea000003 	b	8a78 <SWIHandler+0x40>
    8a68:	ebffffe5 	bl	8a04 <doSysCallReboot>
    8a6c:	ea000001 	b	8a78 <SWIHandler+0x40>
    8a70:	ebffffe4 	bl	8a08 <doSysCallWait>
    8a74:	e1a00000 	nop			; (mov r0, r0)
    8a78:	e28dd008 	add	sp, sp, #8
    8a7c:	e8bd8010 	pop	{r4, pc}

00008a80 <init_kern_translation_table>:
    8a80:	e52de004 	push	{lr}		; (str lr, [sp, #-4]!)
    8a84:	e24dd00c 	sub	sp, sp, #12
    8a88:	e59f3118 	ldr	r3, [pc, #280]	; 8ba8 <init_kern_translation_table+0x128>
    8a8c:	e3a02912 	mov	r2, #294912	; 0x48000
    8a90:	e5832000 	str	r2, [r3]
    8a94:	e3a03000 	mov	r3, #0
    8a98:	e58d3004 	str	r3, [sp, #4]
    8a9c:	ea000008 	b	8ac4 <init_kern_translation_table+0x44>
    8aa0:	e59f3100 	ldr	r3, [pc, #256]	; 8ba8 <init_kern_translation_table+0x128>
    8aa4:	e5932000 	ldr	r2, [r3]
    8aa8:	e59d3004 	ldr	r3, [sp, #4]
    8aac:	e0823003 	add	r3, r2, r3
    8ab0:	e3a02000 	mov	r2, #0
    8ab4:	e5c32000 	strb	r2, [r3]
    8ab8:	e59d3004 	ldr	r3, [sp, #4]
    8abc:	e2833001 	add	r3, r3, #1
    8ac0:	e58d3004 	str	r3, [sp, #4]
    8ac4:	e59d2004 	ldr	r2, [sp, #4]
    8ac8:	e59f30dc 	ldr	r3, [pc, #220]	; 8bac <init_kern_translation_table+0x12c>
    8acc:	e1520003 	cmp	r2, r3
    8ad0:	dafffff2 	ble	8aa0 <init_kern_translation_table+0x20>
    8ad4:	e59f30d4 	ldr	r3, [pc, #212]	; 8bb0 <init_kern_translation_table+0x130>
    8ad8:	e3a02805 	mov	r2, #327680	; 0x50000
    8adc:	e5832000 	str	r2, [r3]
    8ae0:	e3a03000 	mov	r3, #0
    8ae4:	e58d3004 	str	r3, [sp, #4]
    8ae8:	ea000008 	b	8b10 <init_kern_translation_table+0x90>
    8aec:	e59f30bc 	ldr	r3, [pc, #188]	; 8bb0 <init_kern_translation_table+0x130>
    8af0:	e5932000 	ldr	r2, [r3]
    8af4:	e59d3004 	ldr	r3, [sp, #4]
    8af8:	e0823003 	add	r3, r2, r3
    8afc:	e3a02000 	mov	r2, #0
    8b00:	e5c32000 	strb	r2, [r3]
    8b04:	e59d3004 	ldr	r3, [sp, #4]
    8b08:	e2833001 	add	r3, r3, #1
    8b0c:	e58d3004 	str	r3, [sp, #4]
    8b10:	e59d2004 	ldr	r2, [sp, #4]
    8b14:	e59f3098 	ldr	r3, [pc, #152]	; 8bb4 <init_kern_translation_table+0x134>
    8b18:	e1520003 	cmp	r2, r3
    8b1c:	dafffff2 	ble	8aec <init_kern_translation_table+0x6c>
    8b20:	e3a03601 	mov	r3, #1048576	; 0x100000
    8b24:	e58d3000 	str	r3, [sp]
    8b28:	e3a03000 	mov	r3, #0
    8b2c:	e58d3004 	str	r3, [sp, #4]
    8b30:	ea000008 	b	8b58 <init_kern_translation_table+0xd8>
    8b34:	e59d3004 	ldr	r3, [sp, #4]
    8b38:	e1a03103 	lsl	r3, r3, #2
    8b3c:	e59d2000 	ldr	r2, [sp]
    8b40:	e0823003 	add	r3, r2, r3
    8b44:	e3a02000 	mov	r2, #0
    8b48:	e5832000 	str	r2, [r3]
    8b4c:	e59d3004 	ldr	r3, [sp, #4]
    8b50:	e2833001 	add	r3, r3, #1
    8b54:	e58d3004 	str	r3, [sp, #4]
    8b58:	e59d2004 	ldr	r2, [sp, #4]
    8b5c:	e59f3054 	ldr	r3, [pc, #84]	; 8bb8 <init_kern_translation_table+0x138>
    8b60:	e1520003 	cmp	r2, r3
    8b64:	dafffff2 	ble	8b34 <init_kern_translation_table+0xb4>
    8b68:	eb00007a 	bl	8d58 <new_first_table>
    8b6c:	e1a02000 	mov	r2, r0
    8b70:	e59f3044 	ldr	r3, [pc, #68]	; 8bbc <init_kern_translation_table+0x13c>
    8b74:	e5832000 	str	r2, [r3]
    8b78:	e59f303c 	ldr	r3, [pc, #60]	; 8bbc <init_kern_translation_table+0x13c>
    8b7c:	e5932000 	ldr	r2, [r3]
    8b80:	e59f3038 	ldr	r3, [pc, #56]	; 8bc0 <init_kern_translation_table+0x140>
    8b84:	e5832000 	str	r2, [r3]
    8b88:	e59f302c 	ldr	r3, [pc, #44]	; 8bbc <init_kern_translation_table+0x13c>
    8b8c:	e5933000 	ldr	r3, [r3]
    8b90:	e1a00003 	mov	r0, r3
    8b94:	eb00000a 	bl	8bc4 <init_no_translation_pages>
    8b98:	e3a03000 	mov	r3, #0
    8b9c:	e1a00003 	mov	r0, r3
    8ba0:	e28dd00c 	add	sp, sp, #12
    8ba4:	e8bd8000 	pop	{pc}
    8ba8:	00009440 	andeq	r9, r0, r0, asr #8
    8bac:	00001fff 	strdeq	r1, [r0], -pc	; <UNPREDICTABLE>
    8bb0:	0000943c 	andeq	r9, r0, ip, lsr r4
    8bb4:	00020fff 	strdeq	r0, [r2], -pc	; <UNPREDICTABLE>
    8bb8:	000003ff 	strdeq	r0, [r0], -pc	; <UNPREDICTABLE>
    8bbc:	00009444 	andeq	r9, r0, r4, asr #8
    8bc0:	00009468 	andeq	r9, r0, r8, ror #8

00008bc4 <init_no_translation_pages>:
    8bc4:	e52de004 	push	{lr}		; (str lr, [sp, #-4]!)
    8bc8:	e24dd024 	sub	sp, sp, #36	; 0x24
    8bcc:	e58d0004 	str	r0, [sp, #4]
    8bd0:	e3a03000 	mov	r3, #0
    8bd4:	e58d301c 	str	r3, [sp, #28]
    8bd8:	ea000025 	b	8c74 <init_no_translation_pages+0xb0>
    8bdc:	eb0000ca 	bl	8f0c <new_second_table>
    8be0:	e58d0010 	str	r0, [sp, #16]
    8be4:	e59d301c 	ldr	r3, [sp, #28]
    8be8:	e1a03103 	lsl	r3, r3, #2
    8bec:	e59d2004 	ldr	r2, [sp, #4]
    8bf0:	e0822003 	add	r2, r2, r3
    8bf4:	e59d3010 	ldr	r3, [sp, #16]
    8bf8:	e3c33fff 	bic	r3, r3, #1020	; 0x3fc
    8bfc:	e3c33003 	bic	r3, r3, #3
    8c00:	e3833001 	orr	r3, r3, #1
    8c04:	e5823000 	str	r3, [r2]
    8c08:	e3a03000 	mov	r3, #0
    8c0c:	e58d3018 	str	r3, [sp, #24]
    8c10:	ea000011 	b	8c5c <init_no_translation_pages+0x98>
    8c14:	e59d3018 	ldr	r3, [sp, #24]
    8c18:	e1a03103 	lsl	r3, r3, #2
    8c1c:	e59d2010 	ldr	r2, [sp, #16]
    8c20:	e0822003 	add	r2, r2, r3
    8c24:	e59d301c 	ldr	r3, [sp, #28]
    8c28:	e1a01a03 	lsl	r1, r3, #20
    8c2c:	e59d3018 	ldr	r3, [sp, #24]
    8c30:	e1a03603 	lsl	r3, r3, #12
    8c34:	e0813003 	add	r3, r1, r3
    8c38:	e3c33eff 	bic	r3, r3, #4080	; 0xff0
    8c3c:	e3c3300f 	bic	r3, r3, #15
    8c40:	e59f1108 	ldr	r1, [pc, #264]	; 8d50 <init_no_translation_pages+0x18c>
    8c44:	e5911000 	ldr	r1, [r1]
    8c48:	e1833001 	orr	r3, r3, r1
    8c4c:	e5823000 	str	r3, [r2]
    8c50:	e59d3018 	ldr	r3, [sp, #24]
    8c54:	e2833001 	add	r3, r3, #1
    8c58:	e58d3018 	str	r3, [sp, #24]
    8c5c:	e59d3018 	ldr	r3, [sp, #24]
    8c60:	e35300ff 	cmp	r3, #255	; 0xff
    8c64:	daffffea 	ble	8c14 <init_no_translation_pages+0x50>
    8c68:	e59d301c 	ldr	r3, [sp, #28]
    8c6c:	e2833001 	add	r3, r3, #1
    8c70:	e58d301c 	str	r3, [sp, #28]
    8c74:	e59d301c 	ldr	r3, [sp, #28]
    8c78:	e3530004 	cmp	r3, #4
    8c7c:	daffffd6 	ble	8bdc <init_no_translation_pages+0x18>
    8c80:	e3a03c02 	mov	r3, #512	; 0x200
    8c84:	e58d300c 	str	r3, [sp, #12]
    8c88:	e3a03000 	mov	r3, #0
    8c8c:	e58d301c 	str	r3, [sp, #28]
    8c90:	ea000029 	b	8d3c <init_no_translation_pages+0x178>
    8c94:	eb00009c 	bl	8f0c <new_second_table>
    8c98:	e58d0008 	str	r0, [sp, #8]
    8c9c:	e59d200c 	ldr	r2, [sp, #12]
    8ca0:	e59d301c 	ldr	r3, [sp, #28]
    8ca4:	e0823003 	add	r3, r2, r3
    8ca8:	e1a03103 	lsl	r3, r3, #2
    8cac:	e59d2004 	ldr	r2, [sp, #4]
    8cb0:	e0822003 	add	r2, r2, r3
    8cb4:	e59d3008 	ldr	r3, [sp, #8]
    8cb8:	e3c33fff 	bic	r3, r3, #1020	; 0x3fc
    8cbc:	e3c33003 	bic	r3, r3, #3
    8cc0:	e3833001 	orr	r3, r3, #1
    8cc4:	e5823000 	str	r3, [r2]
    8cc8:	e3a03000 	mov	r3, #0
    8ccc:	e58d3014 	str	r3, [sp, #20]
    8cd0:	ea000013 	b	8d24 <init_no_translation_pages+0x160>
    8cd4:	e59d3014 	ldr	r3, [sp, #20]
    8cd8:	e1a03103 	lsl	r3, r3, #2
    8cdc:	e59d2008 	ldr	r2, [sp, #8]
    8ce0:	e0822003 	add	r2, r2, r3
    8ce4:	e59d301c 	ldr	r3, [sp, #28]
    8ce8:	e1a03a03 	lsl	r3, r3, #20
    8cec:	e1a01003 	mov	r1, r3
    8cf0:	e59d3014 	ldr	r3, [sp, #20]
    8cf4:	e1a03603 	lsl	r3, r3, #12
    8cf8:	e0813003 	add	r3, r1, r3
    8cfc:	e2833202 	add	r3, r3, #536870912	; 0x20000000
    8d00:	e3c33eff 	bic	r3, r3, #4080	; 0xff0
    8d04:	e3c3300f 	bic	r3, r3, #15
    8d08:	e59f1044 	ldr	r1, [pc, #68]	; 8d54 <init_no_translation_pages+0x190>
    8d0c:	e5911000 	ldr	r1, [r1]
    8d10:	e1833001 	orr	r3, r3, r1
    8d14:	e5823000 	str	r3, [r2]
    8d18:	e59d3014 	ldr	r3, [sp, #20]
    8d1c:	e2833001 	add	r3, r3, #1
    8d20:	e58d3014 	str	r3, [sp, #20]
    8d24:	e59d3014 	ldr	r3, [sp, #20]
    8d28:	e35300ff 	cmp	r3, #255	; 0xff
    8d2c:	daffffe8 	ble	8cd4 <init_no_translation_pages+0x110>
    8d30:	e59d301c 	ldr	r3, [sp, #28]
    8d34:	e2833001 	add	r3, r3, #1
    8d38:	e58d301c 	str	r3, [sp, #28]
    8d3c:	e59d301c 	ldr	r3, [sp, #28]
    8d40:	e353000f 	cmp	r3, #15
    8d44:	daffffd2 	ble	8c94 <init_no_translation_pages+0xd0>
    8d48:	e28dd024 	add	sp, sp, #36	; 0x24
    8d4c:	e8bd8000 	pop	{pc}
    8d50:	0000944c 	andeq	r9, r0, ip, asr #8
    8d54:	00009448 	andeq	r9, r0, r8, asr #8

00008d58 <new_first_table>:
    8d58:	e24dd010 	sub	sp, sp, #16
    8d5c:	e3a03000 	mov	r3, #0
    8d60:	e58d300c 	str	r3, [sp, #12]
    8d64:	ea000032 	b	8e34 <new_first_table+0xdc>
    8d68:	e59d300c 	ldr	r3, [sp, #12]
    8d6c:	e58d3008 	str	r3, [sp, #8]
    8d70:	ea000027 	b	8e14 <new_first_table+0xbc>
    8d74:	e59f30d8 	ldr	r3, [pc, #216]	; 8e54 <new_first_table+0xfc>
    8d78:	e5932000 	ldr	r2, [r3]
    8d7c:	e59d3008 	ldr	r3, [sp, #8]
    8d80:	e0823003 	add	r3, r2, r3
    8d84:	e5d33000 	ldrb	r3, [r3]
    8d88:	e3530000 	cmp	r3, #0
    8d8c:	0a000003 	beq	8da0 <new_first_table+0x48>
    8d90:	e59d3008 	ldr	r3, [sp, #8]
    8d94:	e2833001 	add	r3, r3, #1
    8d98:	e58d300c 	str	r3, [sp, #12]
    8d9c:	ea000021 	b	8e28 <new_first_table+0xd0>
    8da0:	e59d300c 	ldr	r3, [sp, #12]
    8da4:	e283200f 	add	r2, r3, #15
    8da8:	e59d3008 	ldr	r3, [sp, #8]
    8dac:	e1520003 	cmp	r2, r3
    8db0:	1a000014 	bne	8e08 <new_first_table+0xb0>
    8db4:	e3a03000 	mov	r3, #0
    8db8:	e58d3004 	str	r3, [sp, #4]
    8dbc:	ea00000a 	b	8dec <new_first_table+0x94>
    8dc0:	e59f308c 	ldr	r3, [pc, #140]	; 8e54 <new_first_table+0xfc>
    8dc4:	e5932000 	ldr	r2, [r3]
    8dc8:	e59d100c 	ldr	r1, [sp, #12]
    8dcc:	e59d3004 	ldr	r3, [sp, #4]
    8dd0:	e0813003 	add	r3, r1, r3
    8dd4:	e0823003 	add	r3, r2, r3
    8dd8:	e3a02001 	mov	r2, #1
    8ddc:	e5c32000 	strb	r2, [r3]
    8de0:	e59d3004 	ldr	r3, [sp, #4]
    8de4:	e2833001 	add	r3, r3, #1
    8de8:	e58d3004 	str	r3, [sp, #4]
    8dec:	e59d3004 	ldr	r3, [sp, #4]
    8df0:	e353000f 	cmp	r3, #15
    8df4:	dafffff1 	ble	8dc0 <new_first_table+0x68>
    8df8:	e59d300c 	ldr	r3, [sp, #12]
    8dfc:	e2833b01 	add	r3, r3, #1024	; 0x400
    8e00:	e1a03503 	lsl	r3, r3, #10
    8e04:	ea00000f 	b	8e48 <new_first_table+0xf0>
    8e08:	e59d3008 	ldr	r3, [sp, #8]
    8e0c:	e2833001 	add	r3, r3, #1
    8e10:	e58d3008 	str	r3, [sp, #8]
    8e14:	e59d300c 	ldr	r3, [sp, #12]
    8e18:	e2832010 	add	r2, r3, #16
    8e1c:	e59d3008 	ldr	r3, [sp, #8]
    8e20:	e1520003 	cmp	r2, r3
    8e24:	caffffd2 	bgt	8d74 <new_first_table+0x1c>
    8e28:	e59d300c 	ldr	r3, [sp, #12]
    8e2c:	e2833001 	add	r3, r3, #1
    8e30:	e58d300c 	str	r3, [sp, #12]
    8e34:	e59d200c 	ldr	r2, [sp, #12]
    8e38:	e59f3018 	ldr	r3, [pc, #24]	; 8e58 <new_first_table+0x100>
    8e3c:	e1520003 	cmp	r2, r3
    8e40:	daffffc8 	ble	8d68 <new_first_table+0x10>
    8e44:	e3a03000 	mov	r3, #0
    8e48:	e1a00003 	mov	r0, r3
    8e4c:	e28dd010 	add	sp, sp, #16
    8e50:	e12fff1e 	bx	lr
    8e54:	00009440 	andeq	r9, r0, r0, asr #8
    8e58:	00001fff 	strdeq	r1, [r0], -pc	; <UNPREDICTABLE>

00008e5c <delete_first_table>:
    8e5c:	e24dd010 	sub	sp, sp, #16
    8e60:	e58d0004 	str	r0, [sp, #4]
    8e64:	e59d3004 	ldr	r3, [sp, #4]
    8e68:	e2433601 	sub	r3, r3, #1048576	; 0x100000
    8e6c:	e1a03523 	lsr	r3, r3, #10
    8e70:	e58d300c 	str	r3, [sp, #12]
    8e74:	e3a03000 	mov	r3, #0
    8e78:	e58d3008 	str	r3, [sp, #8]
    8e7c:	ea00000a 	b	8eac <delete_first_table+0x50>
    8e80:	e59f307c 	ldr	r3, [pc, #124]	; 8f04 <delete_first_table+0xa8>
    8e84:	e5932000 	ldr	r2, [r3]
    8e88:	e59d100c 	ldr	r1, [sp, #12]
    8e8c:	e59d3008 	ldr	r3, [sp, #8]
    8e90:	e0813003 	add	r3, r1, r3
    8e94:	e0823003 	add	r3, r2, r3
    8e98:	e3a02000 	mov	r2, #0
    8e9c:	e5c32000 	strb	r2, [r3]
    8ea0:	e59d3008 	ldr	r3, [sp, #8]
    8ea4:	e2833001 	add	r3, r3, #1
    8ea8:	e58d3008 	str	r3, [sp, #8]
    8eac:	e59d3008 	ldr	r3, [sp, #8]
    8eb0:	e353000f 	cmp	r3, #15
    8eb4:	dafffff1 	ble	8e80 <delete_first_table+0x24>
    8eb8:	e3a03000 	mov	r3, #0
    8ebc:	e58d300c 	str	r3, [sp, #12]
    8ec0:	ea000008 	b	8ee8 <delete_first_table+0x8c>
    8ec4:	e59d300c 	ldr	r3, [sp, #12]
    8ec8:	e1a03103 	lsl	r3, r3, #2
    8ecc:	e59d2004 	ldr	r2, [sp, #4]
    8ed0:	e0823003 	add	r3, r2, r3
    8ed4:	e3a02000 	mov	r2, #0
    8ed8:	e5832000 	str	r2, [r3]
    8edc:	e59d300c 	ldr	r3, [sp, #12]
    8ee0:	e2833001 	add	r3, r3, #1
    8ee4:	e58d300c 	str	r3, [sp, #12]
    8ee8:	e59d200c 	ldr	r2, [sp, #12]
    8eec:	e59f3014 	ldr	r3, [pc, #20]	; 8f08 <delete_first_table+0xac>
    8ef0:	e1520003 	cmp	r2, r3
    8ef4:	dafffff2 	ble	8ec4 <delete_first_table+0x68>
    8ef8:	e1a00000 	nop			; (mov r0, r0)
    8efc:	e28dd010 	add	sp, sp, #16
    8f00:	e12fff1e 	bx	lr
    8f04:	00009440 	andeq	r9, r0, r0, asr #8
    8f08:	00000fff 	strdeq	r0, [r0], -pc	; <UNPREDICTABLE>

00008f0c <new_second_table>:
    8f0c:	e24dd008 	sub	sp, sp, #8
    8f10:	e3a03000 	mov	r3, #0
    8f14:	e58d3004 	str	r3, [sp, #4]
    8f18:	ea000013 	b	8f6c <new_second_table+0x60>
    8f1c:	e59f3068 	ldr	r3, [pc, #104]	; 8f8c <new_second_table+0x80>
    8f20:	e5932000 	ldr	r2, [r3]
    8f24:	e59d3004 	ldr	r3, [sp, #4]
    8f28:	e0823003 	add	r3, r2, r3
    8f2c:	e5d33000 	ldrb	r3, [r3]
    8f30:	e3530000 	cmp	r3, #0
    8f34:	1a000009 	bne	8f60 <new_second_table+0x54>
    8f38:	e59f304c 	ldr	r3, [pc, #76]	; 8f8c <new_second_table+0x80>
    8f3c:	e5932000 	ldr	r2, [r3]
    8f40:	e59d3004 	ldr	r3, [sp, #4]
    8f44:	e0823003 	add	r3, r2, r3
    8f48:	e3a02001 	mov	r2, #1
    8f4c:	e5c32000 	strb	r2, [r3]
    8f50:	e59d3004 	ldr	r3, [sp, #4]
    8f54:	e2833b01 	add	r3, r3, #1024	; 0x400
    8f58:	e1a03503 	lsl	r3, r3, #10
    8f5c:	ea000007 	b	8f80 <new_second_table+0x74>
    8f60:	e59d3004 	ldr	r3, [sp, #4]
    8f64:	e2833001 	add	r3, r3, #1
    8f68:	e58d3004 	str	r3, [sp, #4]
    8f6c:	e59d2004 	ldr	r2, [sp, #4]
    8f70:	e59f3018 	ldr	r3, [pc, #24]	; 8f90 <new_second_table+0x84>
    8f74:	e1520003 	cmp	r2, r3
    8f78:	daffffe7 	ble	8f1c <new_second_table+0x10>
    8f7c:	e3a03000 	mov	r3, #0
    8f80:	e1a00003 	mov	r0, r3
    8f84:	e28dd008 	add	sp, sp, #8
    8f88:	e12fff1e 	bx	lr
    8f8c:	00009440 	andeq	r9, r0, r0, asr #8
    8f90:	00001fff 	strdeq	r1, [r0], -pc	; <UNPREDICTABLE>

00008f94 <delete_second_table>:
    8f94:	e24dd010 	sub	sp, sp, #16
    8f98:	e58d0004 	str	r0, [sp, #4]
    8f9c:	e59d3004 	ldr	r3, [sp, #4]
    8fa0:	e2433601 	sub	r3, r3, #1048576	; 0x100000
    8fa4:	e1a03523 	lsr	r3, r3, #10
    8fa8:	e58d300c 	str	r3, [sp, #12]
    8fac:	e59f3058 	ldr	r3, [pc, #88]	; 900c <delete_second_table+0x78>
    8fb0:	e5932000 	ldr	r2, [r3]
    8fb4:	e59d300c 	ldr	r3, [sp, #12]
    8fb8:	e0823003 	add	r3, r2, r3
    8fbc:	e3a02000 	mov	r2, #0
    8fc0:	e5c32000 	strb	r2, [r3]
    8fc4:	e3a03000 	mov	r3, #0
    8fc8:	e58d300c 	str	r3, [sp, #12]
    8fcc:	ea000008 	b	8ff4 <delete_second_table+0x60>
    8fd0:	e59d300c 	ldr	r3, [sp, #12]
    8fd4:	e1a03103 	lsl	r3, r3, #2
    8fd8:	e59d2004 	ldr	r2, [sp, #4]
    8fdc:	e0823003 	add	r3, r2, r3
    8fe0:	e3a02000 	mov	r2, #0
    8fe4:	e5832000 	str	r2, [r3]
    8fe8:	e59d300c 	ldr	r3, [sp, #12]
    8fec:	e2833001 	add	r3, r3, #1
    8ff0:	e58d300c 	str	r3, [sp, #12]
    8ff4:	e59d300c 	ldr	r3, [sp, #12]
    8ff8:	e35300ff 	cmp	r3, #255	; 0xff
    8ffc:	dafffff3 	ble	8fd0 <delete_second_table+0x3c>
    9000:	e1a00000 	nop			; (mov r0, r0)
    9004:	e28dd010 	add	sp, sp, #16
    9008:	e12fff1e 	bx	lr
    900c:	00009440 	andeq	r9, r0, r0, asr #8

00009010 <start_mmu_C>:
    9010:	e52d4004 	push	{r4}		; (str r4, [sp, #-4]!)
    9014:	e3a03000 	mov	r3, #0
    9018:	ee013f10 	mcr	15, 0, r3, cr1, cr0, {0}
    901c:	ee070f17 	mcr	15, 0, r0, cr7, cr7, {0}
    9020:	ee080f17 	mcr	15, 0, r0, cr8, cr7, {0}
    9024:	e59f4010 	ldr	r4, [pc, #16]	; 903c <start_mmu_C+0x2c>
    9028:	e3a03000 	mov	r3, #0
    902c:	ee083f17 	mcr	15, 0, r3, cr8, cr7, {0}
    9030:	ee014f10 	mcr	15, 0, r4, cr1, cr0, {0}
    9034:	e8bd0010 	pop	{r4}
    9038:	e12fff1e 	bx	lr
    903c:	00808011 	addeq	r8, r0, r1, lsl r0

00009040 <configure_mmu_C>:
    9040:	e52d4004 	push	{r4}		; (str r4, [sp, #-4]!)
    9044:	e59f303c 	ldr	r3, [pc, #60]	; 9088 <configure_mmu_C+0x48>
    9048:	e5933000 	ldr	r3, [r3]
    904c:	e1a04003 	mov	r4, r3
    9050:	e59f3034 	ldr	r3, [pc, #52]	; 908c <configure_mmu_C+0x4c>
    9054:	e5933000 	ldr	r3, [r3]
    9058:	e2832001 	add	r2, r3, #1
    905c:	e59f3028 	ldr	r3, [pc, #40]	; 908c <configure_mmu_C+0x4c>
    9060:	e5832000 	str	r2, [r3]
    9064:	ee080f17 	mcr	15, 0, r0, cr8, cr7, {0}
    9068:	ee024f10 	mcr	15, 0, r4, cr2, cr0, {0}
    906c:	ee024f30 	mcr	15, 0, r4, cr2, cr0, {1}
    9070:	e3a03000 	mov	r3, #0
    9074:	ee023f50 	mcr	15, 0, r3, cr2, cr0, {2}
    9078:	e3a03003 	mov	r3, #3
    907c:	ee033f10 	mcr	15, 0, r3, cr3, cr0, {0}
    9080:	e8bd0010 	pop	{r4}
    9084:	e12fff1e 	bx	lr
    9088:	00009468 	andeq	r9, r0, r8, ror #8
    908c:	00009464 	andeq	r9, r0, r4, ror #8

00009090 <new_frame>:
    9090:	e24dd008 	sub	sp, sp, #8
    9094:	e3a03000 	mov	r3, #0
    9098:	e58d3004 	str	r3, [sp, #4]
    909c:	ea000013 	b	90f0 <new_frame+0x60>
    90a0:	e59f3068 	ldr	r3, [pc, #104]	; 9110 <new_frame+0x80>
    90a4:	e5932000 	ldr	r2, [r3]
    90a8:	e59d3004 	ldr	r3, [sp, #4]
    90ac:	e0823003 	add	r3, r2, r3
    90b0:	e5d33000 	ldrb	r3, [r3]
    90b4:	e3530000 	cmp	r3, #0
    90b8:	1a000009 	bne	90e4 <new_frame+0x54>
    90bc:	e59f304c 	ldr	r3, [pc, #76]	; 9110 <new_frame+0x80>
    90c0:	e5932000 	ldr	r2, [r3]
    90c4:	e59d3004 	ldr	r3, [sp, #4]
    90c8:	e0823003 	add	r3, r2, r3
    90cc:	e3a02001 	mov	r2, #1
    90d0:	e5c32000 	strb	r2, [r3]
    90d4:	e59d3004 	ldr	r3, [sp, #4]
    90d8:	e2833c05 	add	r3, r3, #1280	; 0x500
    90dc:	e1a03603 	lsl	r3, r3, #12
    90e0:	ea000007 	b	9104 <new_frame+0x74>
    90e4:	e59d3004 	ldr	r3, [sp, #4]
    90e8:	e2833001 	add	r3, r3, #1
    90ec:	e58d3004 	str	r3, [sp, #4]
    90f0:	e59d2004 	ldr	r2, [sp, #4]
    90f4:	e59f3018 	ldr	r3, [pc, #24]	; 9114 <new_frame+0x84>
    90f8:	e1520003 	cmp	r2, r3
    90fc:	daffffe7 	ble	90a0 <new_frame+0x10>
    9100:	e3a03000 	mov	r3, #0
    9104:	e1a00003 	mov	r0, r3
    9108:	e28dd008 	add	sp, sp, #8
    910c:	e12fff1e 	bx	lr
    9110:	0000943c 	andeq	r9, r0, ip, lsr r4
    9114:	00020fff 	strdeq	r0, [r2], -pc	; <UNPREDICTABLE>

00009118 <delete_frame>:
    9118:	e24dd010 	sub	sp, sp, #16
    911c:	e58d0004 	str	r0, [sp, #4]
    9120:	e59d3004 	ldr	r3, [sp, #4]
    9124:	e2433605 	sub	r3, r3, #5242880	; 0x500000
    9128:	e1a03623 	lsr	r3, r3, #12
    912c:	e58d300c 	str	r3, [sp, #12]
    9130:	e59f301c 	ldr	r3, [pc, #28]	; 9154 <delete_frame+0x3c>
    9134:	e5932000 	ldr	r2, [r3]
    9138:	e59d300c 	ldr	r3, [sp, #12]
    913c:	e0823003 	add	r3, r2, r3
    9140:	e3a02000 	mov	r2, #0
    9144:	e5c32000 	strb	r2, [r3]
    9148:	e1a00000 	nop			; (mov r0, r0)
    914c:	e28dd010 	add	sp, sp, #16
    9150:	e12fff1e 	bx	lr
    9154:	0000943c 	andeq	r9, r0, ip, lsr r4

00009158 <vMem_Alloc>:
    9158:	e92d4010 	push	{r4, lr}
    915c:	e24dd020 	sub	sp, sp, #32
    9160:	e58d0004 	str	r0, [sp, #4]
    9164:	e3a03000 	mov	r3, #0
    9168:	e58d301c 	str	r3, [sp, #28]
    916c:	ea00003c 	b	9264 <vMem_Alloc+0x10c>
    9170:	e59d301c 	ldr	r3, [sp, #28]
    9174:	e1a03603 	lsl	r3, r3, #12
    9178:	e1a02003 	mov	r2, r3
    917c:	e59f3128 	ldr	r3, [pc, #296]	; 92ac <vMem_Alloc+0x154>
    9180:	e5933000 	ldr	r3, [r3]
    9184:	e0823003 	add	r3, r2, r3
    9188:	e58d3014 	str	r3, [sp, #20]
    918c:	e59d3014 	ldr	r3, [sp, #20]
    9190:	e1a03a23 	lsr	r3, r3, #20
    9194:	e58d3010 	str	r3, [sp, #16]
    9198:	e3a03000 	mov	r3, #0
    919c:	e58d3018 	str	r3, [sp, #24]
    91a0:	e59f3108 	ldr	r3, [pc, #264]	; 92b0 <vMem_Alloc+0x158>
    91a4:	e5932000 	ldr	r2, [r3]
    91a8:	e59d3010 	ldr	r3, [sp, #16]
    91ac:	e1a03103 	lsl	r3, r3, #2
    91b0:	e0823003 	add	r3, r2, r3
    91b4:	e5933000 	ldr	r3, [r3]
    91b8:	e3530000 	cmp	r3, #0
    91bc:	1a00000c 	bne	91f4 <vMem_Alloc+0x9c>
    91c0:	ebffff51 	bl	8f0c <new_second_table>
    91c4:	e58d0018 	str	r0, [sp, #24]
    91c8:	e59f30e0 	ldr	r3, [pc, #224]	; 92b0 <vMem_Alloc+0x158>
    91cc:	e5932000 	ldr	r2, [r3]
    91d0:	e59d3010 	ldr	r3, [sp, #16]
    91d4:	e1a03103 	lsl	r3, r3, #2
    91d8:	e0822003 	add	r2, r2, r3
    91dc:	e59d3018 	ldr	r3, [sp, #24]
    91e0:	e3c33fff 	bic	r3, r3, #1020	; 0x3fc
    91e4:	e3c33003 	bic	r3, r3, #3
    91e8:	e3833001 	orr	r3, r3, #1
    91ec:	e5823000 	str	r3, [r2]
    91f0:	ea000008 	b	9218 <vMem_Alloc+0xc0>
    91f4:	e59f30b4 	ldr	r3, [pc, #180]	; 92b0 <vMem_Alloc+0x158>
    91f8:	e5932000 	ldr	r2, [r3]
    91fc:	e59d3010 	ldr	r3, [sp, #16]
    9200:	e1a03103 	lsl	r3, r3, #2
    9204:	e0823003 	add	r3, r2, r3
    9208:	e5933000 	ldr	r3, [r3]
    920c:	e3c33fff 	bic	r3, r3, #1020	; 0x3fc
    9210:	e3c33003 	bic	r3, r3, #3
    9214:	e58d3018 	str	r3, [sp, #24]
    9218:	e59d3014 	ldr	r3, [sp, #20]
    921c:	e1a03623 	lsr	r3, r3, #12
    9220:	e6ef3073 	uxtb	r3, r3
    9224:	e58d300c 	str	r3, [sp, #12]
    9228:	e59d300c 	ldr	r3, [sp, #12]
    922c:	e1a03103 	lsl	r3, r3, #2
    9230:	e59d2018 	ldr	r2, [sp, #24]
    9234:	e0824003 	add	r4, r2, r3
    9238:	ebffff94 	bl	9090 <new_frame>
    923c:	e1a03000 	mov	r3, r0
    9240:	e3c33eff 	bic	r3, r3, #4080	; 0xff0
    9244:	e3c3300f 	bic	r3, r3, #15
    9248:	e59f2064 	ldr	r2, [pc, #100]	; 92b4 <vMem_Alloc+0x15c>
    924c:	e5922000 	ldr	r2, [r2]
    9250:	e1833002 	orr	r3, r3, r2
    9254:	e5843000 	str	r3, [r4]
    9258:	e59d301c 	ldr	r3, [sp, #28]
    925c:	e2833001 	add	r3, r3, #1
    9260:	e58d301c 	str	r3, [sp, #28]
    9264:	e59d201c 	ldr	r2, [sp, #28]
    9268:	e59d3004 	ldr	r3, [sp, #4]
    926c:	e1520003 	cmp	r2, r3
    9270:	3affffbe 	bcc	9170 <vMem_Alloc+0x18>
    9274:	e59f3030 	ldr	r3, [pc, #48]	; 92ac <vMem_Alloc+0x154>
    9278:	e5933000 	ldr	r3, [r3]
    927c:	e58d3008 	str	r3, [sp, #8]
    9280:	e59f3024 	ldr	r3, [pc, #36]	; 92ac <vMem_Alloc+0x154>
    9284:	e5932000 	ldr	r2, [r3]
    9288:	e59d3004 	ldr	r3, [sp, #4]
    928c:	e1a03603 	lsl	r3, r3, #12
    9290:	e0822003 	add	r2, r2, r3
    9294:	e59f3010 	ldr	r3, [pc, #16]	; 92ac <vMem_Alloc+0x154>
    9298:	e5832000 	str	r2, [r3]
    929c:	e59d3008 	ldr	r3, [sp, #8]
    92a0:	e1a00003 	mov	r0, r3
    92a4:	e28dd020 	add	sp, sp, #32
    92a8:	e8bd8010 	pop	{r4, pc}
    92ac:	00009454 	andeq	r9, r0, r4, asr r4
    92b0:	00009468 	andeq	r9, r0, r8, ror #8
    92b4:	00009450 	andeq	r9, r0, r0, asr r4

000092b8 <vMem_Free>:
    92b8:	e52de004 	push	{lr}		; (str lr, [sp, #-4]!)
    92bc:	e24dd02c 	sub	sp, sp, #44	; 0x2c
    92c0:	e58d0004 	str	r0, [sp, #4]
    92c4:	e58d1000 	str	r1, [sp]
    92c8:	e3a03000 	mov	r3, #0
    92cc:	e58d3024 	str	r3, [sp, #36]	; 0x24
    92d0:	ea00004e 	b	9410 <vMem_Free+0x158>
    92d4:	e59d3024 	ldr	r3, [sp, #36]	; 0x24
    92d8:	e1a03603 	lsl	r3, r3, #12
    92dc:	e1a02003 	mov	r2, r3
    92e0:	e59d3004 	ldr	r3, [sp, #4]
    92e4:	e0823003 	add	r3, r2, r3
    92e8:	e58d301c 	str	r3, [sp, #28]
    92ec:	e59d301c 	ldr	r3, [sp, #28]
    92f0:	e1a03a23 	lsr	r3, r3, #20
    92f4:	e58d3018 	str	r3, [sp, #24]
    92f8:	e59f312c 	ldr	r3, [pc, #300]	; 942c <vMem_Free+0x174>
    92fc:	e5932000 	ldr	r2, [r3]
    9300:	e59d3018 	ldr	r3, [sp, #24]
    9304:	e1a03103 	lsl	r3, r3, #2
    9308:	e0823003 	add	r3, r2, r3
    930c:	e5933000 	ldr	r3, [r3]
    9310:	e3530000 	cmp	r3, #0
    9314:	0a00003a 	beq	9404 <vMem_Free+0x14c>
    9318:	e59f310c 	ldr	r3, [pc, #268]	; 942c <vMem_Free+0x174>
    931c:	e5932000 	ldr	r2, [r3]
    9320:	e59d3018 	ldr	r3, [sp, #24]
    9324:	e1a03103 	lsl	r3, r3, #2
    9328:	e0823003 	add	r3, r2, r3
    932c:	e5933000 	ldr	r3, [r3]
    9330:	e3c33fff 	bic	r3, r3, #1020	; 0x3fc
    9334:	e3c33003 	bic	r3, r3, #3
    9338:	e58d3014 	str	r3, [sp, #20]
    933c:	e59d301c 	ldr	r3, [sp, #28]
    9340:	e1a03623 	lsr	r3, r3, #12
    9344:	e6ef3073 	uxtb	r3, r3
    9348:	e58d3010 	str	r3, [sp, #16]
    934c:	e59d3010 	ldr	r3, [sp, #16]
    9350:	e1a03103 	lsl	r3, r3, #2
    9354:	e59d2014 	ldr	r2, [sp, #20]
    9358:	e0823003 	add	r3, r2, r3
    935c:	e5933000 	ldr	r3, [r3]
    9360:	e3c33eff 	bic	r3, r3, #4080	; 0xff0
    9364:	e3c3300f 	bic	r3, r3, #15
    9368:	e58d300c 	str	r3, [sp, #12]
    936c:	e59d000c 	ldr	r0, [sp, #12]
    9370:	ebffff68 	bl	9118 <delete_frame>
    9374:	e59d3010 	ldr	r3, [sp, #16]
    9378:	e1a03103 	lsl	r3, r3, #2
    937c:	e59d2014 	ldr	r2, [sp, #20]
    9380:	e0823003 	add	r3, r2, r3
    9384:	e3a02000 	mov	r2, #0
    9388:	e5832000 	str	r2, [r3]
    938c:	e3a03000 	mov	r3, #0
    9390:	e58d3020 	str	r3, [sp, #32]
    9394:	ea000009 	b	93c0 <vMem_Free+0x108>
    9398:	e59d3020 	ldr	r3, [sp, #32]
    939c:	e1a03103 	lsl	r3, r3, #2
    93a0:	e59d2014 	ldr	r2, [sp, #20]
    93a4:	e0823003 	add	r3, r2, r3
    93a8:	e5933000 	ldr	r3, [r3]
    93ac:	e3530000 	cmp	r3, #0
    93b0:	1a000006 	bne	93d0 <vMem_Free+0x118>
    93b4:	e59d3020 	ldr	r3, [sp, #32]
    93b8:	e2833001 	add	r3, r3, #1
    93bc:	e58d3020 	str	r3, [sp, #32]
    93c0:	e59d3020 	ldr	r3, [sp, #32]
    93c4:	e35300ff 	cmp	r3, #255	; 0xff
    93c8:	dafffff2 	ble	9398 <vMem_Free+0xe0>
    93cc:	ea000000 	b	93d4 <vMem_Free+0x11c>
    93d0:	e1a00000 	nop			; (mov r0, r0)
    93d4:	e59d3020 	ldr	r3, [sp, #32]
    93d8:	e3530c01 	cmp	r3, #256	; 0x100
    93dc:	1a000008 	bne	9404 <vMem_Free+0x14c>
    93e0:	e59d0014 	ldr	r0, [sp, #20]
    93e4:	ebfffeea 	bl	8f94 <delete_second_table>
    93e8:	e59f303c 	ldr	r3, [pc, #60]	; 942c <vMem_Free+0x174>
    93ec:	e5932000 	ldr	r2, [r3]
    93f0:	e59d3018 	ldr	r3, [sp, #24]
    93f4:	e1a03103 	lsl	r3, r3, #2
    93f8:	e0823003 	add	r3, r2, r3
    93fc:	e3a02000 	mov	r2, #0
    9400:	e5832000 	str	r2, [r3]
    9404:	e59d3024 	ldr	r3, [sp, #36]	; 0x24
    9408:	e2833001 	add	r3, r3, #1
    940c:	e58d3024 	str	r3, [sp, #36]	; 0x24
    9410:	e59d2024 	ldr	r2, [sp, #36]	; 0x24
    9414:	e59d3000 	ldr	r3, [sp]
    9418:	e1520003 	cmp	r2, r3
    941c:	3affffac 	bcc	92d4 <vMem_Free+0x1c>
    9420:	ee080f17 	mcr	15, 0, r0, cr8, cr7, {0}
    9424:	e28dd02c 	add	sp, sp, #44	; 0x2c
    9428:	e8bd8000 	pop	{pc}
    942c:	00009468 	andeq	r9, r0, r8, ror #8

Disassembly of section .bss:

00009430 <freelist>:
    9430:	00000000 	andeq	r0, r0, r0

00009434 <top>:
    9434:	00000000 	andeq	r0, r0, r0

00009438 <heap_limit>:
    9438:	00000000 	andeq	r0, r0, r0

0000943c <occupation_table>:
    943c:	00000000 	andeq	r0, r0, r0

00009440 <mini_table>:
    9440:	00000000 	andeq	r0, r0, r0

00009444 <kernel_tt_address>:
    9444:	00000000 	andeq	r0, r0, r0

00009448 <device_flags>:
    9448:	00000437 	andeq	r0, r0, r7, lsr r4

0000944c <kernel_flags>:
    944c:	00000472 	andeq	r0, r0, r2, ror r4

00009450 <process_flags>:
    9450:	00000872 	andeq	r0, r0, r2, ror r8

00009454 <last_virtual_address>:
    9454:	00500000 	subseq	r0, r0, r0

00009458 <CL>:
	...

00009460 <current_process>:
    9460:	00000000 	andeq	r0, r0, r0

00009464 <total>:
    9464:	00000000 	andeq	r0, r0, r0

00009468 <current_first_table>:
    9468:	00000000 	andeq	r0, r0, r0

Disassembly of section .ARM.attributes:

00000000 <.ARM.attributes>:
   0:	00003141 	andeq	r3, r0, r1, asr #2
   4:	61656100 	cmnvs	r5, r0, lsl #2
   8:	01006962 	tsteq	r0, r2, ror #18
   c:	00000027 	andeq	r0, r0, r7, lsr #32
  10:	005a3605 	subseq	r3, sl, r5, lsl #12
  14:	01080706 	tsteq	r8, r6, lsl #14
  18:	020a0109 	andeq	r0, sl, #1073741826	; 0x40000002
  1c:	01140412 	tsteq	r4, r2, lsl r4
  20:	03170115 	tsteq	r7, #1073741829	; 0x40000005
  24:	011a0118 	tsteq	sl, r8, lsl r1
  28:	011c031b 	tsteq	ip, fp, lsl r3
  2c:	012c0122 	teqeq	ip, r2, lsr #2
  30:	Address 0x0000000000000030 is out of bounds.


Disassembly of section .comment:

00000000 <.comment>:
   0:	3a434347 	bcc	10d0d24 <__bss_end+0x10c78b8>
   4:	4e472820 	cdpmi	8, 4, cr2, cr7, cr0, {1}
   8:	34202955 	strtcc	r2, [r0], #-2389	; 0x955
   c:	312e372e 	teqcc	lr, lr, lsr #14
	...

Disassembly of section .debug_line:

00000000 <.debug_line>:
   0:	00000061 	andeq	r0, r0, r1, rrx
   4:	00200002 	eoreq	r0, r0, r2
   8:	01020000 	mrseq	r0, (UNDEF: 2)
   c:	000d0efb 	strdeq	r0, [sp], -fp
  10:	01010101 	tsteq	r1, r1, lsl #2
  14:	01000000 	mrseq	r0, (UNDEF: 0)
  18:	00010000 	andeq	r0, r1, r0
  1c:	74636576 	strbtvc	r6, [r3], #-1398	; 0x576
  20:	2e73726f 	cdpcs	2, 7, cr7, cr3, cr15, {3}
  24:	00000073 	andeq	r0, r0, r3, ror r0
  28:	05000000 	streq	r0, [r0, #-0]
  2c:	00800002 	addeq	r0, r0, r2
  30:	2f2f1900 	svccs	0x002f1900
  34:	2f2f2f2f 	svccs	0x002f2f2f
  38:	080b032f 	stmdaeq	fp, {r0, r1, r2, r3, r5, r8, r9}
  3c:	2f2f2f20 	svccs	0x002f2f20
  40:	2f322f2f 	svccs	0x00322f2f
  44:	2f2f322f 	svccs	0x002f322f
  48:	302f2f31 	eorcc	r2, pc, r1, lsr pc	; <UNPREDICTABLE>
  4c:	2f2f2f30 	svccs	0x002f2f30
  50:	2f322f2f 	svccs	0x00322f2f
  54:	2f322f32 	svccs	0x00322f32
  58:	2f322f32 	svccs	0x00322f32
  5c:	31303232 	teqcc	r0, r2, lsr r2
  60:	01000202 	tsteq	r0, r2, lsl #4
  64:	00006001 	andeq	r6, r0, r1
  68:	2a000200 	bcs	870 <_start-0x7790>
  6c:	02000000 	andeq	r0, r0, #0
  70:	0d0efb01 	vstreq	d15, [lr, #-4]
  74:	01010100 	mrseq	r0, (UNDEF: 17)
  78:	00000001 	andeq	r0, r0, r1
  7c:	01000001 	tsteq	r0, r1
  80:	72656b00 	rsbvc	r6, r5, #0
  84:	2e6c656e 	cdpcs	5, 6, cr6, cr12, cr14, {3}
  88:	00000063 	andeq	r0, r0, r3, rrx
  8c:	68637300 	stmdavs	r3!, {r8, r9, ip, sp, lr}^
  90:	682e6465 	stmdavs	lr!, {r0, r2, r5, r6, sl, sp, lr}
  94:	00000000 	andeq	r0, r0, r0
  98:	02050000 	andeq	r0, r5, #0
  9c:	000080d0 	ldrdeq	r8, [r0], -r0
  a0:	02002f18 	andeq	r2, r0, #96	; 0x60
  a4:	00500104 	subseq	r0, r0, r4, lsl #2
  a8:	67010402 	strvs	r0, [r1, -r2, lsl #8]
  ac:	02002f30 	andeq	r2, r0, #192	; 0xc0
  b0:	00500104 	subseq	r0, r0, r4, lsl #2
  b4:	67010402 	strvs	r0, [r1, -r2, lsl #8]
  b8:	0a032f31 	beq	cbd84 <__bss_end+0xc2918>
  bc:	0083832e 	addeq	r8, r3, lr, lsr #6
  c0:	2f010402 	svccs	0x00010402
  c4:	01000602 	tsteq	r0, r2, lsl #12
  c8:	00005901 	andeq	r5, r0, r1, lsl #18
  cc:	21000200 	mrscs	r0, R8_usr
  d0:	02000000 	andeq	r0, r0, #0
  d4:	0d0efb01 	vstreq	d15, [lr, #-4]
  d8:	01010100 	mrseq	r0, (UNDEF: 17)
  dc:	00000001 	andeq	r0, r0, r1
  e0:	01000001 	tsteq	r0, r1
  e4:	79687000 	stmdbvc	r8!, {ip, sp, lr}^
  e8:	6f6c6c41 	svcvs	0x006c6c41
  ec:	00632e63 	rsbeq	r2, r3, r3, ror #28
  f0:	00000000 	andeq	r0, r0, r0
  f4:	40020500 	andmi	r0, r2, r0, lsl #10
  f8:	03000081 	movweq	r0, #129	; 0x81
  fc:	4c67010c 	stfmie	f0, [r7], #-48	; 0xffffffd0
 100:	002f2f2f 	eoreq	r2, pc, pc, lsr #30
 104:	2c010402 	cfstrscs	mvf0, [r1], {2}
 108:	02040200 	andeq	r0, r4, #0
 10c:	86064a06 	strhi	r4, [r6], -r6, lsl #20
 110:	bbf44b4b 	bllt	ffd12e44 <__bss_end+0xffd099d8>
 114:	da2f4c4c 	ble	bd324c <__bss_end+0xbc9de0>
 118:	67833083 	strvs	r3, [r3, r3, lsl #1]
 11c:	6767864b 	strbvs	r8, [r7, -fp, asr #12]!
 120:	0008029f 	muleq	r8, pc, r2	; <UNPREDICTABLE>
 124:	004b0101 	subeq	r0, fp, r1, lsl #2
 128:	00020000 	andeq	r0, r2, r0
 12c:	0000001b 	andeq	r0, r0, fp, lsl r0
 130:	0efb0102 	cdpeq	1, 15, cr0, cr11, cr2, {0}
 134:	0101000d 	tsteq	r1, sp
 138:	00000101 	andeq	r0, r0, r1, lsl #2
 13c:	00000100 	andeq	r0, r0, r0, lsl #2
 140:	77680001 	strbvc	r0, [r8, -r1]!
 144:	0000632e 	andeq	r6, r0, lr, lsr #6
 148:	00000000 	andeq	r0, r0, r0
 14c:	82780205 	rsbshi	r0, r8, #1342177280	; 0x50000000
 150:	1c030000 	stcne	0, cr0, [r3], {-0}
 154:	67674b01 	strbvs	r4, [r7, -r1, lsl #22]!
 158:	09036768 	stmdbeq	r3, {r3, r5, r6, r8, r9, sl, sp, lr}
 15c:	4e672f9e 	mcrmi	15, 3, r2, cr7, cr14, {4}
 160:	4f51672f 	svcmi	0x0051672f
 164:	69676767 	stmdbvs	r7!, {r0, r1, r2, r5, r6, r8, r9, sl, sp, lr}^
 168:	6a676769 	bvs	19d9f14 <__bss_end+0x19d0aa8>
 16c:	67a06869 	strvs	r6, [r0, r9, ror #16]!
 170:	01001002 	tsteq	r0, r2
 174:	0000e101 	andeq	lr, r0, r1, lsl #2
 178:	29000200 	stmdbcs	r0, {r9}
 17c:	02000000 	andeq	r0, r0, #0
 180:	0d0efb01 	vstreq	d15, [lr, #-4]
 184:	01010100 	mrseq	r0, (UNDEF: 17)
 188:	00000001 	andeq	r0, r0, r1
 18c:	01000001 	tsteq	r0, r1
 190:	68637300 	stmdavs	r3!, {r8, r9, ip, sp, lr}^
 194:	632e6465 	teqvs	lr, #1694498816	; 0x65000000
 198:	00000000 	andeq	r0, r0, r0
 19c:	65686373 	strbvs	r6, [r8, #-883]!	; 0x373
 1a0:	00682e64 	rsbeq	r2, r8, r4, ror #28
 1a4:	00000000 	andeq	r0, r0, r0
 1a8:	b4020500 	strlt	r0, [r2], #-1280	; 0x500
 1ac:	17000083 	strne	r0, [r0, -r3, lsl #1]
 1b0:	67bb9f9f 			; <UNDEFINED> instruction: 0x67bb9f9f
 1b4:	bb4a0f03 	bllt	1283dc8 <__bss_end+0x127a95c>
 1b8:	67676767 	strbvs	r6, [r7, -r7, ror #14]!
 1bc:	4c676783 	stclmi	7, cr6, [r7], #-524	; 0xfffffdf4
 1c0:	00a067a0 	adceq	r6, r0, r0, lsr #15
 1c4:	06010402 	streq	r0, [r1], -r2, lsl #8
 1c8:	c908069e 	stmdbgt	r8, {r1, r2, r3, r4, r7, r9, sl}
 1cc:	83856767 	orrhi	r6, r5, #27000832	; 0x19c0000
 1d0:	2f68a067 	svccs	0x0068a067
 1d4:	83832f9f 	orrhi	r2, r3, #636	; 0x27c
 1d8:	4b4c839f 	blmi	132105c <__bss_end+0x1317bf0>
 1dc:	00813069 	addeq	r3, r1, r9, rrx
 1e0:	06010402 	streq	r0, [r1], -r2, lsl #8
 1e4:	0402002e 	streq	r0, [r2], #-46	; 0x2e
 1e8:	bd069e02 	stclt	14, cr9, [r6, #-8]
 1ec:	bbd7839f 	bllt	ff5e1070 <__bss_end+0xff5d7c04>
 1f0:	0402009f 	streq	r0, [r2], #-159	; 0x9f
 1f4:	66770301 	ldrbtvs	r0, [r7], -r1, lsl #6
 1f8:	68ba1803 	ldmvs	sl!, {r0, r1, fp, ip}
 1fc:	02002f13 	andeq	r2, r0, #76	; 0x4c
 200:	a19d0104 	orrsge	r0, sp, r4, lsl #2
 204:	2f9f2f4c 	svccs	0x009f2f4c
 208:	9f4b6883 	svcls	0x004b6883
 20c:	00302f2f 	eorseq	r2, r0, pc, lsr #30
 210:	06010402 	streq	r0, [r1], -r2, lsl #8
 214:	2f9f0682 	svccs	0x009f0682
 218:	2f849f9f 	svccs	0x00849f9f
 21c:	002f679f 	mlaeq	pc, pc, r7, r6	; <UNPREDICTABLE>
 220:	65010402 	strvs	r0, [r1, #-1026]	; 0x402
 224:	303083a1 	eorscc	r8, r0, r1, lsr #7
 228:	0200472f 	andeq	r4, r0, #12320768	; 0xbc0000
 22c:	2e060104 	adfcss	f0, f6, f4
 230:	849fa306 	ldrhi	sl, [pc], #774	; 238 <_start-0x7dc8>
 234:	9f309f9f 	svcls	0x00309f9f
 238:	14692f2f 	strbtne	r2, [r9], #-3887	; 0xf2f
 23c:	4b9f4ba0 	blmi	fe7d30c4 <__bss_end+0xfe7c9c58>
 240:	0402002f 	streq	r0, [r2], #-47	; 0x2f
 244:	67852d01 	strvs	r2, [r5, r1, lsl #26]
 248:	9f9f2f4c 	svcls	0x009f2f4c
 24c:	30a03084 	adccc	r3, r0, r4, lsl #1
 250:	9f9f839f 	svcls	0x009f839f
 254:	0004022f 	andeq	r0, r4, pc, lsr #4
 258:	00550101 	subseq	r0, r5, r1, lsl #2
 25c:	00020000 	andeq	r0, r2, r0
 260:	0000002b 	andeq	r0, r0, fp, lsr #32
 264:	0efb0102 	cdpeq	1, 15, cr0, cr11, cr2, {0}
 268:	0101000d 	tsteq	r1, sp
 26c:	00000101 	andeq	r0, r0, r1, lsl #2
 270:	00000100 	andeq	r0, r0, r0, lsl #2
 274:	79730001 	ldmdbvc	r3!, {r0}^
 278:	6c616373 	stclvs	3, cr6, [r1], #-460	; 0xfffffe34
 27c:	00632e6c 	rsbeq	r2, r3, ip, ror #28
 280:	73000000 	movwvc	r0, #0
 284:	64656863 	strbtvs	r6, [r5], #-2147	; 0x863
 288:	0000682e 	andeq	r6, r0, lr, lsr #16
 28c:	00000000 	andeq	r0, r0, r0
 290:	89c80205 	stmibhi	r8, {r0, r2, r9}^
 294:	2f150000 	svccs	0x00150000
 298:	67302f4b 	ldrvs	r2, [r0, -fp, asr #30]!
 29c:	4c2f4b4b 	stcmi	11, cr4, [pc], #-300	; 178 <_start-0x7e88>
 2a0:	4c4c3001 	mcrrmi	0, 0, r3, ip, cr1
 2a4:	4b4b8483 	blmi	12e14b8 <__bss_end+0x12d804c>
 2a8:	302fbc4b 	eorcc	fp, pc, fp, asr #24
 2ac:	0402302f 	streq	r3, [r2], #-47	; 0x2f
 2b0:	c5010100 	strgt	r0, [r1, #-256]	; 0x100
 2b4:	02000001 	andeq	r0, r0, #1
 2b8:	00003f00 	andeq	r3, r0, r0, lsl #30
 2bc:	fb010200 	blx	40ac6 <__bss_end+0x3765a>
 2c0:	01000d0e 	tsteq	r0, lr, lsl #26
 2c4:	00010101 	andeq	r0, r1, r1, lsl #2
 2c8:	00010000 	andeq	r0, r1, r0
 2cc:	6d760100 	ldfvse	f0, [r6, #-0]
 2d0:	76006d65 	strvc	r6, [r0], -r5, ror #26
 2d4:	2f6d656d 	svccs	0x006d656d
 2d8:	00002e2e 	andeq	r2, r0, lr, lsr #28
 2dc:	6d656d76 	stclvs	13, cr6, [r5, #-472]!	; 0xfffffe28
 2e0:	0100632e 	tsteq	r0, lr, lsr #6
 2e4:	79740000 	ldmdbvc	r4!, {}^	; <UNPREDICTABLE>
 2e8:	2e736570 	mrccs	5, 3, r6, cr3, cr0, {3}
 2ec:	00020068 	andeq	r0, r2, r8, rrx
 2f0:	656d7600 	strbvs	r7, [sp, #-1536]!	; 0x600
 2f4:	00682e6d 	rsbeq	r2, r8, sp, ror #28
 2f8:	00000001 	andeq	r0, r0, r1
 2fc:	80020500 	andhi	r0, r2, r0, lsl #10
 300:	0300008a 	movweq	r0, #138	; 0x8a
 304:	684d0127 	stmdavs	sp, {r0, r1, r2, r5, r8}^
 308:	02040200 	andeq	r0, r4, #0
 30c:	04020067 	streq	r0, [r2], #-103	; 0x67
 310:	0200b902 	andeq	fp, r0, #32768	; 0x8000
 314:	66060104 	strvs	r0, [r6], -r4, lsl #2
 318:	00688606 	rsbeq	r8, r8, r6, lsl #12
 31c:	67020402 	strvs	r0, [r2, -r2, lsl #8]
 320:	02040200 	andeq	r0, r4, #0
 324:	040200b9 	streq	r0, [r2], #-185	; 0xb9
 328:	06660601 	strbteq	r0, [r6], -r1, lsl #12
 32c:	02004b86 	andeq	r4, r0, #137216	; 0x21800
 330:	00670204 	rsbeq	r0, r7, r4, lsl #4
 334:	b9020402 	stmdblt	r2, {r1, sl}
 338:	01040200 	mrseq	r0, R12_usr
 33c:	86066606 	strhi	r6, [r6], -r6, lsl #12
 340:	082f85f3 	stmdaeq	pc!, {r0, r1, r4, r5, r6, r7, r8, sl, pc}	; <UNPREDICTABLE>
 344:	4b686842 	blmi	1a1a454 <__bss_end+0x1a10fe8>
 348:	02002308 	andeq	r2, r0, #536870912	; 0x20000000
 34c:	00680204 	rsbeq	r0, r8, r4, lsl #4
 350:	08020402 	stmdaeq	r2, {r1, sl}
 354:	040200c6 	streq	r0, [r2], #-198	; 0xc6
 358:	06660601 	strbteq	r0, [r6], -r1, lsl #12
 35c:	00667a03 	rsbeq	r7, r6, r3, lsl #20
 360:	06010402 	streq	r0, [r1], -r2, lsl #8
 364:	0b030666 	bleq	c1d04 <__bss_end+0xb8898>
 368:	4b684b66 	blmi	1a13108 <__bss_end+0x1a09c9c>
 36c:	02005a08 	andeq	r5, r0, #32768	; 0x8000
 370:	00680204 	rsbeq	r0, r8, r4, lsl #4
 374:	08020402 	stmdaeq	r2, {r1, sl}
 378:	040200fe 	streq	r0, [r2], #-254	; 0xfe
 37c:	06660601 	strbteq	r0, [r6], -r1, lsl #12
 380:	04020061 	streq	r0, [r2], #-97	; 0x61
 384:	06660601 	strbteq	r0, [r6], -r1, lsl #12
 388:	85660a03 	strbhi	r0, [r6, #-2563]!	; 0xa03
 38c:	d8686831 	stmdale	r8!, {r0, r4, r5, fp, sp, lr}^
 390:	00a13067 	adceq	r3, r1, r7, rrx
 394:	68020402 	stmdavs	r2, {r1, sl}
 398:	02040200 	andeq	r0, r4, #0
 39c:	040200f0 	streq	r0, [r2], #-240	; 0xf0
 3a0:	06660601 	strbteq	r0, [r6], -r1, lsl #12
 3a4:	8272036a 	rsbshi	r0, r2, #-1476395007	; 0xa8000001
 3a8:	01040200 	mrseq	r0, R12_usr
 3ac:	9c066606 	stcls	6, cr6, [r6], {6}
 3b0:	01040200 	mrseq	r0, R12_usr
 3b4:	03066606 	movweq	r6, #26118	; 0x6606
 3b8:	a12f8216 	teqge	pc, r6, lsl r2	; <UNPREDICTABLE>
 3bc:	0200844b 	andeq	r8, r0, #1258291200	; 0x4b000000
 3c0:	00680204 	rsbeq	r0, r8, r4, lsl #4
 3c4:	f0020402 			; <UNDEFINED> instruction: 0xf0020402
 3c8:	01040200 	mrseq	r0, R12_usr
 3cc:	6a066606 	bvs	199bec <__bss_end+0x190780>
 3d0:	02040200 	andeq	r0, r4, #0
 3d4:	04020068 	streq	r0, [r2], #-104	; 0x68
 3d8:	0200b802 	andeq	fp, r0, #131072	; 0x20000
 3dc:	66060104 	strvs	r0, [r6], -r4, lsl #2
 3e0:	852f8606 	strhi	r8, [pc, #-1542]!	; fffffde2 <__bss_end+0xffff6976>
 3e4:	bbd86830 	bllt	ff61a4ac <__bss_end+0xff611040>
 3e8:	0402007d 	streq	r0, [r2], #-125	; 0x7d
 3ec:	06660601 	strbteq	r0, [r6], -r1, lsl #12
 3f0:	2f820903 	svccs	0x00820903
 3f4:	bb834ba1 	bllt	fe0d3280 <__bss_end+0xfe0c9e14>
 3f8:	02040200 	andeq	r0, r4, #0
 3fc:	04020068 	streq	r0, [r2], #-104	; 0x68
 400:	0200b802 	andeq	fp, r0, #131072	; 0x20000
 404:	66060104 	strvs	r0, [r6], -r4, lsl #2
 408:	692f6a06 	stmdbvs	pc!, {r1, r2, r9, fp, sp, lr}	; <UNPREDICTABLE>
 40c:	302f4b30 	eorcc	r4, pc, r0, lsr fp	; <UNPREDICTABLE>
 410:	69304c30 	ldmdbvs	r0!, {r4, r5, sl, fp, lr}
 414:	31a0672f 	lsrcc	r6, pc, #14
 418:	4b4e3030 	blmi	138c4e0 <__bss_end+0x1383074>
 41c:	d8683085 	stmdale	r8!, {r0, r2, r7, ip, sp}^
 420:	02007dbb 	andeq	r7, r0, #11968	; 0x2ec0
 424:	66060104 	strvs	r0, [r6], -r4, lsl #2
 428:	820a0306 	andhi	r0, sl, #402653184	; 0x18000000
 42c:	834ba12f 	movthi	sl, #45359	; 0xb12f
 430:	68692fbb 	stmdavs	r9!, {r0, r1, r3, r4, r5, r7, r8, r9, sl, fp, sp}^
 434:	4b67d869 	blmi	19f65e0 <__bss_end+0x19ed174>
 438:	5a084bf4 	bpl	213410 <__bss_end+0x209fa4>
 43c:	03842208 	orreq	r2, r4, #-2147483648	; 0x80000000
 440:	00740870 	rsbseq	r0, r4, r0, ror r8
 444:	06010402 	streq	r0, [r1], -r2, lsl #8
 448:	12030666 	andne	r0, r3, #106954752	; 0x6600000
 44c:	2fd76782 	svccs	0x00d76782
 450:	bb6884bd 	bllt	1a2174c <__bss_end+0x1a182e0>
 454:	2208f467 	andcs	pc, r8, #1728053248	; 0x67000000
 458:	bd4bf385 	stcllt	3, cr15, [fp, #-532]	; 0xfffffdec
 45c:	0200d468 	andeq	sp, r0, #1744830464	; 0x68000000
 460:	66060104 	strvs	r0, [r6], -r4, lsl #2
 464:	69318706 	ldmdbvs	r1!, {r1, r2, r8, r9, sl, pc}
 468:	d664034b 	strbtle	r0, [r4], -fp, asr #6
 46c:	01040200 	mrseq	r0, R12_usr
 470:	03066606 	movweq	r6, #26118	; 0x6606
 474:	022f8220 	eoreq	r8, pc, #2
 478:	01010006 	tsteq	r1, r6

Disassembly of section .debug_info:

00000000 <.debug_info>:
   0:	00000052 	andeq	r0, r0, r2, asr r0
   4:	00000002 	andeq	r0, r0, r2
   8:	01040000 	mrseq	r0, (UNDEF: 4)
   c:	00000000 	andeq	r0, r0, r0
  10:	00008000 	andeq	r8, r0, r0
  14:	000080d0 	ldrdeq	r8, [r0], -r0
  18:	74636576 	strbtvc	r6, [r3], #-1398	; 0x576
  1c:	2e73726f 	cdpcs	2, 7, cr7, cr3, cr15, {3}
  20:	682f0073 	stmdavs	pc!, {r0, r1, r4, r5, r6}	; <UNPREDICTABLE>
  24:	2f656d6f 	svccs	0x00656d6f
  28:	63696e72 	cmnvs	r9, #1824	; 0x720
  2c:	74656c6f 	strbtvc	r6, [r5], #-3183	; 0xc6f
  30:	3134482f 	teqcc	r4, pc, lsr #16
  34:	4f2f3430 	svcmi	0x002f3430
  38:	734f2f53 	movtvc	r2, #65363	; 0xff53
  3c:	7361522d 	cmnvc	r1, #-805306366	; 0xd0000002
  40:	65626570 	strbvs	r6, [r2, #-1392]!	; 0x570
  44:	00797272 	rsbseq	r7, r9, r2, ror r2
  48:	20554e47 	subscs	r4, r5, r7, asr #28
  4c:	32205341 	eorcc	r5, r0, #67108865	; 0x4000001
  50:	0032322e 	eorseq	r3, r2, lr, lsr #4
  54:	01e98001 	mvneq	r8, r1
  58:	00020000 	andeq	r0, r2, r0
  5c:	00000014 	andeq	r0, r0, r4, lsl r0
  60:	00250104 	eoreq	r0, r5, r4, lsl #2
  64:	d0010000 	andle	r0, r1, r0
  68:	9c000000 	stcls	0, cr0, [r0], {-0}
  6c:	d0000000 	andle	r0, r0, r0
  70:	40000080 	andmi	r0, r0, r0, lsl #1
  74:	65000081 	strvs	r0, [r0, #-129]	; 0x81
  78:	02000000 	andeq	r0, r0, #0
  7c:	000000fa 	strdeq	r0, [r0], -sl
  80:	00300502 	eorseq	r0, r0, r2, lsl #10
  84:	fa030000 	blx	c008c <__bss_end+0xb6c20>
  88:	04000000 	streq	r0, [r0], #-0
  8c:	00550502 	subseq	r0, r5, r2, lsl #10
  90:	4e040000 	cdpmi	0, 0, cr0, cr4, cr0, {0}
  94:	00005745 	andeq	r5, r0, r5, asr #14
  98:	00003105 	andeq	r3, r0, r5, lsl #2
  9c:	81050100 	mrshi	r0, (UNDEF: 21)
  a0:	02000000 	andeq	r0, r0, #0
  a4:	00006105 	andeq	r6, r0, r5, lsl #2
  a8:	02000300 	andeq	r0, r0, #0
  ac:	0000001d 	andeq	r0, r0, sp, lsl r0
  b0:	00600702 	rsbeq	r0, r0, r2, lsl #14
  b4:	04060000 	streq	r0, [r6], #-0
  b8:	00000066 	andeq	r0, r0, r6, rrx
  bc:	7b080107 	blvc	2004e0 <__bss_end+0x1f7074>
  c0:	0c000000 	stceq	0, cr0, [r0], {-0}
  c4:	009d0e02 	addseq	r0, sp, r2, lsl #28
  c8:	73090000 	movwvc	r0, #36864	; 0x9000
  cc:	0f020070 	svceq	0x00020070
  d0:	0000009d 	muleq	r0, sp, r0
  d4:	09002302 	stmdbeq	r0, {r1, r8, r9, sp}
  d8:	02006370 	andeq	r6, r0, #-1073741823	; 0xc0000001
  dc:	00009d10 	andeq	r9, r0, r0, lsl sp
  e0:	04230200 	strteq	r0, [r3], #-512	; 0x200
  e4:	0000f20a 	andeq	pc, r0, sl, lsl #4
  e8:	9d110200 	lfmls	f0, 4, [r1, #-0]
  ec:	02000000 	andeq	r0, r0, #0
  f0:	0b000823 	bleq	2184 <_start-0x5e7c>
  f4:	00ec0804 	rsceq	r0, ip, r4, lsl #16
  f8:	021c0000 	andseq	r0, ip, #0
  fc:	00010e14 	andeq	r0, r1, r4, lsl lr
 100:	00140a00 	andseq	r0, r4, r0, lsl #20
 104:	15020000 	strne	r0, [r2, #-0]
 108:	0000010e 	andeq	r0, r0, lr, lsl #2
 10c:	0a002302 	beq	8d1c <init_no_translation_pages+0x158>
 110:	00000000 	andeq	r0, r0, r0
 114:	009d1602 	addseq	r1, sp, r2, lsl #12
 118:	23020000 	movwcs	r0, #8192	; 0x2000
 11c:	00df0a04 	sbcseq	r0, pc, r4, lsl #20
 120:	17020000 	strne	r0, [r2, -r0]
 124:	00000114 	andeq	r0, r0, r4, lsl r1
 128:	0a082302 	beq	208d38 <__bss_end+0x1ff8cc>
 12c:	00000048 	andeq	r0, r0, r8, asr #32
 130:	00551802 	subseq	r1, r5, r2, lsl #16
 134:	23020000 	movwcs	r0, #8192	; 0x2000
 138:	01000a0c 	tsteq	r0, ip, lsl #20
 13c:	19020000 	stmdbne	r2, {}	; <UNPREDICTABLE>
 140:	0000011b 	andeq	r0, r0, fp, lsl r1
 144:	0a102302 	beq	408d54 <__bss_end+0x3ff8e8>
 148:	000000d9 	ldrdeq	r0, [r0], -r9
 14c:	00251a02 	eoreq	r1, r5, r2, lsl #20
 150:	23020000 	movwcs	r0, #8192	; 0x2000
 154:	03420a14 	movteq	r0, #10772	; 0x2a14
 158:	1b020000 	blne	80160 <__bss_end+0x76cf4>
 15c:	0000009d 	muleq	r0, sp, r0
 160:	00182302 	andseq	r2, r8, r2, lsl #6
 164:	009f0406 	addseq	r0, pc, r6, lsl #8
 168:	040c0000 	streq	r0, [ip], #-0
 16c:	00008f07 	andeq	r8, r0, r7, lsl #30
 170:	68040600 	stmdavs	r4, {r9, sl}
 174:	08000000 	stmdaeq	r0, {}	; <UNPREDICTABLE>
 178:	00000054 	andeq	r0, r0, r4, asr r0
 17c:	4a1e0208 	bmi	7809a4 <__bss_end+0x777538>
 180:	0a000001 	beq	18c <_start-0x7e74>
 184:	0000003e 	andeq	r0, r0, lr, lsr r0
 188:	010e1f02 	tsteq	lr, r2, lsl #30
 18c:	23020000 	movwcs	r0, #8192	; 0x2000
 190:	006c0a00 	rsbeq	r0, ip, r0, lsl #20
 194:	20020000 	andcs	r0, r2, r0
 198:	0000010e 	andeq	r0, r0, lr, lsl #2
 19c:	00042302 	andeq	r2, r4, r2, lsl #6
 1a0:	8907020c 	stmdbhi	r7, {r2, r3, r9}
 1a4:	0c000000 	stceq	0, cr0, [r0], {-0}
 1a8:	00c20801 	sbceq	r0, r2, r1, lsl #16
 1ac:	010d0000 	mrseq	r0, (UNDEF: 13)
 1b0:	0000004e 	andeq	r0, r0, lr, asr #32
 1b4:	80d00701 	sbcshi	r0, r0, r1, lsl #14
 1b8:	80ec0000 	rschi	r0, ip, r0
 1bc:	00000000 	andeq	r0, r0, r0
 1c0:	80010000 	andhi	r0, r1, r0
 1c4:	0e000001 	cdpeq	0, 0, cr0, cr0, cr1, {0}
 1c8:	00000039 	andeq	r0, r0, r9, lsr r0
 1cc:	01800801 	orreq	r0, r0, r1, lsl #16
 1d0:	91020000 	mrsls	r0, (UNDEF: 2)
 1d4:	040f007c 	streq	r0, [pc], #-124	; 1dc <_start-0x7e24>
 1d8:	746e6905 	strbtvc	r6, [lr], #-2309	; 0x905
 1dc:	75010d00 	strvc	r0, [r1, #-3328]	; 0xd00
 1e0:	01000000 	mrseq	r0, (UNDEF: 0)
 1e4:	0080ec11 	addeq	lr, r0, r1, lsl ip
 1e8:	00810800 	addeq	r0, r1, r0, lsl #16
 1ec:	00002000 	andeq	r2, r0, r0
 1f0:	01af0100 			; <UNDEFINED> instruction: 0x01af0100
 1f4:	0f0e0000 	svceq	0x000e0000
 1f8:	01000000 	mrseq	r0, (UNDEF: 0)
 1fc:	00018012 	andeq	r8, r1, r2, lsl r0
 200:	7c910200 	lfmvc	f0, 4, [r1], {0}
 204:	09011000 	stmdbeq	r1, {ip}
 208:	01000000 	mrseq	r0, (UNDEF: 0)
 20c:	0180011c 	orreq	r0, r0, ip, lsl r1
 210:	81080000 	mrshi	r0, (UNDEF: 8)
 214:	81400000 	mrshi	r0, (UNDEF: 64)
 218:	00400000 	subeq	r0, r0, r0
 21c:	11010000 	mrsne	r0, (UNDEF: 1)
 220:	0000020b 	andeq	r0, r0, fp, lsl #4
 224:	010e2302 	tsteq	lr, r2, lsl #6
 228:	05010000 	streq	r0, [r1, #-0]
 22c:	00946003 	addseq	r6, r4, r3
 230:	4c431200 	sfmmi	f1, 2, [r3], {-0}
 234:	21240200 	teqcs	r4, r0, lsl #4
 238:	01000001 	tsteq	r0, r1
 23c:	94580305 	ldrbls	r0, [r8], #-773	; 0x305
 240:	5e000000 	cdppl	0, 0, cr0, cr0, cr0, {0}
 244:	02000001 	andeq	r0, r0, #1
 248:	00011300 	andeq	r1, r1, r0, lsl #6
 24c:	25010400 	strcs	r0, [r1, #-1024]	; 0x400
 250:	01000000 	mrseq	r0, (UNDEF: 0)
 254:	00000108 	andeq	r0, r0, r8, lsl #2
 258:	0000009c 	muleq	r0, ip, r0
 25c:	00008140 	andeq	r8, r0, r0, asr #2
 260:	00008278 	andeq	r8, r0, r8, ror r2
 264:	000000c9 	andeq	r0, r0, r9, asr #1
 268:	006c6602 	rsbeq	r6, ip, r2, lsl #12
 26c:	4d030108 	stfmis	f0, [r3, #-32]	; 0xffffffe0
 270:	03000000 	movweq	r0, #0
 274:	0000013a 	andeq	r0, r0, sl, lsr r1
 278:	004d0401 	subeq	r0, sp, r1, lsl #8
 27c:	23020000 	movwcs	r0, #8192	; 0x2000
 280:	02290300 	eoreq	r0, r9, #0
 284:	05010000 	streq	r0, [r1, #-0]
 288:	00000053 	andeq	r0, r0, r3, asr r0
 28c:	00042302 	andeq	r2, r4, r2, lsl #6
 290:	00250404 	eoreq	r0, r5, r4, lsl #8
 294:	04050000 	streq	r0, [r5], #-0
 298:	00008f07 	andeq	r8, r0, r7, lsl #30
 29c:	3f010600 	svccc	0x00010600
 2a0:	01000001 	tsteq	r0, r1
 2a4:	009f010c 	addseq	r0, pc, ip, lsl #2
 2a8:	81400000 	mrshi	r0, (UNDEF: 64)
 2ac:	81f40000 	mvnshi	r0, r0
 2b0:	00600000 	rsbeq	r0, r0, r0
 2b4:	9f010000 	svcls	0x00010000
 2b8:	07000000 	streq	r0, [r0, -r0]
 2bc:	00000229 	andeq	r0, r0, r9, lsr #4
 2c0:	00530c01 	subseq	r0, r3, r1, lsl #24
 2c4:	91020000 	mrsls	r0, (UNDEF: 2)
 2c8:	00660874 	rsbeq	r0, r6, r4, ror r8
 2cc:	004d0e01 	subeq	r0, sp, r1, lsl #28
 2d0:	54010000 	strpl	r0, [r1], #-0
 2d4:	00011309 	andeq	r1, r1, r9, lsl #6
 2d8:	a10e0100 	mrsge	r0, (UNDEF: 30)
 2dc:	01000000 	mrseq	r0, (UNDEF: 0)
 2e0:	040a0055 	streq	r0, [sl], #-85	; 0x55
 2e4:	004d0404 	subeq	r0, sp, r4, lsl #8
 2e8:	010b0000 	mrseq	r0, (UNDEF: 11)
 2ec:	00000121 	andeq	r0, r0, r1, lsr #2
 2f0:	f4012201 	vst1.8	{d2-d5}, [r1], r1
 2f4:	3c000081 	stccc	0, cr0, [r0], {129}	; 0x81
 2f8:	8c000082 	stchi	0, cr0, [r0], {130}	; 0x82
 2fc:	01000000 	mrseq	r0, (UNDEF: 0)
 300:	000000e9 	andeq	r0, r0, r9, ror #1
 304:	7274700c 	rsbsvc	r7, r4, #12
 308:	9f220100 	svcls	0x00220100
 30c:	02000000 	andeq	r0, r0, #0
 310:	29077491 	stmdbcs	r7, {r0, r4, r7, sl, ip, sp, lr}
 314:	01000002 	tsteq	r0, r2
 318:	00005322 	andeq	r5, r0, r2, lsr #6
 31c:	70910200 	addsvc	r0, r1, r0, lsl #4
 320:	01006608 	tsteq	r0, r8, lsl #12
 324:	00004d24 	andeq	r4, r0, r4, lsr #26
 328:	00540100 	subseq	r0, r4, r0, lsl #2
 32c:	014e010b 	cmpeq	lr, fp, lsl #2
 330:	2c010000 	stccs	0, cr0, [r1], {-0}
 334:	00823c01 	addeq	r3, r2, r1, lsl #24
 338:	00827800 	addeq	r7, r2, r0, lsl #16
 33c:	0000b800 	andeq	fp, r0, r0, lsl #16
 340:	01200100 	teqeq	r0, r0, lsl #2
 344:	2f070000 	svccs	0x00070000
 348:	01000001 	tsteq	r0, r1
 34c:	0001202c 	andeq	r2, r1, ip, lsr #32
 350:	7c910200 	lfmvc	f0, 4, [r1], {0}
 354:	00016707 	andeq	r6, r1, r7, lsl #14
 358:	532c0100 	teqpl	ip, #0
 35c:	02000000 	andeq	r0, r0, #0
 360:	04007891 	streq	r7, [r0], #-2193	; 0x891
 364:	00012604 	andeq	r2, r1, r4, lsl #12
 368:	08010500 	stmdaeq	r1, {r8, sl}
 36c:	000000cb 	andeq	r0, r0, fp, asr #1
 370:	706f7408 	rsbvc	r7, pc, r8, lsl #8
 374:	20080100 	andcs	r0, r8, r0, lsl #2
 378:	05000001 	streq	r0, [r0, #-1]
 37c:	00943403 	addseq	r3, r4, r3, lsl #8
 380:	015c0900 	cmpeq	ip, r0, lsl #18
 384:	09010000 	stmdbeq	r1, {}	; <UNPREDICTABLE>
 388:	00000120 	andeq	r0, r0, r0, lsr #2
 38c:	94380305 	ldrtls	r0, [r8], #-773	; 0x305
 390:	180d0000 	stmdane	sp, {}	; <UNPREDICTABLE>
 394:	01000001 	tsteq	r0, r1
 398:	00004d06 	andeq	r4, r0, r6, lsl #26
 39c:	03050100 	movweq	r0, #20736	; 0x5100
 3a0:	00009430 	andeq	r9, r0, r0, lsr r4
 3a4:	0000b800 	andeq	fp, r0, r0, lsl #16
 3a8:	e3000200 	movw	r0, #512	; 0x200
 3ac:	04000001 	streq	r0, [r0], #-1
 3b0:	00002501 	andeq	r2, r0, r1, lsl #10
 3b4:	01710100 	cmneq	r1, r0, lsl #2
 3b8:	009c0000 	addseq	r0, ip, r0
 3bc:	82780000 	rsbshi	r0, r8, #0
 3c0:	83b40000 			; <UNDEFINED> instruction: 0x83b40000
 3c4:	01260000 	teqeq	r6, r0
 3c8:	02020000 	andeq	r0, r2, #0
 3cc:	00008907 	andeq	r8, r0, r7, lsl #18
 3d0:	07040200 	streq	r0, [r4, -r0, lsl #4]
 3d4:	0000008f 	andeq	r0, r0, pc, lsl #1
 3d8:	c2080102 	andgt	r0, r8, #-2147483648	; 0x80000000
 3dc:	03000000 	movweq	r0, #0
 3e0:	00017d01 	andeq	r7, r1, r1, lsl #26
 3e4:	781c0100 	ldmdavc	ip, {r8}
 3e8:	c4000082 	strgt	r0, [r0], #-130	; 0x82
 3ec:	d8000082 	stmdale	r0, {r1, r7}
 3f0:	01000000 	mrseq	r0, (UNDEF: 0)
 3f4:	00000061 	andeq	r0, r0, r1, rrx
 3f8:	00787204 	rsbseq	r7, r8, r4, lsl #4
 3fc:	002c1e01 	eoreq	r1, ip, r1, lsl #28
 400:	91020000 	mrsls	r0, (UNDEF: 2)
 404:	01050074 	tsteq	r5, r4, ror r0
 408:	0000019f 	muleq	r0, pc, r1	; <UNPREDICTABLE>
 40c:	82c42b01 	sbchi	r2, r4, #1024	; 0x400
 410:	82dc0000 	sbcshi	r0, ip, #0
 414:	01040000 	mrseq	r0, (UNDEF: 4)
 418:	05010000 	streq	r0, [r1, #-0]
 41c:	00017601 	andeq	r7, r1, r1, lsl #12
 420:	dc310100 	ldfles	f0, [r1], #-0
 424:	f4000082 	vst4.32	{d0-d3}, [r0], r2
 428:	24000082 	strcs	r0, [r0], #-130	; 0x82
 42c:	01000001 	tsteq	r0, r1
 430:	01970106 	orrseq	r0, r7, r6, lsl #2
 434:	3a010000 	bcc	4043c <__bss_end+0x36fd0>
 438:	000082f4 	strdeq	r8, [r0], -r4
 43c:	000083b4 			; <UNDEFINED> instruction: 0x000083b4
 440:	00000144 	andeq	r0, r0, r4, asr #2
 444:	61720401 	cmnvs	r2, r1, lsl #8
 448:	2c3c0100 	ldfcss	f0, [ip], #-0
 44c:	02000000 	andeq	r0, r0, #0
 450:	72047491 	andvc	r7, r4, #-1862270976	; 0x91000000
 454:	3d010078 	stccc	0, cr0, [r1, #-480]	; 0xfffffe20
 458:	0000002c 	andeq	r0, r0, ip, lsr #32
 45c:	00709102 	rsbseq	r9, r0, r2, lsl #2
 460:	00033300 	andeq	r3, r3, r0, lsl #6
 464:	55000200 	strpl	r0, [r0, #-512]	; 0x200
 468:	04000002 	streq	r0, [r0], #-2
 46c:	00002501 	andeq	r2, r0, r1, lsl #10
 470:	01ac0100 			; <UNDEFINED> instruction: 0x01ac0100
 474:	009c0000 	addseq	r0, ip, r0
 478:	83b40000 			; <UNDEFINED> instruction: 0x83b40000
 47c:	89c80000 	stmibhi	r8, {}^	; <UNPREDICTABLE>
 480:	01750000 	cmneq	r5, r0
 484:	fa020000 	blx	8048c <__bss_end+0x77020>
 488:	02000000 	andeq	r0, r0, #0
 48c:	00003005 	andeq	r3, r0, r5
 490:	00fa0300 	rscseq	r0, sl, r0, lsl #6
 494:	02040000 	andeq	r0, r4, #0
 498:	00005505 	andeq	r5, r0, r5, lsl #10
 49c:	454e0400 	strbmi	r0, [lr, #-1024]	; 0x400
 4a0:	05000057 	streq	r0, [r0, #-87]	; 0x57
 4a4:	00000031 	andeq	r0, r0, r1, lsr r0
 4a8:	00810501 	addeq	r0, r1, r1, lsl #10
 4ac:	05020000 	streq	r0, [r2, #-0]
 4b0:	00000061 	andeq	r0, r0, r1, rrx
 4b4:	1d020003 	stcne	0, cr0, [r2, #-12]
 4b8:	02000000 	andeq	r0, r0, #0
 4bc:	00006007 	andeq	r6, r0, r7
 4c0:	66040600 	strvs	r0, [r4], -r0, lsl #12
 4c4:	07000000 	streq	r0, [r0, -r0]
 4c8:	007b0801 	rsbseq	r0, fp, r1, lsl #16
 4cc:	020c0000 	andeq	r0, ip, #0
 4d0:	00009d0e 	andeq	r9, r0, lr, lsl #26
 4d4:	70730900 	rsbsvc	r0, r3, r0, lsl #18
 4d8:	9d0f0200 	sfmls	f0, 4, [pc, #-0]	; 4e0 <_start-0x7b20>
 4dc:	02000000 	andeq	r0, r0, #0
 4e0:	70090023 	andvc	r0, r9, r3, lsr #32
 4e4:	10020063 	andne	r0, r2, r3, rrx
 4e8:	0000009d 	muleq	r0, sp, r0
 4ec:	0a042302 	beq	1090fc <__bss_end+0xffc90>
 4f0:	000000f2 	strdeq	r0, [r0], -r2
 4f4:	009d1102 	addseq	r1, sp, r2, lsl #2
 4f8:	23020000 	movwcs	r0, #8192	; 0x2000
 4fc:	040b0008 	streq	r0, [fp], #-8
 500:	0000ec08 	andeq	lr, r0, r8, lsl #24
 504:	14021c00 	strne	r1, [r2], #-3072	; 0xc00
 508:	0000010e 	andeq	r0, r0, lr, lsl #2
 50c:	0000140a 	andeq	r1, r0, sl, lsl #8
 510:	0e150200 	cdpeq	2, 1, cr0, cr5, cr0, {0}
 514:	02000001 	andeq	r0, r0, #1
 518:	000a0023 	andeq	r0, sl, r3, lsr #32
 51c:	02000000 	andeq	r0, r0, #0
 520:	00009d16 	andeq	r9, r0, r6, lsl sp
 524:	04230200 	strteq	r0, [r3], #-512	; 0x200
 528:	0000df0a 	andeq	sp, r0, sl, lsl #30
 52c:	14170200 	ldrne	r0, [r7], #-512	; 0x200
 530:	02000001 	andeq	r0, r0, #1
 534:	480a0823 	stmdami	sl, {r0, r1, r5, fp}
 538:	02000000 	andeq	r0, r0, #0
 53c:	00005518 	andeq	r5, r0, r8, lsl r5
 540:	0c230200 	sfmeq	f0, 4, [r3], #-0
 544:	0001000a 	andeq	r0, r1, sl
 548:	1b190200 	blne	640d50 <__bss_end+0x6378e4>
 54c:	02000001 	andeq	r0, r0, #1
 550:	d90a1023 	stmdble	sl, {r0, r1, r5, ip}
 554:	02000000 	andeq	r0, r0, #0
 558:	0000251a 	andeq	r2, r0, sl, lsl r5
 55c:	14230200 	strtne	r0, [r3], #-512	; 0x200
 560:	0003420a 	andeq	r4, r3, sl, lsl #4
 564:	9d1b0200 	lfmls	f0, 4, [fp, #-0]
 568:	02000000 	andeq	r0, r0, #0
 56c:	06001823 	streq	r1, [r0], -r3, lsr #16
 570:	00009f04 	andeq	r9, r0, r4, lsl #30
 574:	07040c00 	streq	r0, [r4, -r0, lsl #24]
 578:	0000008f 	andeq	r0, r0, pc, lsl #1
 57c:	00680406 	rsbeq	r0, r8, r6, lsl #8
 580:	54080000 	strpl	r0, [r8], #-0
 584:	08000000 	stmdaeq	r0, {}	; <UNPREDICTABLE>
 588:	014a1e02 	cmpeq	sl, r2, lsl #28
 58c:	3e0a0000 	cdpcc	0, 0, cr0, cr10, cr0, {0}
 590:	02000000 	andeq	r0, r0, #0
 594:	00010e1f 	andeq	r0, r1, pc, lsl lr
 598:	00230200 	eoreq	r0, r3, r0, lsl #4
 59c:	00006c0a 	andeq	r6, r0, sl, lsl #24
 5a0:	0e200200 	cdpeq	2, 2, cr0, cr0, cr0, {0}
 5a4:	02000001 	andeq	r0, r0, #1
 5a8:	0d000423 	cfstrseq	mvf0, [r0, #-140]	; 0xffffff74
 5ac:	0001da01 	andeq	sp, r1, r1, lsl #20
 5b0:	01060100 	mrseq	r0, (UNDEF: 22)
 5b4:	000083b4 			; <UNDEFINED> instruction: 0x000083b4
 5b8:	00008408 	andeq	r8, r0, r8, lsl #8
 5bc:	00000170 	andeq	r0, r0, r0, ror r1
 5c0:	00018d01 	andeq	r8, r1, r1, lsl #26
 5c4:	021b0e00 	andseq	r0, fp, #0
 5c8:	06010000 	streq	r0, [r1], -r0
 5cc:	0000011b 	andeq	r0, r0, fp, lsl r1
 5d0:	0f749102 	svceq	0x00749102
 5d4:	06010066 	streq	r0, [r1], -r6, rrx
 5d8:	00000055 	andeq	r0, r0, r5, asr r0
 5dc:	0e709102 	expeqs	f1, f2
 5e0:	00000229 	andeq	r0, r0, r9, lsr #4
 5e4:	01140601 	tsteq	r4, r1, lsl #12
 5e8:	91020000 	mrsls	r0, (UNDEF: 2)
 5ec:	010d006c 	tsteq	sp, ip, rrx
 5f0:	00000240 	andeq	r0, r0, r0, asr #4
 5f4:	08011901 	stmdaeq	r1, {r0, r8, fp, ip}
 5f8:	80000084 	andhi	r0, r0, r4, lsl #1
 5fc:	9c000084 	stcls	0, cr0, [r0], {132}	; 0x84
 600:	01000001 	tsteq	r0, r1
 604:	000001ec 	andeq	r0, r0, ip, ror #3
 608:	6263700f 	rsbvs	r7, r3, #15
 60c:	0e190100 	mufeqe	f0, f1, f0
 610:	02000001 	andeq	r0, r0, #1
 614:	660f6c91 			; <UNDEFINED> instruction: 0x660f6c91
 618:	55190100 	ldrpl	r0, [r9, #-256]	; 0x100
 61c:	02000000 	andeq	r0, r0, #0
 620:	290e6891 	stmdbcs	lr, {r0, r4, r7, fp, sp, lr}
 624:	01000002 	tsteq	r0, r2
 628:	00011419 	andeq	r1, r1, r9, lsl r4
 62c:	64910200 	ldrvs	r0, [r1], #512	; 0x200
 630:	0000040e 	andeq	r0, r0, lr, lsl #8
 634:	9d190100 	ldflss	f0, [r9, #-0]
 638:	02000000 	andeq	r0, r0, #0
 63c:	63106091 	tstvs	r0, #145	; 0x91
 640:	01007874 	tsteq	r0, r4, ror r8
 644:	00011b1d 	andeq	r1, r1, sp, lsl fp
 648:	74910200 	ldrvc	r0, [r1], #512	; 0x200
 64c:	cb010d00 	blgt	43a54 <__bss_end+0x3a5e8>
 650:	01000001 	tsteq	r0, r1
 654:	84800123 	strhi	r0, [r0], #291	; 0x123
 658:	85680000 	strbhi	r0, [r8, #-0]!
 65c:	01c80000 	biceq	r0, r8, r0
 660:	3d010000 	stccc	0, cr0, [r1, #-0]
 664:	0f000002 	svceq	0x00000002
 668:	23010066 	movwcs	r0, #4198	; 0x1066
 66c:	00000055 	andeq	r0, r0, r5, asr r0
 670:	0e6c9102 	lgneqe	f1, f2
 674:	00000004 	andeq	r0, r0, r4
 678:	009d2301 	addseq	r2, sp, r1, lsl #6
 67c:	91020000 	mrsls	r0, (UNDEF: 2)
 680:	02230e68 	eoreq	r0, r3, #1664	; 0x680
 684:	23010000 	movwcs	r0, #4096	; 0x1000
 688:	00000114 	andeq	r0, r0, r4, lsl r1
 68c:	11649102 	cmnne	r4, r2, lsl #2
 690:	000001e3 	andeq	r0, r0, r3, ror #3
 694:	010e2501 	tsteq	lr, r1, lsl #10
 698:	91020000 	mrsls	r0, (UNDEF: 2)
 69c:	01120074 	tsteq	r2, r4, ror r0
 6a0:	00000205 	andeq	r0, r0, r5, lsl #4
 6a4:	85683401 	strbhi	r3, [r8, #-1025]!	; 0x401
 6a8:	85d00000 	ldrbhi	r0, [r0]
 6ac:	01f40000 	mvnseq	r0, r0
 6b0:	13010000 	movwne	r0, #4096	; 0x1000
 6b4:	00022e01 	andeq	r2, r2, r1, lsl #28
 6b8:	d03d0100 	eorsle	r0, sp, r0, lsl #2
 6bc:	c4000085 	strgt	r0, [r0], #-133	; 0x85
 6c0:	14000086 	strne	r0, [r0], #-134	; 0x86
 6c4:	01000002 	tsteq	r0, r2
 6c8:	00000288 	andeq	r0, r0, r8, lsl #5
 6cc:	0001a711 	andeq	sl, r1, r1, lsl r7
 6d0:	0e3e0100 	rsfeqe	f0, f6, f0
 6d4:	02000001 	andeq	r0, r0, #1
 6d8:	74107491 	ldrvc	r7, [r0], #-1169	; 0x491
 6dc:	0100706d 	tsteq	r0, sp, rrx
 6e0:	00010e3f 	andeq	r0, r1, pc, lsr lr
 6e4:	70910200 	addsvc	r0, r1, r0, lsl #4
 6e8:	ff011400 			; <UNDEFINED> instruction: 0xff011400
 6ec:	01000001 	tsteq	r0, r1
 6f0:	0086c45b 	addeq	ip, r6, fp, asr r4
 6f4:	0086f800 	addeq	pc, r6, r0, lsl #16
 6f8:	007d0200 	rsbseq	r0, sp, r0, lsl #4
 6fc:	b4011201 	strlt	r1, [r1], #-513	; 0x201
 700:	01000001 	tsteq	r0, r1
 704:	0086f861 	addeq	pc, r6, r1, ror #16
 708:	00873000 	addeq	r3, r7, r0
 70c:	00024000 	andeq	r4, r2, r0
 710:	01130100 	tsteq	r3, r0, lsl #2
 714:	000001eb 	andeq	r0, r0, fp, ror #3
 718:	87306701 	ldrhi	r6, [r0, -r1, lsl #14]!
 71c:	88b40000 	ldmhi	r4!, {}	; <UNPREDICTABLE>
 720:	02600000 	rsbeq	r0, r0, #0
 724:	e3010000 	movw	r0, #4096	; 0x1000
 728:	15000002 	strne	r0, [r0, #-2]
 72c:	000087d0 	ldrdeq	r8, [r0], -r0
 730:	00008814 	andeq	r8, r0, r4, lsl r8
 734:	706d7410 	rsbvc	r7, sp, r0, lsl r4
 738:	0e750100 	rpweqs	f0, f5, f0
 73c:	02000001 	andeq	r0, r0, #1
 740:	00007491 	muleq	r0, r1, r4
 744:	01c00116 	biceq	r0, r0, r6, lsl r1
 748:	8e010000 	cdphi	0, 0, cr0, cr1, cr0, {0}
 74c:	000088b4 			; <UNDEFINED> instruction: 0x000088b4
 750:	000089c8 	andeq	r8, r0, r8, asr #19
 754:	01007d02 	tsteq	r0, r2, lsl #26
 758:	00000313 	andeq	r0, r0, r3, lsl r3
 75c:	0088e415 	addeq	lr, r8, r5, lsl r4
 760:	00891800 	addeq	r1, r9, r0, lsl #16
 764:	6d741000 	ldclvs	0, cr1, [r4, #-0]
 768:	94010070 	strls	r0, [r1], #-112	; 0x70
 76c:	0000010e 	andeq	r0, r0, lr, lsl #2
 770:	00005401 	andeq	r5, r0, r1, lsl #8
 774:	00020b17 	andeq	r0, r2, r7, lsl fp
 778:	0e230200 	cdpeq	2, 2, cr0, cr3, cr0, {0}
 77c:	01000001 	tsteq	r0, r1
 780:	94600305 	strbtls	r0, [r0], #-773	; 0x305
 784:	43180000 	tstmi	r8, #0
 788:	2402004c 	strcs	r0, [r2], #-76	; 0x4c
 78c:	00000121 	andeq	r0, r0, r1, lsr #2
 790:	58030501 	stmdapl	r3, {r0, r8, sl}
 794:	00000094 	muleq	r0, r4, r0
 798:	00000213 	andeq	r0, r0, r3, lsl r2
 79c:	03c30002 	biceq	r0, r3, #2
 7a0:	01040000 	mrseq	r0, (UNDEF: 4)
 7a4:	00000025 	andeq	r0, r0, r5, lsr #32
 7a8:	00029c01 	andeq	r9, r2, r1, lsl #24
 7ac:	00009c00 	andeq	r9, r0, r0, lsl #24
 7b0:	0089c800 	addeq	ip, r9, r0, lsl #16
 7b4:	008a8000 	addeq	r8, sl, r0
 7b8:	00025a00 	andeq	r5, r2, r0, lsl #20
 7bc:	00fa0200 	rscseq	r0, sl, r0, lsl #4
 7c0:	05020000 	streq	r0, [r2, #-0]
 7c4:	00000030 	andeq	r0, r0, r0, lsr r0
 7c8:	0000fa03 	andeq	pc, r0, r3, lsl #20
 7cc:	05020400 	streq	r0, [r2, #-1024]	; 0x400
 7d0:	00000055 	andeq	r0, r0, r5, asr r0
 7d4:	57454e04 	strbpl	r4, [r5, -r4, lsl #28]
 7d8:	31050000 	mrscc	r0, (UNDEF: 5)
 7dc:	01000000 	mrseq	r0, (UNDEF: 0)
 7e0:	00008105 	andeq	r8, r0, r5, lsl #2
 7e4:	61050200 	mrsvs	r0, SP_usr
 7e8:	03000000 	movweq	r0, #0
 7ec:	001d0200 	andseq	r0, sp, r0, lsl #4
 7f0:	07020000 	streq	r0, [r2, -r0]
 7f4:	00000060 	andeq	r0, r0, r0, rrx
 7f8:	00660406 	rsbeq	r0, r6, r6, lsl #8
 7fc:	01070000 	mrseq	r0, (UNDEF: 7)
 800:	00007b08 	andeq	r7, r0, r8, lsl #22
 804:	0e020c00 	cdpeq	12, 0, cr0, cr2, cr0, {0}
 808:	0000009d 	muleq	r0, sp, r0
 80c:	00707309 	rsbseq	r7, r0, r9, lsl #6
 810:	009d0f02 	addseq	r0, sp, r2, lsl #30
 814:	23020000 	movwcs	r0, #8192	; 0x2000
 818:	63700900 	cmnvs	r0, #0
 81c:	9d100200 	lfmls	f0, 4, [r0, #-0]
 820:	02000000 	andeq	r0, r0, #0
 824:	f20a0423 	vshl.s8	d0, d19, d10
 828:	02000000 	andeq	r0, r0, #0
 82c:	00009d11 	andeq	r9, r0, r1, lsl sp
 830:	08230200 	stmdaeq	r3!, {r9}
 834:	08040b00 	stmdaeq	r4, {r8, r9, fp}
 838:	000000ec 	andeq	r0, r0, ip, ror #1
 83c:	0e14021c 	mrceq	2, 0, r0, cr4, cr12, {0}
 840:	0a000001 	beq	84c <_start-0x77b4>
 844:	00000014 	andeq	r0, r0, r4, lsl r0
 848:	010e1502 	tsteq	lr, r2, lsl #10
 84c:	23020000 	movwcs	r0, #8192	; 0x2000
 850:	00000a00 	andeq	r0, r0, r0, lsl #20
 854:	16020000 	strne	r0, [r2], -r0
 858:	0000009d 	muleq	r0, sp, r0
 85c:	0a042302 	beq	10946c <__bss_end+0x100000>
 860:	000000df 	ldrdeq	r0, [r0], -pc	; <UNPREDICTABLE>
 864:	01141702 	tsteq	r4, r2, lsl #14
 868:	23020000 	movwcs	r0, #8192	; 0x2000
 86c:	00480a08 	subeq	r0, r8, r8, lsl #20
 870:	18020000 	stmdane	r2, {}	; <UNPREDICTABLE>
 874:	00000055 	andeq	r0, r0, r5, asr r0
 878:	0a0c2302 	beq	309488 <__bss_end+0x30001c>
 87c:	00000100 	andeq	r0, r0, r0, lsl #2
 880:	011b1902 	tsteq	fp, r2, lsl #18
 884:	23020000 	movwcs	r0, #8192	; 0x2000
 888:	00d90a10 	sbcseq	r0, r9, r0, lsl sl
 88c:	1a020000 	bne	80894 <__bss_end+0x77428>
 890:	00000025 	andeq	r0, r0, r5, lsr #32
 894:	0a142302 	beq	5094a4 <__bss_end+0x500038>
 898:	00000342 	andeq	r0, r0, r2, asr #6
 89c:	009d1b02 	addseq	r1, sp, r2, lsl #22
 8a0:	23020000 	movwcs	r0, #8192	; 0x2000
 8a4:	04060018 	streq	r0, [r6], #-24
 8a8:	0000009f 	muleq	r0, pc, r0	; <UNPREDICTABLE>
 8ac:	8f07040c 	svchi	0x0007040c
 8b0:	06000000 	streq	r0, [r0], -r0
 8b4:	00006804 	andeq	r6, r0, r4, lsl #16
 8b8:	00540800 	subseq	r0, r4, r0, lsl #16
 8bc:	02080000 	andeq	r0, r8, #0
 8c0:	00014a1e 	andeq	r4, r1, lr, lsl sl
 8c4:	003e0a00 	eorseq	r0, lr, r0, lsl #20
 8c8:	1f020000 	svcne	0x00020000
 8cc:	0000010e 	andeq	r0, r0, lr, lsl #2
 8d0:	0a002302 	beq	94e0 <__bss_end+0x74>
 8d4:	0000006c 	andeq	r0, r0, ip, rrx
 8d8:	010e2002 	tsteq	lr, r2
 8dc:	23020000 	movwcs	r0, #8192	; 0x2000
 8e0:	010d0004 	tsteq	sp, r4
 8e4:	00000270 	andeq	r0, r0, r0, ror r2
 8e8:	89c80401 	stmibhi	r8, {r0, sl}^
 8ec:	89dc0000 	ldmibhi	ip, {}^	; <UNPREDICTABLE>
 8f0:	028c0000 	addeq	r0, ip, #0
 8f4:	0e010000 	cdpeq	0, 0, cr0, cr1, cr0, {0}
 8f8:	00024901 	andeq	r4, r2, r1, lsl #18
 8fc:	01090100 	mrseq	r0, (UNDEF: 25)
 900:	000089dc 	ldrdeq	r8, [r0], -ip
 904:	00008a04 	andeq	r8, r0, r4, lsl #20
 908:	000002ac 	andeq	r0, r0, ip, lsr #5
 90c:	00018801 	andeq	r8, r1, r1, lsl #16
 910:	02860f00 	addeq	r0, r6, #0
 914:	09010000 	stmdbeq	r1, {}	; <UNPREDICTABLE>
 918:	00000114 	andeq	r0, r0, r4, lsl r1
 91c:	00749102 	rsbseq	r9, r4, r2, lsl #2
 920:	02600110 	rsbeq	r0, r0, #4
 924:	0f010000 	svceq	0x00010000
 928:	00008a04 	andeq	r8, r0, r4, lsl #20
 92c:	00008a08 	andeq	r8, r0, r8, lsl #20
 930:	01007d02 	tsteq	r0, r2, lsl #26
 934:	02520111 	subseq	r0, r2, #1073741828	; 0x40000004
 938:	11010000 	mrsne	r0, (UNDEF: 1)
 93c:	00008a08 	andeq	r8, r0, r8, lsl #20
 940:	00008a38 	andeq	r8, r0, r8, lsr sl
 944:	000002d8 	ldrdeq	r0, [r0], -r8
 948:	0001c401 	andeq	ip, r1, r1, lsl #8
 94c:	02861200 	addeq	r1, r6, #0
 950:	12010000 	andne	r0, r1, #0
 954:	00000114 	andeq	r0, r0, r4, lsl r1
 958:	00749102 	rsbseq	r9, r4, r2, lsl #2
 95c:	027b0113 	rsbseq	r0, fp, #-1073741820	; 0xc0000004
 960:	18010000 	stmdane	r1, {}	; <UNPREDICTABLE>
 964:	00008a38 	andeq	r8, r0, r8, lsr sl
 968:	00008a80 	andeq	r8, r0, r0, lsl #21
 96c:	00000304 	andeq	r0, r0, r4, lsl #6
 970:	0001ec01 	andeq	lr, r1, r1, lsl #24
 974:	02911200 	addseq	r1, r1, #0
 978:	19010000 	stmdbne	r1, {}	; <UNPREDICTABLE>
 97c:	000001ec 	andeq	r0, r0, ip, ror #3
 980:	00749102 	rsbseq	r9, r4, r2, lsl #2
 984:	69050414 	stmdbvs	r5, {r2, r4, sl}
 988:	1500746e 	strne	r7, [r0, #-1134]	; 0x46e
 98c:	0000020b 	andeq	r0, r0, fp, lsl #4
 990:	010e2302 	tsteq	lr, r2, lsl #6
 994:	05010000 	streq	r0, [r1, #-0]
 998:	00946003 	addseq	r6, r4, r3
 99c:	4c431600 	mcrrmi	6, 0, r1, r3, cr0
 9a0:	21240200 	teqcs	r4, r0, lsl #4
 9a4:	01000001 	tsteq	r0, r1
 9a8:	94580305 	ldrbls	r0, [r8], #-773	; 0x305
 9ac:	a7000000 	strge	r0, [r0, -r0]
 9b0:	02000004 	andeq	r0, r0, #4
 9b4:	00051500 	andeq	r1, r5, r0, lsl #10
 9b8:	25010400 	strcs	r0, [r1, #-1024]	; 0x400
 9bc:	01000000 	mrseq	r0, (UNDEF: 0)
 9c0:	000003bf 			; <UNDEFINED> instruction: 0x000003bf
 9c4:	0000009c 	muleq	r0, ip, r0
 9c8:	00008a80 	andeq	r8, r0, r0, lsl #21
 9cc:	00009430 	andeq	r9, r0, r0, lsr r4
 9d0:	000002b3 			; <UNDEFINED> instruction: 0x000002b3
 9d4:	89070202 	stmdbhi	r7, {r1, r9}
 9d8:	03000000 	movweq	r0, #0
 9dc:	0000037f 	andeq	r0, r0, pc, ror r3
 9e0:	00370502 	eorseq	r0, r7, r2, lsl #10
 9e4:	04020000 	streq	r0, [r2], #-0
 9e8:	00008f07 	andeq	r8, r0, r7, lsl #30
 9ec:	040b0300 	streq	r0, [fp], #-768	; 0x300
 9f0:	06020000 	streq	r0, [r2], -r0
 9f4:	00000049 	andeq	r0, r0, r9, asr #32
 9f8:	c2080102 	andgt	r0, r8, #-2147483648	; 0x80000000
 9fc:	03000000 	movweq	r0, #0
 a00:	00000417 	andeq	r0, r0, r7, lsl r4
 a04:	002c2f03 	eoreq	r2, ip, r3, lsl #30
 a08:	b1030000 	mrslt	r0, (UNDEF: 3)
 a0c:	03000003 	movweq	r0, #3
 a10:	00003e30 	andeq	r3, r0, r0, lsr lr
 a14:	c5010400 	strgt	r0, [r1, #-1024]	; 0x400
 a18:	01000002 	tsteq	r0, r2
 a1c:	009f0127 	addseq	r0, pc, r7, lsr #2
 a20:	8a800000 	bhi	fe000a28 <__bss_end+0xfdff75bc>
 a24:	8bc40000 	blhi	ff100a2c <__bss_end+0xff0f75c0>
 a28:	03300000 	teqeq	r0, #0
 a2c:	9f010000 	svcls	0x00010000
 a30:	05000000 	streq	r0, [r0, #-0]
 a34:	29010069 	stmdbcs	r1, {r0, r3, r5, r6}
 a38:	0000009f 	muleq	r0, pc, r0	; <UNPREDICTABLE>
 a3c:	06749102 	ldrbteq	r9, [r4], -r2, lsl #2
 a40:	00000406 	andeq	r0, r0, r6, lsl #8
 a44:	00a63701 	adceq	r3, r6, r1, lsl #14
 a48:	91020000 	mrsls	r0, (UNDEF: 2)
 a4c:	04070070 	streq	r0, [r7], #-112	; 0x70
 a50:	746e6905 	strbtvc	r6, [lr], #-2309	; 0x905
 a54:	50040800 	andpl	r0, r4, r0, lsl #16
 a58:	09000000 	stmdbeq	r0, {}	; <UNPREDICTABLE>
 a5c:	0003e901 	andeq	lr, r3, r1, lsl #18
 a60:	01430100 	mrseq	r0, (UNDEF: 83)
 a64:	00008bc4 	andeq	r8, r0, r4, asr #23
 a68:	00008d58 	andeq	r8, r0, r8, asr sp
 a6c:	0000035c 	andeq	r0, r0, ip, asr r3
 a70:	00013b01 	andeq	r3, r1, r1, lsl #22
 a74:	03030a00 	movweq	r0, #14848	; 0x3a00
 a78:	43010000 	movwmi	r0, #4096	; 0x1000
 a7c:	000000a6 	andeq	r0, r0, r6, lsr #1
 a80:	055c9102 	ldrbeq	r9, [ip, #-258]	; 0x102
 a84:	48010069 	stmdami	r1, {r0, r3, r5, r6}
 a88:	0000009f 	muleq	r0, pc, r0	; <UNPREDICTABLE>
 a8c:	06749102 	ldrbteq	r9, [r4], -r2, lsl #2
 a90:	00000411 	andeq	r0, r0, r1, lsl r4
 a94:	009f5401 	addseq	r5, pc, r1, lsl #8
 a98:	91020000 	mrsls	r0, (UNDEF: 2)
 a9c:	8bdc0b64 	blhi	ff703834 <__bss_end+0xff6fa3c8>
 aa0:	8c680000 	stclhi	0, cr0, [r8], #-0
 aa4:	01160000 	tsteq	r6, r0
 aa8:	d2060000 	andle	r0, r6, #0
 aac:	01000003 	tsteq	r0, r3
 ab0:	0000a64b 	andeq	sl, r0, fp, asr #12
 ab4:	68910200 	ldmvs	r1, {r9}
 ab8:	01006a05 	tsteq	r0, r5, lsl #20
 abc:	00009f4e 	andeq	r9, r0, lr, asr #30
 ac0:	70910200 	addsvc	r0, r1, r0, lsl #4
 ac4:	8c940c00 	ldchi	12, cr0, [r4], {0}
 ac8:	8d300000 	ldchi	0, cr0, [r0, #-0]
 acc:	d2060000 	andle	r0, r6, #0
 ad0:	01000003 	tsteq	r0, r3
 ad4:	0000a657 	andeq	sl, r0, r7, asr r6
 ad8:	60910200 	addsvs	r0, r1, r0, lsl #4
 adc:	01006a05 	tsteq	r0, r5, lsl #20
 ae0:	00009f59 	andeq	r9, r0, r9, asr pc
 ae4:	6c910200 	lfmvs	f0, 4, [r1], {0}
 ae8:	010d0000 	mrseq	r0, (UNDEF: 13)
 aec:	000002e1 	andeq	r0, r0, r1, ror #5
 af0:	00a66101 	adceq	r6, r6, r1, lsl #2
 af4:	8d580000 	ldclhi	0, cr0, [r8, #-0]
 af8:	8e5c0000 	cdphi	0, 5, cr0, cr12, cr0, {0}
 afc:	03880000 	orreq	r0, r8, #0
 b00:	87010000 	strhi	r0, [r1, -r0]
 b04:	05000001 	streq	r0, [r0, #-1]
 b08:	63010069 	movwvs	r0, #4201	; 0x1069
 b0c:	0000009f 	muleq	r0, pc, r0	; <UNPREDICTABLE>
 b10:	057c9102 	ldrbeq	r9, [ip, #-258]!	; 0x102
 b14:	6401006a 	strvs	r0, [r1], #-106	; 0x6a
 b18:	0000009f 	muleq	r0, pc, r0	; <UNPREDICTABLE>
 b1c:	0c789102 	ldfeqp	f1, [r8], #-8
 b20:	00008db4 			; <UNDEFINED> instruction: 0x00008db4
 b24:	00008e08 	andeq	r8, r0, r8, lsl #28
 b28:	01006b05 	tsteq	r0, r5, lsl #22
 b2c:	00009f70 	andeq	r9, r0, r0, ror pc
 b30:	74910200 	ldrvc	r0, [r1], #512	; 0x200
 b34:	010e0000 	mrseq	r0, (UNDEF: 14)
 b38:	000002fc 	strdeq	r0, [r0], -ip
 b3c:	5c017e01 	stcpl	14, cr7, [r1], {1}
 b40:	0c00008e 	stceq	0, cr0, [r0], {142}	; 0x8e
 b44:	a800008f 	stmdage	r0, {r0, r1, r2, r3, r7}
 b48:	01000003 	tsteq	r0, r3
 b4c:	000001c8 	andeq	r0, r0, r8, asr #3
 b50:	0003030a 	andeq	r0, r3, sl, lsl #6
 b54:	a67e0100 	ldrbtge	r0, [lr], -r0, lsl #2
 b58:	02000000 	andeq	r0, r0, #0
 b5c:	69057491 	stmdbvs	r5, {r0, r4, r7, sl, ip, sp, lr}
 b60:	9f800100 	svcls	0x00800100
 b64:	02000000 	andeq	r0, r0, #0
 b68:	6a057c91 	bvs	15fdb4 <__bss_end+0x156948>
 b6c:	9f810100 	svcls	0x00810100
 b70:	02000000 	andeq	r0, r0, #0
 b74:	0d007891 	stceq	8, cr7, [r0, #-580]	; 0xfffffdbc
 b78:	00030f01 	andeq	r0, r3, r1, lsl #30
 b7c:	a68d0100 	strge	r0, [sp], r0, lsl #2
 b80:	0c000000 	stceq	0, cr0, [r0], {-0}
 b84:	9400008f 	strls	r0, [r0], #-143	; 0x8f
 b88:	c800008f 	stmdagt	r0, {r0, r1, r2, r3, r7}
 b8c:	01000003 	tsteq	r0, r3
 b90:	000001f2 	strdeq	r0, [r0], -r2
 b94:	01006905 	tsteq	r0, r5, lsl #18
 b98:	00009f8f 	andeq	r9, r0, pc, lsl #31
 b9c:	7c910200 	lfmvc	f0, 4, [r1], {0}
 ba0:	cb010e00 	blgt	443a8 <__bss_end+0x3af3c>
 ba4:	01000003 	tsteq	r0, r3
 ba8:	8f94019c 	svchi	0x0094019c
 bac:	90100000 	andsls	r0, r0, r0
 bb0:	03e80000 	mvneq	r0, #0
 bb4:	27010000 	strcs	r0, [r1, -r0]
 bb8:	0a000002 	beq	bc8 <_start-0x7438>
 bbc:	000003d2 	ldrdeq	r0, [r0], -r2
 bc0:	00a69c01 	adceq	r9, r6, r1, lsl #24
 bc4:	91020000 	mrsls	r0, (UNDEF: 2)
 bc8:	00690574 	rsbeq	r0, r9, r4, ror r5
 bcc:	009f9e01 	addseq	r9, pc, r1, lsl #28
 bd0:	91020000 	mrsls	r0, (UNDEF: 2)
 bd4:	010e007c 	tsteq	lr, ip, ror r0
 bd8:	0000042a 	andeq	r0, r0, sl, lsr #8
 bdc:	1001a701 	andne	sl, r1, r1, lsl #14
 be0:	40000090 	mulmi	r0, r0, r0
 be4:	08000090 	stmdaeq	r0, {r4, r7}
 be8:	01000004 	tsteq	r0, r4
 bec:	0000024f 	andeq	r0, r0, pc, asr #4
 bf0:	00035806 	andeq	r5, r3, r6, lsl #16
 bf4:	37a90100 	strcc	r0, [r9, r0, lsl #2]!
 bf8:	01000000 	mrseq	r0, (UNDEF: 0)
 bfc:	010e0054 	qaddeq	r0, r4, lr
 c00:	00000320 	andeq	r0, r0, r0, lsr #6
 c04:	4001b601 	andmi	fp, r1, r1, lsl #12
 c08:	90000090 	mulls	r0, r0, r0
 c0c:	28000090 	stmdacs	r0, {r4, r7}
 c10:	01000004 	tsteq	r0, r4
 c14:	00000277 	andeq	r0, r0, r7, ror r2
 c18:	00040306 	andeq	r0, r4, r6, lsl #6
 c1c:	37b80100 	ldrcc	r0, [r8, r0, lsl #2]!
 c20:	01000000 	mrseq	r0, (UNDEF: 0)
 c24:	010d0054 	qaddeq	r0, r4, sp
 c28:	000003df 	ldrdeq	r0, [r0], -pc	; <UNPREDICTABLE>
 c2c:	02a1c901 	adceq	ip, r1, #16384	; 0x4000
 c30:	90900000 	addsls	r0, r0, r0
 c34:	91180000 	tstls	r8, r0
 c38:	04480000 	strbeq	r0, [r8], #-0
 c3c:	a1010000 	mrsge	r0, (UNDEF: 1)
 c40:	05000002 	streq	r0, [r0, #-2]
 c44:	cb010069 	blgt	40df0 <__bss_end+0x37984>
 c48:	0000009f 	muleq	r0, pc, r0	; <UNPREDICTABLE>
 c4c:	007c9102 	rsbseq	r9, ip, r2, lsl #2
 c50:	005b0408 	subseq	r0, fp, r8, lsl #8
 c54:	010e0000 	mrseq	r0, (UNDEF: 14)
 c58:	00000386 	andeq	r0, r0, r6, lsl #7
 c5c:	1801d901 	stmdane	r1, {r0, r8, fp, ip, lr, pc}
 c60:	58000091 	stmdapl	r0, {r0, r4, r7}
 c64:	68000091 	stmdavs	r0, {r0, r4, r7}
 c68:	01000004 	tsteq	r0, r4
 c6c:	000002dc 	ldrdeq	r0, [r0], -ip
 c70:	6464610f 	strbtvs	r6, [r4], #-271	; 0x10f
 c74:	50d90100 	sbcspl	r0, r9, r0, lsl #2
 c78:	02000000 	andeq	r0, r0, #0
 c7c:	69057491 	stmdbvs	r5, {r0, r4, r7, sl, ip, sp, lr}
 c80:	9fdb0100 	svcls	0x00db0100
 c84:	02000000 	andeq	r0, r0, #0
 c88:	04007c91 	streq	r7, [r0], #-3217	; 0xc91
 c8c:	0002a601 	andeq	sl, r2, r1, lsl #12
 c90:	01e00100 	mvneq	r0, r0, lsl #2
 c94:	000002a1 	andeq	r0, r0, r1, lsr #5
 c98:	00009158 	andeq	r9, r0, r8, asr r1
 c9c:	000092b8 			; <UNDEFINED> instruction: 0x000092b8
 ca0:	00000488 	andeq	r0, r0, r8, lsl #9
 ca4:	00036301 	andeq	r6, r3, r1, lsl #6
 ca8:	04360a00 	ldrteq	r0, [r6], #-2560	; 0xa00
 cac:	e0010000 	and	r0, r1, r0
 cb0:	00000037 	andeq	r0, r0, r7, lsr r0
 cb4:	055c9102 	ldrbeq	r9, [ip, #-258]	; 0x102
 cb8:	e2010069 	and	r0, r1, #105	; 0x69
 cbc:	0000009f 	muleq	r0, pc, r0	; <UNPREDICTABLE>
 cc0:	05749102 	ldrbeq	r9, [r4, #-258]!	; 0x102
 cc4:	00706572 	rsbseq	r6, r0, r2, ror r5
 cc8:	02a1f501 	adceq	pc, r1, #4194304	; 0x400000
 ccc:	91020000 	mrsls	r0, (UNDEF: 2)
 cd0:	91700c60 	cmnls	r0, r0, ror #24
 cd4:	92580000 	subsls	r0, r8, #0
 cd8:	61050000 	mrsvs	r0, (UNDEF: 5)
 cdc:	01006464 	tsteq	r0, r4, ror #8
 ce0:	000050e6 	andeq	r5, r0, r6, ror #1
 ce4:	6c910200 	lfmvs	f0, 4, [r1], {0}
 ce8:	00696605 	rsbeq	r6, r9, r5, lsl #12
 cec:	009fe801 	addseq	lr, pc, r1, lsl #16
 cf0:	91020000 	mrsls	r0, (UNDEF: 2)
 cf4:	03d20668 	bicseq	r0, r2, #109051904	; 0x6800000
 cf8:	e9010000 	stmdb	r1, {}	; <UNPREDICTABLE>
 cfc:	000000a6 	andeq	r0, r0, r6, lsr #1
 d00:	05709102 	ldrbeq	r9, [r0, #-258]!	; 0x102
 d04:	01006973 	tsteq	r0, r3, ror r9
 d08:	00009ff1 	strdeq	r9, [r0], -r1
 d0c:	64910200 	ldrvs	r0, [r1], #512	; 0x200
 d10:	01090000 	mrseq	r0, (UNDEF: 9)
 d14:	00000420 	andeq	r0, r0, r0, lsr #8
 d18:	b801fa01 	stmdalt	r1, {r0, r9, fp, ip, sp, lr, pc}
 d1c:	30000092 	mulcc	r0, r2, r0
 d20:	b4000094 	strlt	r0, [r0], #-148	; 0x94
 d24:	01000004 	tsteq	r0, r4
 d28:	0000040f 	andeq	r0, r0, pc, lsl #8
 d2c:	7274700f 	rsbsvc	r7, r4, #15
 d30:	a1fa0100 	mvnsge	r0, r0, lsl #2
 d34:	02000002 	andeq	r0, r0, #2
 d38:	360a5491 			; <UNDEFINED> instruction: 0x360a5491
 d3c:	01000004 	tsteq	r0, r4
 d40:	000037fa 	strdeq	r3, [r0], -sl
 d44:	50910200 	addspl	r0, r1, r0, lsl #4
 d48:	01006905 	tsteq	r0, r5, lsl #18
 d4c:	00009ffc 	strdeq	r9, [r0], -ip
 d50:	74910200 	ldrvc	r0, [r1], #512	; 0x200
 d54:	0092d40c 	addseq	sp, r2, ip, lsl #8
 d58:	00940400 	addseq	r0, r4, r0, lsl #8
 d5c:	64610500 	strbtvs	r0, [r1], #-1280	; 0x500
 d60:	ff010064 			; <UNDEFINED> instruction: 0xff010064
 d64:	00000050 	andeq	r0, r0, r0, asr r0
 d68:	106c9102 	rsbne	r9, ip, r2, lsl #2
 d6c:	01006966 	tsteq	r0, r6, ror #18
 d70:	009f0100 	addseq	r0, pc, r0, lsl #2
 d74:	91020000 	mrsls	r0, (UNDEF: 2)
 d78:	93180c68 	tstls	r8, #26624	; 0x6800
 d7c:	94040000 	strls	r0, [r4], #-0
 d80:	d2110000 	andsle	r0, r1, #0
 d84:	01000003 	tsteq	r0, r3
 d88:	00a60103 	adceq	r0, r6, r3, lsl #2
 d8c:	91020000 	mrsls	r0, (UNDEF: 2)
 d90:	69731064 	ldmdbvs	r3!, {r2, r5, r6, ip}^
 d94:	01050100 	mrseq	r0, (UNDEF: 21)
 d98:	0000009f 	muleq	r0, pc, r0	; <UNPREDICTABLE>
 d9c:	11609102 	cmnne	r0, r2, lsl #2
 da0:	00000330 	andeq	r0, r0, r0, lsr r3
 da4:	50010801 	andpl	r0, r1, r1, lsl #16
 da8:	02000000 	andeq	r0, r0, #0
 dac:	6a105c91 	bvs	417ff8 <__bss_end+0x40eb8c>
 db0:	010c0100 	mrseq	r0, (UNDEF: 28)
 db4:	0000009f 	muleq	r0, pc, r0	; <UNPREDICTABLE>
 db8:	00709102 	rsbseq	r9, r0, r2, lsl #2
 dbc:	a4060000 	strge	r0, [r6], #-0
 dc0:	01000003 	tsteq	r0, r3
 dc4:	00005018 	andeq	r5, r0, r8, lsl r0
 dc8:	48030500 	stmdami	r3, {r8, sl}
 dcc:	06000094 			; <UNDEFINED> instruction: 0x06000094
 dd0:	00000372 	andeq	r0, r0, r2, ror r3
 dd4:	00501901 	subseq	r1, r0, r1, lsl #18
 dd8:	03050000 	movweq	r0, #20480	; 0x5000
 ddc:	0000944c 	andeq	r9, r0, ip, asr #8
 de0:	00034a06 	andeq	r4, r3, r6, lsl #20
 de4:	501a0100 	andspl	r0, sl, r0, lsl #2
 de8:	05000000 	streq	r0, [r0, #-0]
 dec:	00945003 	addseq	r5, r4, r3
 df0:	03350600 	teqeq	r5, #0
 df4:	1d010000 	stcne	0, cr0, [r1, #-0]
 df8:	000002a1 	andeq	r0, r0, r1, lsr #5
 dfc:	94540305 	ldrbls	r0, [r4], #-773	; 0x305
 e00:	93060000 	movwls	r0, #24576	; 0x6000
 e04:	01000003 	tsteq	r0, r3
 e08:	0002a120 	andeq	sl, r2, r0, lsr #2
 e0c:	3c030500 	cfstr32cc	mvfx0, [r3], {-0}
 e10:	06000094 			; <UNDEFINED> instruction: 0x06000094
 e14:	000002f1 	strdeq	r0, [r0], -r1
 e18:	02a12101 	adceq	r2, r1, #1073741824	; 0x40000000
 e1c:	03050000 	movweq	r0, #20480	; 0x5000
 e20:	00009440 	andeq	r9, r0, r0, asr #8
 e24:	00036006 	andeq	r6, r3, r6
 e28:	a6230100 	strtge	r0, [r3], -r0, lsl #2
 e2c:	05000000 	streq	r0, [r0, #-0]
 e30:	00944403 	addseq	r4, r4, r3, lsl #8
 e34:	03b91200 			; <UNDEFINED> instruction: 0x03b91200
 e38:	03010000 	movweq	r0, #4096	; 0x1000
 e3c:	00000050 	andeq	r0, r0, r0, asr r0
 e40:	64030501 	strvs	r0, [r3], #-1281	; 0x501
 e44:	12000094 	andne	r0, r0, #148	; 0x94
 e48:	000002b1 			; <UNDEFINED> instruction: 0x000002b1
 e4c:	00a62501 	adceq	r2, r6, r1, lsl #10
 e50:	05010000 	streq	r0, [r1, #-0]
 e54:	00946803 	addseq	r6, r4, r3, lsl #16
	...

Disassembly of section .debug_abbrev:

00000000 <.debug_abbrev>:
   0:	10001101 	andne	r1, r0, r1, lsl #2
   4:	12011106 	andne	r1, r1, #-2147483647	; 0x80000001
   8:	1b080301 	blne	200c14 <__bss_end+0x1f77a8>
   c:	13082508 	movwne	r2, #34056	; 0x8508
  10:	00000005 	andeq	r0, r0, r5
  14:	25011101 	strcs	r1, [r1, #-257]	; 0x101
  18:	030b130e 	movweq	r1, #45838	; 0xb30e
  1c:	110e1b0e 	tstne	lr, lr, lsl #22
  20:	10011201 	andne	r1, r1, r1, lsl #4
  24:	02000006 	andeq	r0, r0, #6
  28:	0e030016 	mcreq	0, 0, r0, cr3, cr6, {0}
  2c:	0b3b0b3a 	bleq	ec2d1c <__bss_end+0xeb98b0>
  30:	00001349 	andeq	r1, r0, r9, asr #6
  34:	03010403 	movweq	r0, #5123	; 0x1403
  38:	3a0b0b0e 	bcc	2c2c78 <__bss_end+0x2b980c>
  3c:	010b3b0b 	tsteq	fp, fp, lsl #22
  40:	04000013 	streq	r0, [r0], #-19
  44:	08030028 	stmdaeq	r3, {r3, r5}
  48:	00000d1c 	andeq	r0, r0, ip, lsl sp
  4c:	03002805 	movweq	r2, #2053	; 0x805
  50:	000d1c0e 	andeq	r1, sp, lr, lsl #24
  54:	000f0600 	andeq	r0, pc, r0, lsl #12
  58:	13490b0b 	movtne	r0, #39691	; 0x9b0b
  5c:	15070000 	strne	r0, [r7, #-0]
  60:	000c2700 	andeq	r2, ip, r0, lsl #14
  64:	01130800 	tsteq	r3, r0, lsl #16
  68:	0b0b0e03 	bleq	2c387c <__bss_end+0x2ba410>
  6c:	0b3b0b3a 	bleq	ec2d5c <__bss_end+0xeb98f0>
  70:	00001301 	andeq	r1, r0, r1, lsl #6
  74:	03000d09 	movweq	r0, #3337	; 0xd09
  78:	3b0b3a08 	blcc	2ce8a0 <__bss_end+0x2c5434>
  7c:	3813490b 	ldmdacc	r3, {r0, r1, r3, r8, fp, lr}
  80:	0a00000a 	beq	b0 <_start-0x7f50>
  84:	0e03000d 	cdpeq	0, 0, cr0, cr3, cr13, {0}
  88:	0b3b0b3a 	bleq	ec2d78 <__bss_end+0xeb990c>
  8c:	0a381349 	beq	e04db8 <__bss_end+0xdfb94c>
  90:	0f0b0000 	svceq	0x000b0000
  94:	000b0b00 	andeq	r0, fp, r0, lsl #22
  98:	00240c00 	eoreq	r0, r4, r0, lsl #24
  9c:	0b3e0b0b 	bleq	f82cd0 <__bss_end+0xf79864>
  a0:	00000e03 	andeq	r0, r0, r3, lsl #28
  a4:	3f012e0d 	svccc	0x00012e0d
  a8:	3a0e030c 	bcc	380ce0 <__bss_end+0x377874>
  ac:	110b3b0b 	tstne	fp, fp, lsl #22
  b0:	40011201 	andmi	r1, r1, r1, lsl #4
  b4:	0c429706 	mcrreq	7, 0, r9, r2, cr6
  b8:	00001301 	andeq	r1, r0, r1, lsl #6
  bc:	0300340e 	movweq	r3, #1038	; 0x40e
  c0:	3b0b3a0e 	blcc	2ce900 <__bss_end+0x2c5494>
  c4:	0213490b 	andseq	r4, r3, #180224	; 0x2c000
  c8:	0f00000a 	svceq	0x0000000a
  cc:	0b0b0024 	bleq	2c0164 <__bss_end+0x2b6cf8>
  d0:	08030b3e 	stmdaeq	r3, {r1, r2, r3, r4, r5, r8, r9, fp}
  d4:	2e100000 	cdpcs	0, 1, cr0, cr0, cr0, {0}
  d8:	030c3f00 	movweq	r3, #52992	; 0xcf00
  dc:	3b0b3a0e 	blcc	2ce91c <__bss_end+0x2c54b0>
  e0:	490c270b 	stmdbmi	ip, {r0, r1, r3, r8, r9, sl, sp}
  e4:	12011113 	andne	r1, r1, #-1073741820	; 0xc0000004
  e8:	96064001 	strls	r4, [r6], -r1
  ec:	00000c42 	andeq	r0, r0, r2, asr #24
  f0:	03003411 	movweq	r3, #1041	; 0x411
  f4:	3b0b3a0e 	blcc	2ce934 <__bss_end+0x2c54c8>
  f8:	3f13490b 	svccc	0x0013490b
  fc:	000a020c 	andeq	r0, sl, ip, lsl #4
 100:	00341200 	eorseq	r1, r4, r0, lsl #4
 104:	0b3a0803 	bleq	e82118 <__bss_end+0xe78cac>
 108:	13490b3b 	movtne	r0, #39739	; 0x9b3b
 10c:	0a020c3f 	beq	83210 <__bss_end+0x79da4>
 110:	01000000 	mrseq	r0, (UNDEF: 0)
 114:	0e250111 	mcreq	1, 1, r0, cr5, cr1, {0}
 118:	0e030b13 	vmoveq.32	d3[0], r0
 11c:	01110e1b 	tsteq	r1, fp, lsl lr
 120:	06100112 			; <UNDEFINED> instruction: 0x06100112
 124:	13020000 	movwne	r0, #8192	; 0x2000
 128:	0b080301 	bleq	200d34 <__bss_end+0x1f78c8>
 12c:	3b0b3a0b 	blcc	2ce960 <__bss_end+0x2c54f4>
 130:	0013010b 	andseq	r0, r3, fp, lsl #2
 134:	000d0300 	andeq	r0, sp, r0, lsl #6
 138:	0b3a0e03 	bleq	e8394c <__bss_end+0xe7a4e0>
 13c:	13490b3b 	movtne	r0, #39739	; 0x9b3b
 140:	00000a38 	andeq	r0, r0, r8, lsr sl
 144:	0b000f04 	bleq	3d5c <_start-0x42a4>
 148:	0013490b 	andseq	r4, r3, fp, lsl #18
 14c:	00240500 	eoreq	r0, r4, r0, lsl #10
 150:	0b3e0b0b 	bleq	f82d84 <__bss_end+0xf79918>
 154:	00000e03 	andeq	r0, r0, r3, lsl #28
 158:	3f012e06 	svccc	0x00012e06
 15c:	3a0e030c 	bcc	380d94 <__bss_end+0x377928>
 160:	270b3b0b 	strcs	r3, [fp, -fp, lsl #22]
 164:	1113490c 	tstne	r3, ip, lsl #18
 168:	40011201 	andmi	r1, r1, r1, lsl #4
 16c:	0c429706 	mcrreq	7, 0, r9, r2, cr6
 170:	00001301 	andeq	r1, r0, r1, lsl #6
 174:	03000507 	movweq	r0, #1287	; 0x507
 178:	3b0b3a0e 	blcc	2ce9b8 <__bss_end+0x2c554c>
 17c:	0213490b 	andseq	r4, r3, #180224	; 0x2c000
 180:	0800000a 	stmdaeq	r0, {r1, r3}
 184:	08030034 	stmdaeq	r3, {r2, r4, r5}
 188:	0b3b0b3a 	bleq	ec2e78 <__bss_end+0xeb9a0c>
 18c:	0a021349 	beq	84eb8 <__bss_end+0x7ba4c>
 190:	34090000 	strcc	r0, [r9], #-0
 194:	3a0e0300 	bcc	380d9c <__bss_end+0x377930>
 198:	490b3b0b 	stmdbmi	fp, {r0, r1, r3, r8, r9, fp, ip, sp}
 19c:	000a0213 	andeq	r0, sl, r3, lsl r2
 1a0:	000f0a00 	andeq	r0, pc, r0, lsl #20
 1a4:	00000b0b 	andeq	r0, r0, fp, lsl #22
 1a8:	3f012e0b 	svccc	0x00012e0b
 1ac:	3a0e030c 	bcc	380de4 <__bss_end+0x377978>
 1b0:	270b3b0b 	strcs	r3, [fp, -fp, lsl #22]
 1b4:	1201110c 	andne	r1, r1, #3
 1b8:	97064001 	strls	r4, [r6, -r1]
 1bc:	13010c42 	movwne	r0, #7234	; 0x1c42
 1c0:	050c0000 	streq	r0, [ip, #-0]
 1c4:	3a080300 	bcc	200dcc <__bss_end+0x1f7960>
 1c8:	490b3b0b 	stmdbmi	fp, {r0, r1, r3, r8, r9, fp, ip, sp}
 1cc:	000a0213 	andeq	r0, sl, r3, lsl r2
 1d0:	00340d00 	eorseq	r0, r4, r0, lsl #26
 1d4:	0b3a0e03 	bleq	e839e8 <__bss_end+0xe7a57c>
 1d8:	13490b3b 	movtne	r0, #39739	; 0x9b3b
 1dc:	0a020c3f 	beq	832e0 <__bss_end+0x79e74>
 1e0:	01000000 	mrseq	r0, (UNDEF: 0)
 1e4:	0e250111 	mcreq	1, 1, r0, cr5, cr1, {0}
 1e8:	0e030b13 	vmoveq.32	d3[0], r0
 1ec:	01110e1b 	tsteq	r1, fp, lsl lr
 1f0:	06100112 			; <UNDEFINED> instruction: 0x06100112
 1f4:	24020000 	strcs	r0, [r2], #-0
 1f8:	3e0b0b00 	vmlacc.f64	d0, d11, d0
 1fc:	000e030b 	andeq	r0, lr, fp, lsl #6
 200:	012e0300 	teqeq	lr, r0, lsl #6
 204:	0e030c3f 	mcreq	12, 0, r0, cr3, cr15, {1}
 208:	0b3b0b3a 	bleq	ec2ef8 <__bss_end+0xeb9a8c>
 20c:	01120111 	tsteq	r2, r1, lsl r1
 210:	42960640 	addsmi	r0, r6, #67108864	; 0x4000000
 214:	0013010c 	andseq	r0, r3, ip, lsl #2
 218:	00340400 	eorseq	r0, r4, r0, lsl #8
 21c:	0b3a0803 	bleq	e82230 <__bss_end+0xe78dc4>
 220:	13490b3b 	movtne	r0, #39739	; 0x9b3b
 224:	00000a02 	andeq	r0, r0, r2, lsl #20
 228:	3f002e05 	svccc	0x00002e05
 22c:	3a0e030c 	bcc	380e64 <__bss_end+0x3779f8>
 230:	110b3b0b 	tstne	fp, fp, lsl #22
 234:	40011201 	andmi	r1, r1, r1, lsl #4
 238:	0c429606 	mcrreq	6, 0, r9, r2, cr6
 23c:	2e060000 	cdpcs	0, 0, cr0, cr6, cr0, {0}
 240:	030c3f01 	movweq	r3, #52993	; 0xcf01
 244:	3b0b3a0e 	blcc	2cea84 <__bss_end+0x2c5618>
 248:	1201110b 	andne	r1, r1, #-1073741822	; 0xc0000002
 24c:	96064001 	strls	r4, [r6], -r1
 250:	00000c42 	andeq	r0, r0, r2, asr #24
 254:	01110100 	tsteq	r1, r0, lsl #2
 258:	0b130e25 	bleq	4c3af4 <__bss_end+0x4ba688>
 25c:	0e1b0e03 	cdpeq	14, 1, cr0, cr11, cr3, {0}
 260:	01120111 	tsteq	r2, r1, lsl r1
 264:	00000610 	andeq	r0, r0, r0, lsl r6
 268:	03001602 	movweq	r1, #1538	; 0x602
 26c:	3b0b3a0e 	blcc	2ceaac <__bss_end+0x2c5640>
 270:	0013490b 	andseq	r4, r3, fp, lsl #18
 274:	01040300 	mrseq	r0, LR_abt
 278:	0b0b0e03 	bleq	2c3a8c <__bss_end+0x2ba620>
 27c:	0b3b0b3a 	bleq	ec2f6c <__bss_end+0xeb9b00>
 280:	00001301 	andeq	r1, r0, r1, lsl #6
 284:	03002804 	movweq	r2, #2052	; 0x804
 288:	000d1c08 	andeq	r1, sp, r8, lsl #24
 28c:	00280500 	eoreq	r0, r8, r0, lsl #10
 290:	0d1c0e03 	ldceq	14, cr0, [ip, #-12]
 294:	0f060000 	svceq	0x00060000
 298:	490b0b00 	stmdbmi	fp, {r8, r9, fp}
 29c:	07000013 	smladeq	r0, r3, r0, r0
 2a0:	0c270015 	stceq	0, cr0, [r7], #-84	; 0xffffffac
 2a4:	13080000 	movwne	r0, #32768	; 0x8000
 2a8:	0b0e0301 	bleq	380eb4 <__bss_end+0x377a48>
 2ac:	3b0b3a0b 	blcc	2ceae0 <__bss_end+0x2c5674>
 2b0:	0013010b 	andseq	r0, r3, fp, lsl #2
 2b4:	000d0900 	andeq	r0, sp, r0, lsl #18
 2b8:	0b3a0803 	bleq	e822cc <__bss_end+0xe78e60>
 2bc:	13490b3b 	movtne	r0, #39739	; 0x9b3b
 2c0:	00000a38 	andeq	r0, r0, r8, lsr sl
 2c4:	03000d0a 	movweq	r0, #3338	; 0xd0a
 2c8:	3b0b3a0e 	blcc	2ceb08 <__bss_end+0x2c569c>
 2cc:	3813490b 	ldmdacc	r3, {r0, r1, r3, r8, fp, lr}
 2d0:	0b00000a 	bleq	300 <_start-0x7d00>
 2d4:	0b0b000f 	bleq	2c0318 <__bss_end+0x2b6eac>
 2d8:	240c0000 	strcs	r0, [ip], #-0
 2dc:	3e0b0b00 	vmlacc.f64	d0, d11, d0
 2e0:	000e030b 	andeq	r0, lr, fp, lsl #6
 2e4:	012e0d00 	teqeq	lr, r0, lsl #26
 2e8:	0e030c3f 	mcreq	12, 0, r0, cr3, cr15, {1}
 2ec:	0b3b0b3a 	bleq	ec2fdc <__bss_end+0xeb9b70>
 2f0:	01110c27 	tsteq	r1, r7, lsr #24
 2f4:	06400112 			; <UNDEFINED> instruction: 0x06400112
 2f8:	010c4296 			; <UNDEFINED> instruction: 0x010c4296
 2fc:	0e000013 	mcreq	0, 0, r0, cr0, cr3, {0}
 300:	0e030005 	cdpeq	0, 0, cr0, cr3, cr5, {0}
 304:	0b3b0b3a 	bleq	ec2ff4 <__bss_end+0xeb9b88>
 308:	0a021349 	beq	85034 <__bss_end+0x7bbc8>
 30c:	050f0000 	streq	r0, [pc, #-0]	; 314 <_start-0x7cec>
 310:	3a080300 	bcc	200f18 <__bss_end+0x1f7aac>
 314:	490b3b0b 	stmdbmi	fp, {r0, r1, r3, r8, r9, fp, ip, sp}
 318:	000a0213 	andeq	r0, sl, r3, lsl r2
 31c:	00341000 	eorseq	r1, r4, r0
 320:	0b3a0803 	bleq	e82334 <__bss_end+0xe78ec8>
 324:	13490b3b 	movtne	r0, #39739	; 0x9b3b
 328:	00000a02 	andeq	r0, r0, r2, lsl #20
 32c:	03003411 	movweq	r3, #1041	; 0x411
 330:	3b0b3a0e 	blcc	2ceb70 <__bss_end+0x2c5704>
 334:	0213490b 	andseq	r4, r3, #180224	; 0x2c000
 338:	1200000a 	andne	r0, r0, #10
 33c:	0c3f002e 	ldceq	0, cr0, [pc], #-184	; 28c <_start-0x7d74>
 340:	0b3a0e03 	bleq	e83b54 <__bss_end+0xe7a6e8>
 344:	01110b3b 	tsteq	r1, fp, lsr fp
 348:	06400112 			; <UNDEFINED> instruction: 0x06400112
 34c:	000c4296 	muleq	ip, r6, r2
 350:	012e1300 	teqeq	lr, r0, lsl #6
 354:	0e030c3f 	mcreq	12, 0, r0, cr3, cr15, {1}
 358:	0b3b0b3a 	bleq	ec3048 <__bss_end+0xeb9bdc>
 35c:	01120111 	tsteq	r2, r1, lsl r1
 360:	42960640 	addsmi	r0, r6, #67108864	; 0x4000000
 364:	0013010c 	andseq	r0, r3, ip, lsl #2
 368:	002e1400 	eoreq	r1, lr, r0, lsl #8
 36c:	0e030c3f 	mcreq	12, 0, r0, cr3, cr15, {1}
 370:	0b3b0b3a 	bleq	ec3060 <__bss_end+0xeb9bf4>
 374:	01120111 	tsteq	r2, r1, lsl r1
 378:	42970a40 	addsmi	r0, r7, #262144	; 0x40000
 37c:	1500000c 	strne	r0, [r0, #-12]
 380:	0111010b 	tsteq	r1, fp, lsl #2
 384:	00000112 	andeq	r0, r0, r2, lsl r1
 388:	3f012e16 	svccc	0x00012e16
 38c:	3a0e030c 	bcc	380fc4 <__bss_end+0x377b58>
 390:	110b3b0b 	tstne	fp, fp, lsl #22
 394:	40011201 	andmi	r1, r1, r1, lsl #4
 398:	0c42960a 	mcrreq	6, 0, r9, r2, cr10
 39c:	00001301 	andeq	r1, r0, r1, lsl #6
 3a0:	03003417 	movweq	r3, #1047	; 0x417
 3a4:	3b0b3a0e 	blcc	2cebe4 <__bss_end+0x2c5778>
 3a8:	3f13490b 	svccc	0x0013490b
 3ac:	000a020c 	andeq	r0, sl, ip, lsl #4
 3b0:	00341800 	eorseq	r1, r4, r0, lsl #16
 3b4:	0b3a0803 	bleq	e823c8 <__bss_end+0xe78f5c>
 3b8:	13490b3b 	movtne	r0, #39739	; 0x9b3b
 3bc:	0a020c3f 	beq	834c0 <__bss_end+0x7a054>
 3c0:	01000000 	mrseq	r0, (UNDEF: 0)
 3c4:	0e250111 	mcreq	1, 1, r0, cr5, cr1, {0}
 3c8:	0e030b13 	vmoveq.32	d3[0], r0
 3cc:	01110e1b 	tsteq	r1, fp, lsl lr
 3d0:	06100112 			; <UNDEFINED> instruction: 0x06100112
 3d4:	16020000 	strne	r0, [r2], -r0
 3d8:	3a0e0300 	bcc	380fe0 <__bss_end+0x377b74>
 3dc:	490b3b0b 	stmdbmi	fp, {r0, r1, r3, r8, r9, fp, ip, sp}
 3e0:	03000013 	movweq	r0, #19
 3e4:	0e030104 	adfeqs	f0, f3, f4
 3e8:	0b3a0b0b 	bleq	e8301c <__bss_end+0xe79bb0>
 3ec:	13010b3b 	movwne	r0, #6971	; 0x1b3b
 3f0:	28040000 	stmdacs	r4, {}	; <UNPREDICTABLE>
 3f4:	1c080300 	stcne	3, cr0, [r8], {-0}
 3f8:	0500000d 	streq	r0, [r0, #-13]
 3fc:	0e030028 	cdpeq	0, 0, cr0, cr3, cr8, {1}
 400:	00000d1c 	andeq	r0, r0, ip, lsl sp
 404:	0b000f06 	bleq	4024 <_start-0x3fdc>
 408:	0013490b 	andseq	r4, r3, fp, lsl #18
 40c:	00150700 	andseq	r0, r5, r0, lsl #14
 410:	00000c27 	andeq	r0, r0, r7, lsr #24
 414:	03011308 	movweq	r1, #4872	; 0x1308
 418:	3a0b0b0e 	bcc	2c3058 <__bss_end+0x2b9bec>
 41c:	010b3b0b 	tsteq	fp, fp, lsl #22
 420:	09000013 	stmdbeq	r0, {r0, r1, r4}
 424:	0803000d 	stmdaeq	r3, {r0, r2, r3}
 428:	0b3b0b3a 	bleq	ec3118 <__bss_end+0xeb9cac>
 42c:	0a381349 	beq	e05158 <__bss_end+0xdfbcec>
 430:	0d0a0000 	stceq	0, cr0, [sl, #-0]
 434:	3a0e0300 	bcc	38103c <__bss_end+0x377bd0>
 438:	490b3b0b 	stmdbmi	fp, {r0, r1, r3, r8, r9, fp, ip, sp}
 43c:	000a3813 	andeq	r3, sl, r3, lsl r8
 440:	000f0b00 	andeq	r0, pc, r0, lsl #22
 444:	00000b0b 	andeq	r0, r0, fp, lsl #22
 448:	0b00240c 	bleq	9480 <__bss_end+0x14>
 44c:	030b3e0b 	movweq	r3, #48651	; 0xbe0b
 450:	0d00000e 	stceq	0, cr0, [r0, #-56]	; 0xffffffc8
 454:	0c3f002e 	ldceq	0, cr0, [pc], #-184	; 3a4 <_start-0x7c5c>
 458:	0b3a0e03 	bleq	e83c6c <__bss_end+0xe7a800>
 45c:	01110b3b 	tsteq	r1, fp, lsr fp
 460:	06400112 			; <UNDEFINED> instruction: 0x06400112
 464:	000c4297 	muleq	ip, r7, r2
 468:	012e0e00 	teqeq	lr, r0, lsl #28
 46c:	0e030c3f 	mcreq	12, 0, r0, cr3, cr15, {1}
 470:	0b3b0b3a 	bleq	ec3160 <__bss_end+0xeb9cf4>
 474:	01110c27 	tsteq	r1, r7, lsr #24
 478:	06400112 			; <UNDEFINED> instruction: 0x06400112
 47c:	010c4297 			; <UNDEFINED> instruction: 0x010c4297
 480:	0f000013 	svceq	0x00000013
 484:	0e030005 	cdpeq	0, 0, cr0, cr3, cr5, {0}
 488:	0b3b0b3a 	bleq	ec3178 <__bss_end+0xeb9d0c>
 48c:	0a021349 	beq	851b8 <__bss_end+0x7bd4c>
 490:	2e100000 	cdpcs	0, 1, cr0, cr0, cr0, {0}
 494:	030c3f00 	movweq	r3, #52992	; 0xcf00
 498:	3b0b3a0e 	blcc	2cecd8 <__bss_end+0x2c586c>
 49c:	1201110b 	andne	r1, r1, #-1073741822	; 0xc0000002
 4a0:	970a4001 	strls	r4, [sl, -r1]
 4a4:	00000c42 	andeq	r0, r0, r2, asr #24
 4a8:	3f012e11 	svccc	0x00012e11
 4ac:	3a0e030c 	bcc	3810e4 <__bss_end+0x377c78>
 4b0:	110b3b0b 	tstne	fp, fp, lsl #22
 4b4:	40011201 	andmi	r1, r1, r1, lsl #4
 4b8:	0c429706 	mcrreq	7, 0, r9, r2, cr6
 4bc:	00001301 	andeq	r1, r0, r1, lsl #6
 4c0:	03003412 	movweq	r3, #1042	; 0x412
 4c4:	3b0b3a0e 	blcc	2ced04 <__bss_end+0x2c5898>
 4c8:	0213490b 	andseq	r4, r3, #180224	; 0x2c000
 4cc:	1300000a 	movwne	r0, #10
 4d0:	0c3f012e 	ldfeqs	f0, [pc], #-184	; 420 <_start-0x7be0>
 4d4:	0b3a0e03 	bleq	e83ce8 <__bss_end+0xe7a87c>
 4d8:	01110b3b 	tsteq	r1, fp, lsr fp
 4dc:	06400112 			; <UNDEFINED> instruction: 0x06400112
 4e0:	010c4296 			; <UNDEFINED> instruction: 0x010c4296
 4e4:	14000013 	strne	r0, [r0], #-19
 4e8:	0b0b0024 	bleq	2c0580 <__bss_end+0x2b7114>
 4ec:	08030b3e 	stmdaeq	r3, {r1, r2, r3, r4, r5, r8, r9, fp}
 4f0:	34150000 	ldrcc	r0, [r5], #-0
 4f4:	3a0e0300 	bcc	3810fc <__bss_end+0x377c90>
 4f8:	490b3b0b 	stmdbmi	fp, {r0, r1, r3, r8, r9, fp, ip, sp}
 4fc:	020c3f13 	andeq	r3, ip, #76	; 0x4c
 500:	1600000a 	strne	r0, [r0], -sl
 504:	08030034 	stmdaeq	r3, {r2, r4, r5}
 508:	0b3b0b3a 	bleq	ec31f8 <__bss_end+0xeb9d8c>
 50c:	0c3f1349 	ldceq	3, cr1, [pc], #-292	; 3f0 <_start-0x7c10>
 510:	00000a02 	andeq	r0, r0, r2, lsl #20
 514:	01110100 	tsteq	r1, r0, lsl #2
 518:	0b130e25 	bleq	4c3db4 <__bss_end+0x4ba948>
 51c:	0e1b0e03 	cdpeq	14, 1, cr0, cr11, cr3, {0}
 520:	01120111 	tsteq	r2, r1, lsl r1
 524:	00000610 	andeq	r0, r0, r0, lsl r6
 528:	0b002402 	bleq	9538 <__bss_end+0xcc>
 52c:	030b3e0b 	movweq	r3, #48651	; 0xbe0b
 530:	0300000e 	movweq	r0, #14
 534:	0e030016 	mcreq	0, 0, r0, cr3, cr6, {0}
 538:	0b3b0b3a 	bleq	ec3228 <__bss_end+0xeb9dbc>
 53c:	00001349 	andeq	r1, r0, r9, asr #6
 540:	3f012e04 	svccc	0x00012e04
 544:	3a0e030c 	bcc	38117c <__bss_end+0x377d10>
 548:	270b3b0b 	strcs	r3, [fp, -fp, lsl #22]
 54c:	1113490c 	tstne	r3, ip, lsl #18
 550:	40011201 	andmi	r1, r1, r1, lsl #4
 554:	0c429606 	mcrreq	6, 0, r9, r2, cr6
 558:	00001301 	andeq	r1, r0, r1, lsl #6
 55c:	03003405 	movweq	r3, #1029	; 0x405
 560:	3b0b3a08 	blcc	2ced88 <__bss_end+0x2c591c>
 564:	0213490b 	andseq	r4, r3, #180224	; 0x2c000
 568:	0600000a 	streq	r0, [r0], -sl
 56c:	0e030034 	mcreq	0, 0, r0, cr3, cr4, {1}
 570:	0b3b0b3a 	bleq	ec3260 <__bss_end+0xeb9df4>
 574:	0a021349 	beq	852a0 <__bss_end+0x7be34>
 578:	24070000 	strcs	r0, [r7], #-0
 57c:	3e0b0b00 	vmlacc.f64	d0, d11, d0
 580:	0008030b 	andeq	r0, r8, fp, lsl #6
 584:	000f0800 	andeq	r0, pc, r0, lsl #16
 588:	13490b0b 	movtne	r0, #39691	; 0x9b0b
 58c:	2e090000 	cdpcs	0, 0, cr0, cr9, cr0, {0}
 590:	030c3f01 	movweq	r3, #52993	; 0xcf01
 594:	3b0b3a0e 	blcc	2cedd4 <__bss_end+0x2c5968>
 598:	110c270b 	tstne	ip, fp, lsl #14
 59c:	40011201 	andmi	r1, r1, r1, lsl #4
 5a0:	0c429606 	mcrreq	6, 0, r9, r2, cr6
 5a4:	00001301 	andeq	r1, r0, r1, lsl #6
 5a8:	0300050a 	movweq	r0, #1290	; 0x50a
 5ac:	3b0b3a0e 	blcc	2cedec <__bss_end+0x2c5980>
 5b0:	0213490b 	andseq	r4, r3, #180224	; 0x2c000
 5b4:	0b00000a 	bleq	5e4 <_start-0x7a1c>
 5b8:	0111010b 	tsteq	r1, fp, lsl #2
 5bc:	13010112 	movwne	r0, #4370	; 0x1112
 5c0:	0b0c0000 	bleq	3005c8 <__bss_end+0x2f715c>
 5c4:	12011101 	andne	r1, r1, #1073741824	; 0x40000000
 5c8:	0d000001 	stceq	0, cr0, [r0, #-4]
 5cc:	0c3f012e 	ldfeqs	f0, [pc], #-184	; 51c <_start-0x7ae4>
 5d0:	0b3a0e03 	bleq	e83de4 <__bss_end+0xe7a978>
 5d4:	13490b3b 	movtne	r0, #39739	; 0x9b3b
 5d8:	01120111 	tsteq	r2, r1, lsl r1
 5dc:	42970640 	addsmi	r0, r7, #67108864	; 0x4000000
 5e0:	0013010c 	andseq	r0, r3, ip, lsl #2
 5e4:	012e0e00 	teqeq	lr, r0, lsl #28
 5e8:	0e030c3f 	mcreq	12, 0, r0, cr3, cr15, {1}
 5ec:	0b3b0b3a 	bleq	ec32dc <__bss_end+0xeb9e70>
 5f0:	01110c27 	tsteq	r1, r7, lsr #24
 5f4:	06400112 			; <UNDEFINED> instruction: 0x06400112
 5f8:	010c4297 			; <UNDEFINED> instruction: 0x010c4297
 5fc:	0f000013 	svceq	0x00000013
 600:	08030005 	stmdaeq	r3, {r0, r2}
 604:	0b3b0b3a 	bleq	ec32f4 <__bss_end+0xeb9e88>
 608:	0a021349 	beq	85334 <__bss_end+0x7bec8>
 60c:	34100000 	ldrcc	r0, [r0], #-0
 610:	3a080300 	bcc	201218 <__bss_end+0x1f7dac>
 614:	49053b0b 	stmdbmi	r5, {r0, r1, r3, r8, r9, fp, ip, sp}
 618:	000a0213 	andeq	r0, sl, r3, lsl r2
 61c:	00341100 	eorseq	r1, r4, r0, lsl #2
 620:	0b3a0e03 	bleq	e83e34 <__bss_end+0xe7a9c8>
 624:	1349053b 	movtne	r0, #38203	; 0x953b
 628:	00000a02 	andeq	r0, r0, r2, lsl #20
 62c:	03003412 	movweq	r3, #1042	; 0x412
 630:	3b0b3a0e 	blcc	2cee70 <__bss_end+0x2c5a04>
 634:	3f13490b 	svccc	0x0013490b
 638:	000a020c 	andeq	r0, sl, ip, lsl #4
	...

Disassembly of section .debug_aranges:

00000000 <.debug_aranges>:
   0:	0000001c 	andeq	r0, r0, ip, lsl r0
   4:	00000002 	andeq	r0, r0, r2
   8:	00040000 	andeq	r0, r4, r0
   c:	00000000 	andeq	r0, r0, r0
  10:	00008000 	andeq	r8, r0, r0
  14:	000000d0 	ldrdeq	r0, [r0], -r0	; <UNPREDICTABLE>
	...
  20:	0000001c 	andeq	r0, r0, ip, lsl r0
  24:	00560002 	subseq	r0, r6, r2
  28:	00040000 	andeq	r0, r4, r0
  2c:	00000000 	andeq	r0, r0, r0
  30:	000080d0 	ldrdeq	r8, [r0], -r0
  34:	00000070 	andeq	r0, r0, r0, ror r0
	...
  40:	0000001c 	andeq	r0, r0, ip, lsl r0
  44:	02430002 	subeq	r0, r3, #2
  48:	00040000 	andeq	r0, r4, r0
  4c:	00000000 	andeq	r0, r0, r0
  50:	00008140 	andeq	r8, r0, r0, asr #2
  54:	00000138 	andeq	r0, r0, r8, lsr r1
	...
  60:	0000001c 	andeq	r0, r0, ip, lsl r0
  64:	03a50002 			; <UNDEFINED> instruction: 0x03a50002
  68:	00040000 	andeq	r0, r4, r0
  6c:	00000000 	andeq	r0, r0, r0
  70:	00008278 	andeq	r8, r0, r8, ror r2
  74:	0000013c 	andeq	r0, r0, ip, lsr r1
	...
  80:	0000001c 	andeq	r0, r0, ip, lsl r0
  84:	04610002 	strbteq	r0, [r1], #-2
  88:	00040000 	andeq	r0, r4, r0
  8c:	00000000 	andeq	r0, r0, r0
  90:	000083b4 			; <UNDEFINED> instruction: 0x000083b4
  94:	00000614 	andeq	r0, r0, r4, lsl r6
	...
  a0:	0000001c 	andeq	r0, r0, ip, lsl r0
  a4:	07980002 	ldreq	r0, [r8, r2]
  a8:	00040000 	andeq	r0, r4, r0
  ac:	00000000 	andeq	r0, r0, r0
  b0:	000089c8 	andeq	r8, r0, r8, asr #19
  b4:	000000b8 	strheq	r0, [r0], -r8
	...
  c0:	0000001c 	andeq	r0, r0, ip, lsl r0
  c4:	09af0002 	stmibeq	pc!, {r1}	; <UNPREDICTABLE>
  c8:	00040000 	andeq	r0, r4, r0
  cc:	00000000 	andeq	r0, r0, r0
  d0:	00008a80 	andeq	r8, r0, r0, lsl #21
  d4:	000009b0 			; <UNDEFINED> instruction: 0x000009b0
	...

Disassembly of section .debug_loc:

00000000 <.debug_loc>:
   0:	00000000 	andeq	r0, r0, r0
   4:	00000004 	andeq	r0, r0, r4
   8:	007d0002 	rsbseq	r0, sp, r2
   c:	00000004 	andeq	r0, r0, r4
  10:	0000001c 	andeq	r0, r0, ip, lsl r0
  14:	087d0002 	ldmdaeq	sp!, {r1}^
	...
  20:	0000001c 	andeq	r0, r0, ip, lsl r0
  24:	00000020 	andeq	r0, r0, r0, lsr #32
  28:	007d0002 	rsbseq	r0, sp, r2
  2c:	00000020 	andeq	r0, r0, r0, lsr #32
  30:	00000038 	andeq	r0, r0, r8, lsr r0
  34:	087d0002 	ldmdaeq	sp!, {r1}^
	...
  40:	00000038 	andeq	r0, r0, r8, lsr r0
  44:	0000003c 	andeq	r0, r0, ip, lsr r0
  48:	007d0002 	rsbseq	r0, sp, r2
  4c:	0000003c 	andeq	r0, r0, ip, lsr r0
  50:	00000070 	andeq	r0, r0, r0, ror r0
  54:	087d0002 	ldmdaeq	sp!, {r1}^
	...
  64:	00000004 	andeq	r0, r0, r4
  68:	007d0002 	rsbseq	r0, sp, r2
  6c:	00000004 	andeq	r0, r0, r4
  70:	00000008 	andeq	r0, r0, r8
  74:	087d0002 	ldmdaeq	sp!, {r1}^
  78:	00000008 	andeq	r0, r0, r8
  7c:	000000b4 	strheq	r0, [r0], -r4
  80:	107d0002 	rsbsne	r0, sp, r2
	...
  8c:	000000b4 	strheq	r0, [r0], -r4
  90:	000000b8 	strheq	r0, [r0], -r8
  94:	007d0002 	rsbseq	r0, sp, r2
  98:	000000b8 	strheq	r0, [r0], -r8
  9c:	000000bc 	strheq	r0, [r0], -ip
  a0:	047d0002 	ldrbteq	r0, [sp], #-2
  a4:	000000bc 	strheq	r0, [r0], -ip
  a8:	000000fc 	strdeq	r0, [r0], -ip
  ac:	107d0002 	rsbsne	r0, sp, r2
	...
  b8:	000000fc 	strdeq	r0, [r0], -ip
  bc:	00000100 	andeq	r0, r0, r0, lsl #2
  c0:	007d0002 	rsbseq	r0, sp, r2
  c4:	00000100 	andeq	r0, r0, r0, lsl #2
  c8:	00000138 	andeq	r0, r0, r8, lsr r1
  cc:	087d0002 	ldmdaeq	sp!, {r1}^
	...
  dc:	00000004 	andeq	r0, r0, r4
  e0:	007d0002 	rsbseq	r0, sp, r2
  e4:	00000004 	andeq	r0, r0, r4
  e8:	00000008 	andeq	r0, r0, r8
  ec:	047d0002 	ldrbteq	r0, [sp], #-2
  f0:	00000008 	andeq	r0, r0, r8
  f4:	0000004c 	andeq	r0, r0, ip, asr #32
  f8:	107d0002 	rsbsne	r0, sp, r2
	...
 104:	0000004c 	andeq	r0, r0, ip, asr #32
 108:	00000050 	andeq	r0, r0, r0, asr r0
 10c:	007d0002 	rsbseq	r0, sp, r2
 110:	00000050 	andeq	r0, r0, r0, asr r0
 114:	00000064 	andeq	r0, r0, r4, rrx
 118:	087d0002 	ldmdaeq	sp!, {r1}^
	...
 124:	00000064 	andeq	r0, r0, r4, rrx
 128:	00000068 	andeq	r0, r0, r8, rrx
 12c:	007d0002 	rsbseq	r0, sp, r2
 130:	00000068 	andeq	r0, r0, r8, rrx
 134:	0000007c 	andeq	r0, r0, ip, ror r0
 138:	087d0002 	ldmdaeq	sp!, {r1}^
	...
 144:	0000007c 	andeq	r0, r0, ip, ror r0
 148:	00000080 	andeq	r0, r0, r0, lsl #1
 14c:	007d0002 	rsbseq	r0, sp, r2
 150:	00000080 	andeq	r0, r0, r0, lsl #1
 154:	00000084 	andeq	r0, r0, r4, lsl #1
 158:	047d0002 	ldrbteq	r0, [sp], #-2
 15c:	00000084 	andeq	r0, r0, r4, lsl #1
 160:	0000013c 	andeq	r0, r0, ip, lsr r1
 164:	107d0002 	rsbsne	r0, sp, r2
	...
 174:	00000004 	andeq	r0, r0, r4
 178:	007d0002 	rsbseq	r0, sp, r2
 17c:	00000004 	andeq	r0, r0, r4
 180:	00000008 	andeq	r0, r0, r8
 184:	047d0002 	ldrbteq	r0, [sp], #-2
 188:	00000008 	andeq	r0, r0, r8
 18c:	00000054 	andeq	r0, r0, r4, asr r0
 190:	187d0002 	ldmdane	sp!, {r1}^
	...
 19c:	00000054 	andeq	r0, r0, r4, asr r0
 1a0:	00000058 	andeq	r0, r0, r8, asr r0
 1a4:	007d0002 	rsbseq	r0, sp, r2
 1a8:	00000058 	andeq	r0, r0, r8, asr r0
 1ac:	0000005c 	andeq	r0, r0, ip, asr r0
 1b0:	047d0002 	ldrbteq	r0, [sp], #-2
 1b4:	0000005c 	andeq	r0, r0, ip, asr r0
 1b8:	000000cc 	andeq	r0, r0, ip, asr #1
 1bc:	207d0002 	rsbscs	r0, sp, r2
	...
 1c8:	000000cc 	andeq	r0, r0, ip, asr #1
 1cc:	000000d0 	ldrdeq	r0, [r0], -r0	; <UNPREDICTABLE>
 1d0:	007d0002 	rsbseq	r0, sp, r2
 1d4:	000000d0 	ldrdeq	r0, [r0], -r0	; <UNPREDICTABLE>
 1d8:	000000d4 	ldrdeq	r0, [r0], -r4
 1dc:	047d0002 	ldrbteq	r0, [sp], #-2
 1e0:	000000d4 	ldrdeq	r0, [r0], -r4
 1e4:	000001b4 			; <UNDEFINED> instruction: 0x000001b4
 1e8:	207d0002 	rsbscs	r0, sp, r2
	...
 1f4:	000001b4 			; <UNDEFINED> instruction: 0x000001b4
 1f8:	000001b8 			; <UNDEFINED> instruction: 0x000001b8
 1fc:	007d0002 	rsbseq	r0, sp, r2
 200:	000001b8 			; <UNDEFINED> instruction: 0x000001b8
 204:	0000021c 	andeq	r0, r0, ip, lsl r2
 208:	087d0002 	ldmdaeq	sp!, {r1}^
	...
 214:	0000021c 	andeq	r0, r0, ip, lsl r2
 218:	00000220 	andeq	r0, r0, r0, lsr #4
 21c:	007d0002 	rsbseq	r0, sp, r2
 220:	00000220 	andeq	r0, r0, r0, lsr #4
 224:	00000224 	andeq	r0, r0, r4, lsr #4
 228:	047d0002 	ldrbteq	r0, [sp], #-2
 22c:	00000224 	andeq	r0, r0, r4, lsr #4
 230:	00000310 	andeq	r0, r0, r0, lsl r3
 234:	107d0002 	rsbsne	r0, sp, r2
	...
 240:	00000344 	andeq	r0, r0, r4, asr #6
 244:	00000348 	andeq	r0, r0, r8, asr #6
 248:	007d0002 	rsbseq	r0, sp, r2
 24c:	00000348 	andeq	r0, r0, r8, asr #6
 250:	0000037c 	andeq	r0, r0, ip, ror r3
 254:	087d0002 	ldmdaeq	sp!, {r1}^
	...
 260:	0000037c 	andeq	r0, r0, ip, ror r3
 264:	00000380 	andeq	r0, r0, r0, lsl #7
 268:	007d0002 	rsbseq	r0, sp, r2
 26c:	00000380 	andeq	r0, r0, r0, lsl #7
 270:	00000384 	andeq	r0, r0, r4, lsl #7
 274:	047d0002 	ldrbteq	r0, [sp], #-2
 278:	00000384 	andeq	r0, r0, r4, lsl #7
 27c:	00000500 	andeq	r0, r0, r0, lsl #10
 280:	107d0002 	rsbsne	r0, sp, r2
	...
 290:	00000004 	andeq	r0, r0, r4
 294:	007d0002 	rsbseq	r0, sp, r2
 298:	00000004 	andeq	r0, r0, r4
 29c:	00000014 	andeq	r0, r0, r4, lsl r0
 2a0:	047d0002 	ldrbteq	r0, [sp], #-2
	...
 2ac:	00000014 	andeq	r0, r0, r4, lsl r0
 2b0:	00000018 	andeq	r0, r0, r8, lsl r0
 2b4:	007d0002 	rsbseq	r0, sp, r2
 2b8:	00000018 	andeq	r0, r0, r8, lsl r0
 2bc:	0000001c 	andeq	r0, r0, ip, lsl r0
 2c0:	047d0002 	ldrbteq	r0, [sp], #-2
 2c4:	0000001c 	andeq	r0, r0, ip, lsl r0
 2c8:	0000003c 	andeq	r0, r0, ip, lsr r0
 2cc:	107d0002 	rsbsne	r0, sp, r2
	...
 2d8:	00000040 	andeq	r0, r0, r0, asr #32
 2dc:	00000044 	andeq	r0, r0, r4, asr #32
 2e0:	007d0002 	rsbseq	r0, sp, r2
 2e4:	00000044 	andeq	r0, r0, r4, asr #32
 2e8:	00000048 	andeq	r0, r0, r8, asr #32
 2ec:	047d0002 	ldrbteq	r0, [sp], #-2
 2f0:	00000048 	andeq	r0, r0, r8, asr #32
 2f4:	00000070 	andeq	r0, r0, r0, ror r0
 2f8:	107d0002 	rsbsne	r0, sp, r2
	...
 304:	00000070 	andeq	r0, r0, r0, ror r0
 308:	00000074 	andeq	r0, r0, r4, ror r0
 30c:	007d0002 	rsbseq	r0, sp, r2
 310:	00000074 	andeq	r0, r0, r4, ror r0
 314:	00000078 	andeq	r0, r0, r8, ror r0
 318:	087d0002 	ldmdaeq	sp!, {r1}^
 31c:	00000078 	andeq	r0, r0, r8, ror r0
 320:	000000b8 	strheq	r0, [r0], -r8
 324:	107d0002 	rsbsne	r0, sp, r2
	...
 334:	00000004 	andeq	r0, r0, r4
 338:	007d0002 	rsbseq	r0, sp, r2
 33c:	00000004 	andeq	r0, r0, r4
 340:	00000008 	andeq	r0, r0, r8
 344:	047d0002 	ldrbteq	r0, [sp], #-2
 348:	00000008 	andeq	r0, r0, r8
 34c:	00000144 	andeq	r0, r0, r4, asr #2
 350:	107d0002 	rsbsne	r0, sp, r2
	...
 35c:	00000144 	andeq	r0, r0, r4, asr #2
 360:	00000148 	andeq	r0, r0, r8, asr #2
 364:	007d0002 	rsbseq	r0, sp, r2
 368:	00000148 	andeq	r0, r0, r8, asr #2
 36c:	0000014c 	andeq	r0, r0, ip, asr #2
 370:	047d0002 	ldrbteq	r0, [sp], #-2
 374:	0000014c 	andeq	r0, r0, ip, asr #2
 378:	000002d8 	ldrdeq	r0, [r0], -r8
 37c:	287d0002 	ldmdacs	sp!, {r1}^
	...
 388:	000002d8 	ldrdeq	r0, [r0], -r8
 38c:	000002dc 	ldrdeq	r0, [r0], -ip
 390:	007d0002 	rsbseq	r0, sp, r2
 394:	000002dc 	ldrdeq	r0, [r0], -ip
 398:	000003dc 	ldrdeq	r0, [r0], -ip
 39c:	107d0002 	rsbsne	r0, sp, r2
	...
 3a8:	000003dc 	ldrdeq	r0, [r0], -ip
 3ac:	000003e0 	andeq	r0, r0, r0, ror #7
 3b0:	007d0002 	rsbseq	r0, sp, r2
 3b4:	000003e0 	andeq	r0, r0, r0, ror #7
 3b8:	0000048c 	andeq	r0, r0, ip, lsl #9
 3bc:	107d0002 	rsbsne	r0, sp, r2
	...
 3c8:	0000048c 	andeq	r0, r0, ip, lsl #9
 3cc:	00000490 	muleq	r0, r0, r4
 3d0:	007d0002 	rsbseq	r0, sp, r2
 3d4:	00000490 	muleq	r0, r0, r4
 3d8:	00000514 	andeq	r0, r0, r4, lsl r5
 3dc:	087d0002 	ldmdaeq	sp!, {r1}^
	...
 3e8:	00000514 	andeq	r0, r0, r4, lsl r5
 3ec:	00000518 	andeq	r0, r0, r8, lsl r5
 3f0:	007d0002 	rsbseq	r0, sp, r2
 3f4:	00000518 	andeq	r0, r0, r8, lsl r5
 3f8:	00000590 	muleq	r0, r0, r5
 3fc:	107d0002 	rsbsne	r0, sp, r2
	...
 408:	00000590 	muleq	r0, r0, r5
 40c:	00000594 	muleq	r0, r4, r5
 410:	007d0002 	rsbseq	r0, sp, r2
 414:	00000594 	muleq	r0, r4, r5
 418:	000005c0 	andeq	r0, r0, r0, asr #11
 41c:	047d0002 	ldrbteq	r0, [sp], #-2
	...
 428:	000005c0 	andeq	r0, r0, r0, asr #11
 42c:	000005c4 	andeq	r0, r0, r4, asr #11
 430:	007d0002 	rsbseq	r0, sp, r2
 434:	000005c4 	andeq	r0, r0, r4, asr #11
 438:	00000610 	andeq	r0, r0, r0, lsl r6
 43c:	047d0002 	ldrbteq	r0, [sp], #-2
	...
 448:	00000610 	andeq	r0, r0, r0, lsl r6
 44c:	00000614 	andeq	r0, r0, r4, lsl r6
 450:	007d0002 	rsbseq	r0, sp, r2
 454:	00000614 	andeq	r0, r0, r4, lsl r6
 458:	00000698 	muleq	r0, r8, r6
 45c:	087d0002 	ldmdaeq	sp!, {r1}^
	...
 468:	00000698 	muleq	r0, r8, r6
 46c:	0000069c 	muleq	r0, ip, r6
 470:	007d0002 	rsbseq	r0, sp, r2
 474:	0000069c 	muleq	r0, ip, r6
 478:	000006d8 	ldrdeq	r0, [r0], -r8
 47c:	107d0002 	rsbsne	r0, sp, r2
	...
 488:	000006d8 	ldrdeq	r0, [r0], -r8
 48c:	000006dc 	ldrdeq	r0, [r0], -ip
 490:	007d0002 	rsbseq	r0, sp, r2
 494:	000006dc 	ldrdeq	r0, [r0], -ip
 498:	000006e0 	andeq	r0, r0, r0, ror #13
 49c:	087d0002 	ldmdaeq	sp!, {r1}^
 4a0:	000006e0 	andeq	r0, r0, r0, ror #13
 4a4:	00000838 	andeq	r0, r0, r8, lsr r8
 4a8:	287d0002 	ldmdacs	sp!, {r1}^
	...
 4b4:	00000838 	andeq	r0, r0, r8, lsr r8
 4b8:	0000083c 	andeq	r0, r0, ip, lsr r8
 4bc:	007d0002 	rsbseq	r0, sp, r2
 4c0:	0000083c 	andeq	r0, r0, ip, lsr r8
 4c4:	00000840 	andeq	r0, r0, r0, asr #16
 4c8:	047d0002 	ldrbteq	r0, [sp], #-2
 4cc:	00000840 	andeq	r0, r0, r0, asr #16
 4d0:	000009b0 			; <UNDEFINED> instruction: 0x000009b0
 4d4:	307d0002 	rsbscc	r0, sp, r2
	...

Disassembly of section .debug_str:

00000000 <.debug_str>:
   0:	5f626370 	svcpl	0x00626370
   4:	73677261 	cmnvc	r7, #268435462	; 0x10000006
   8:	616d6b00 	cmnvs	sp, r0, lsl #22
   c:	63006e69 	movwvs	r6, #3689	; 0xe69
  10:	00427470 	subeq	r7, r2, r0, ror r4
  14:	7478656e 	ldrbtvc	r6, [r8], #-1390	; 0x56e
  18:	6263705f 	rsbvs	r7, r3, #95	; 0x5f
  1c:	6e756600 	cdpvs	6, 7, cr6, cr5, cr0, {0}
  20:	745f7463 	ldrbvc	r7, [pc], #-1123	; 28 <_start-0x7fd8>
  24:	554e4700 	strbpl	r4, [lr, #-1792]	; 0x700
  28:	34204320 	strtcc	r4, [r0], #-800	; 0x320
  2c:	312e372e 	teqcc	lr, lr, lsr #14
  30:	49415700 	stmdbmi	r1, {r8, r9, sl, ip, lr}^
  34:	474e4954 	smlsldmi	r4, lr, r4, r9
  38:	74706300 	ldrbtvc	r6, [r0], #-768	; 0x300
  3c:	69660041 	stmdbvs	r6!, {r0, r6}^
  40:	5f747372 	svcpl	0x00747372
  44:	00626370 	rsbeq	r6, r2, r0, ror r3
  48:	5f626370 	svcpl	0x00626370
  4c:	75660066 	strbvc	r0, [r6, #-102]!	; 0x66
  50:	0041636e 	subeq	r6, r1, lr, ror #6
  54:	69616863 	stmdbvs	r1!, {r0, r1, r5, r6, fp, sp, lr}^
  58:	5f64656e 	svcpl	0x0064656e
  5c:	7473696c 	ldrbtvc	r6, [r3], #-2412	; 0x96c
  60:	52455400 	subpl	r5, r5, #0
  64:	414e494d 	cmpmi	lr, sp, asr #18
  68:	00444554 	subeq	r4, r4, r4, asr r5
  6c:	7473616c 	ldrbtvc	r6, [r3], #-364	; 0x16c
  70:	6263705f 	rsbvs	r7, r3, #95	; 0x5f
  74:	6e756600 	cdpvs	6, 7, cr6, cr5, cr0, {0}
  78:	63004263 	movwvs	r4, #611	; 0x263
  7c:	735f7874 	cmpvc	pc, #7602176	; 0x740000
  80:	4e555200 	cdpmi	2, 5, cr5, cr5, cr0, {0}
  84:	474e494e 	strbmi	r4, [lr, -lr, asr #18]
  88:	6f687300 	svcvs	0x00687300
  8c:	75207472 	strvc	r7, [r0, #-1138]!	; 0x472
  90:	6769736e 	strbvs	r7, [r9, -lr, ror #6]!
  94:	2064656e 	rsbcs	r6, r4, lr, ror #10
  98:	00746e69 	rsbseq	r6, r4, r9, ror #28
  9c:	6d6f682f 	stclvs	8, cr6, [pc, #-188]!	; ffffffe8 <__bss_end+0xffff6b7c>
  a0:	6e722f65 	cdpvs	15, 7, cr2, cr2, cr5, {3}
  a4:	6c6f6369 	stclvs	3, cr6, [pc], #-420	; ffffff08 <__bss_end+0xffff6a9c>
  a8:	482f7465 	stmdami	pc!, {r0, r2, r5, r6, sl, ip, sp, lr}	; <UNPREDICTABLE>
  ac:	34303134 	ldrtcc	r3, [r0], #-308	; 0x134
  b0:	2f534f2f 	svccs	0x00534f2f
  b4:	522d734f 	eorpl	r7, sp, #1006632961	; 0x3c000001
  b8:	65707361 	ldrbvs	r7, [r0, #-865]!	; 0x361
  bc:	72726562 	rsbsvc	r6, r2, #411041792	; 0x18800000
  c0:	6e750079 	mrcvs	0, 3, r0, cr5, cr9, {3}
  c4:	6e676973 	mcrvs	9, 3, r6, cr7, cr3, {3}
  c8:	63206465 	teqvs	r0, #1694498816	; 0x65000000
  cc:	00726168 	rsbseq	r6, r2, r8, ror #2
  d0:	6e72656b 	cdpvs	5, 7, cr6, cr2, cr11, {3}
  d4:	632e6c65 	teqvs	lr, #25856	; 0x6500
  d8:	61747300 	cmnvs	r4, r0, lsl #6
  dc:	74006574 	strvc	r6, [r0], #-1396	; 0x574
  e0:	73706d65 	cmnvc	r0, #6464	; 0x1940
  e4:	65747441 	ldrbvs	r7, [r4, #-1089]!	; 0x441
  e8:	0065746e 	rsbeq	r7, r5, lr, ror #8
  ec:	5f626370 	svcpl	0x00626370
  f0:	6e690073 	mcrvs	0, 3, r0, cr9, cr3, {3}
  f4:	735f7469 	cmpvc	pc, #1761607680	; 0x69000000
  f8:	74530070 	ldrbvc	r0, [r3], #-112	; 0x70
  fc:	00657461 	rsbeq	r7, r5, r1, ror #8
 100:	5f626370 	svcpl	0x00626370
 104:	00787463 	rsbseq	r7, r8, r3, ror #8
 108:	41796870 	cmnmi	r9, r0, ror r8
 10c:	636f6c6c 	cmnvs	pc, #27648	; 0x6c00
 110:	7000632e 	andvc	r6, r0, lr, lsr #6
 114:	00766572 	rsbseq	r6, r6, r2, ror r5
 118:	65657266 	strbvs	r7, [r5, #-614]!	; 0x266
 11c:	7473696c 	ldrbtvc	r6, [r3], #-2412	; 0x96c
 120:	79687000 	stmdbvc	r8!, {ip, sp, lr}^
 124:	6f6c6c41 	svcvs	0x006c6c41
 128:	72665f63 	rsbvc	r5, r6, #396	; 0x18c
 12c:	68006565 	stmdavs	r0, {r0, r2, r5, r6, r8, sl, sp, lr}
 130:	5f706165 	svcpl	0x00706165
 134:	72617473 	rsbvc	r7, r1, #1929379840	; 0x73000000
 138:	656e0074 	strbvs	r0, [lr, #-116]!	; 0x74
 13c:	70007478 	andvc	r7, r0, r8, ror r4
 140:	6c417968 	mcrrvs	9, 6, r7, r1, cr8
 144:	5f636f6c 	svcpl	0x00636f6c
 148:	6f6c6c61 	svcvs	0x006c6c61
 14c:	68700063 	ldmdavs	r0!, {r0, r1, r5, r6}^
 150:	6c6c4179 	stfvse	f4, [ip], #-484	; 0xfffffe1c
 154:	695f636f 	ldmdbvs	pc, {r0, r1, r2, r3, r5, r6, r8, r9, sp, lr}^	; <UNPREDICTABLE>
 158:	0074696e 	rsbseq	r6, r4, lr, ror #18
 15c:	70616568 	rsbvc	r6, r1, r8, ror #10
 160:	6d696c5f 	stclvs	12, cr6, [r9, #-380]!	; 0xfffffe84
 164:	68007469 	stmdavs	r0, {r0, r3, r5, r6, sl, ip, sp, lr}
 168:	5f706165 	svcpl	0x00706165
 16c:	657a6973 	ldrbvs	r6, [sl, #-2419]!	; 0x973
 170:	2e776800 	cdpcs	8, 7, cr6, cr7, cr0, {0}
 174:	656c0063 	strbvs	r0, [ip, #-99]!	; 0x63
 178:	6e6f5f64 	cdpvs	15, 6, cr5, cr15, cr4, {3}
 17c:	74657300 	strbtvc	r7, [r5], #-768	; 0x300
 180:	6369745f 	cmnvs	r9, #1593835520	; 0x5f000000
 184:	6e615f6b 	cdpvs	15, 6, cr5, cr1, cr11, {3}
 188:	6e655f64 	cdpvs	15, 6, cr5, cr5, cr4, {3}
 18c:	656c6261 	strbvs	r6, [ip, #-609]!	; 0x261
 190:	6d69745f 	cfstrdvs	mvd7, [r9, #-380]!	; 0xfffffe84
 194:	69007265 	stmdbvs	r0, {r0, r2, r5, r6, r9, ip, sp, lr}
 198:	5f74696e 	svcpl	0x0074696e
 19c:	6c007768 	stcvs	7, cr7, [r0], {104}	; 0x68
 1a0:	6f5f6465 	svcvs	0x005f6465
 1a4:	70006666 	andvc	r6, r0, r6, ror #12
 1a8:	00636f72 	rsbeq	r6, r3, r2, ror pc
 1ac:	65686373 	strbvs	r6, [r8, #-883]!	; 0x373
 1b0:	00632e64 	rsbeq	r2, r3, r4, ror #28
 1b4:	72617473 	rsbvc	r7, r1, #1929379840	; 0x73000000
 1b8:	63735f74 	cmnvs	r3, #464	; 0x1d0
 1bc:	00646568 	rsbeq	r6, r4, r8, ror #10
 1c0:	5f787463 	svcpl	0x00787463
 1c4:	74697773 	strbtvc	r7, [r9], #-1907	; 0x773
 1c8:	63006863 	movwvs	r6, #2147	; 0x863
 1cc:	74616572 	strbtvc	r6, [r1], #-1394	; 0x572
 1d0:	72705f65 	rsbsvc	r5, r0, #404	; 0x194
 1d4:	7365636f 	cmnvc	r5, #-1140850687	; 0xbc000001
 1d8:	6e690073 	mcrvs	0, 3, r0, cr9, cr3, {3}
 1dc:	635f7469 	cmpvs	pc, #1761607680	; 0x69000000
 1e0:	6e007874 	mcrvs	8, 0, r7, cr0, cr4, {3}
 1e4:	705f7765 	subsvc	r7, pc, r5, ror #14
 1e8:	63006263 	movwvs	r6, #611	; 0x263
 1ec:	735f7874 	cmpvc	pc, #7602176	; 0x740000
 1f0:	63746977 	cmnvs	r4, #1949696	; 0x1dc000
 1f4:	72665f68 	rsbvc	r5, r6, #416	; 0x1a0
 1f8:	695f6d6f 	ldmdbvs	pc, {r0, r1, r2, r3, r5, r6, r8, sl, fp, sp, lr}^	; <UNPREDICTABLE>
 1fc:	65007172 	strvs	r7, [r0, #-370]	; 0x172
 200:	7463656c 	strbtvc	r6, [r3], #-1388	; 0x56c
 204:	61747300 	cmnvs	r4, r0, lsl #6
 208:	635f7472 	cmpvs	pc, #1912602624	; 0x72000000
 20c:	65727275 	ldrbvs	r7, [r2, #-629]!	; 0x275
 210:	705f746e 	subsvc	r7, pc, lr, ror #8
 214:	65636f72 	strbvs	r6, [r3, #-3954]!	; 0xf72
 218:	63007373 	movwvs	r7, #883	; 0x373
 21c:	65746e6f 	ldrbvs	r6, [r4, #-3695]!	; 0xe6f
 220:	73007478 	movwvc	r7, #1144	; 0x478
 224:	6b636174 	blvs	18d87fc <__bss_end+0x18cf390>
 228:	7a69735f 	bvc	1a5cfac <__bss_end+0x1a53b40>
 22c:	65740065 	ldrbvs	r0, [r4, #-101]!	; 0x65
 230:	6e696d72 	mcrvs	13, 3, r6, cr9, cr2, {3}
 234:	5f657461 	svcpl	0x00657461
 238:	636f7270 	cmnvs	pc, #7
 23c:	00737365 	rsbseq	r7, r3, r5, ror #6
 240:	74696e69 	strbtvc	r6, [r9], #-3689	; 0xe69
 244:	6263705f 	rsbvs	r7, r3, #95	; 0x5f
 248:	73797300 	cmnvc	r9, #0
 24c:	6961775f 	stmdbvs	r1!, {r0, r1, r2, r3, r4, r6, r8, r9, sl, ip, sp, lr}^
 250:	6f640074 	svcvs	0x00640074
 254:	43737953 	cmnmi	r3, #1359872	; 0x14c000
 258:	576c6c61 	strbpl	r6, [ip, -r1, ror #24]!
 25c:	00746961 	rsbseq	r6, r4, r1, ror #18
 260:	79536f64 	ldmdbvc	r3, {r2, r5, r6, r8, r9, sl, fp, sp, lr}^
 264:	6c614373 	stclvs	3, cr4, [r1], #-460	; 0xfffffe34
 268:	6265526c 	rsbvs	r5, r5, #-1073741818	; 0xc0000006
 26c:	00746f6f 	rsbseq	r6, r4, pc, ror #30
 270:	5f737973 	svcpl	0x00737973
 274:	6f626572 	svcvs	0x00626572
 278:	5300746f 	movwpl	r7, #1135	; 0x46f
 27c:	61484957 	cmpvs	r8, r7, asr r9
 280:	656c646e 	strbvs	r6, [ip, #-1134]!	; 0x46e
 284:	626e0072 	rsbvs	r0, lr, #114	; 0x72
 288:	6e617551 	mcrvs	5, 3, r7, cr1, cr1, {2}
 28c:	736d7574 	cmnvc	sp, #486539264	; 0x1d000000
 290:	6d756e00 	ldclvs	14, cr6, [r5, #-0]
 294:	43737953 	cmnmi	r3, #1359872	; 0x14c000
 298:	006c6c61 	rsbeq	r6, ip, r1, ror #24
 29c:	63737973 	cmnvs	r3, #1884160	; 0x1cc000
 2a0:	2e6c6c61 	cdpcs	12, 6, cr6, cr12, cr1, {3}
 2a4:	4d760063 	ldclmi	0, cr0, [r6, #-396]!	; 0xfffffe74
 2a8:	415f6d65 	cmpmi	pc, r5, ror #26
 2ac:	636f6c6c 	cmnvs	pc, #27648	; 0x6c00
 2b0:	72756300 	rsbsvc	r6, r5, #0
 2b4:	746e6572 	strbtvc	r6, [lr], #-1394	; 0x572
 2b8:	7269665f 	rsbvc	r6, r9, #99614720	; 0x5f00000
 2bc:	745f7473 	ldrbvc	r7, [pc], #-1139	; 2c4 <_start-0x7d3c>
 2c0:	656c6261 	strbvs	r6, [ip, #-609]!	; 0x261
 2c4:	696e6900 	stmdbvs	lr!, {r8, fp, sp, lr}^
 2c8:	656b5f74 	strbvs	r5, [fp, #-3956]!	; 0xf74
 2cc:	745f6e72 	ldrbvc	r6, [pc], #-3698	; 2d4 <_start-0x7d2c>
 2d0:	736e6172 	cmnvc	lr, #-2147483620	; 0x8000001c
 2d4:	6974616c 	ldmdbvs	r4!, {r2, r3, r5, r6, r8, sp, lr}^
 2d8:	745f6e6f 	ldrbvc	r6, [pc], #-3695	; 2e0 <_start-0x7d20>
 2dc:	656c6261 	strbvs	r6, [ip, #-609]!	; 0x261
 2e0:	77656e00 	strbvc	r6, [r5, -r0, lsl #28]!
 2e4:	7269665f 	rsbvc	r6, r9, #99614720	; 0x5f00000
 2e8:	745f7473 	ldrbvc	r7, [pc], #-1139	; 2f0 <_start-0x7d10>
 2ec:	656c6261 	strbvs	r6, [ip, #-609]!	; 0x261
 2f0:	6e696d00 	cdpvs	13, 6, cr6, cr9, cr0, {0}
 2f4:	61745f69 	cmnvs	r4, r9, ror #30
 2f8:	00656c62 	rsbeq	r6, r5, r2, ror #24
 2fc:	656c6564 	strbvs	r6, [ip, #-1380]!	; 0x564
 300:	665f6574 			; <UNDEFINED> instruction: 0x665f6574
 304:	74737269 	ldrbtvc	r7, [r3], #-617	; 0x269
 308:	6261745f 	rsbvs	r7, r1, #1593835520	; 0x5f000000
 30c:	6e00656c 	cfsh32vs	mvfx6, mvfx0, #60
 310:	735f7765 	cmpvc	pc, #26476544	; 0x1940000
 314:	6e6f6365 	cdpvs	3, 6, cr6, cr15, cr5, {3}
 318:	61745f64 	cmnvs	r4, r4, ror #30
 31c:	00656c62 	rsbeq	r6, r5, r2, ror #24
 320:	666e6f63 	strbtvs	r6, [lr], -r3, ror #30
 324:	72756769 	rsbsvc	r6, r5, #27525120	; 0x1a40000
 328:	6d6d5f65 	stclvs	15, cr5, [sp, #-404]!	; 0xfffffe6c
 32c:	00435f75 	subeq	r5, r3, r5, ror pc
 330:	64646166 	strbtvs	r6, [r4], #-358	; 0x166
 334:	73616c00 	cmnvc	r1, #0
 338:	69765f74 	ldmdbvs	r6!, {r2, r4, r5, r6, r8, r9, sl, fp, ip, lr}^
 33c:	61757472 	cmnvs	r5, r2, ror r4
 340:	64615f6c 	strbtvs	r5, [r1], #-3948	; 0xf6c
 344:	73657264 	cmnvc	r5, #1073741830	; 0x40000006
 348:	72700073 	rsbsvc	r0, r0, #115	; 0x73
 34c:	7365636f 	cmnvc	r5, #-1140850687	; 0xbc000001
 350:	6c665f73 	stclvs	15, cr5, [r6], #-460	; 0xfffffe34
 354:	00736761 	rsbseq	r6, r3, r1, ror #14
 358:	746e6f63 	strbtvc	r6, [lr], #-3939	; 0xf63
 35c:	006c6f72 	rsbeq	r6, ip, r2, ror pc
 360:	6e72656b 	cdpvs	5, 7, cr6, cr2, cr11, {3}
 364:	745f6c65 	ldrbvc	r6, [pc], #-3173	; 36c <_start-0x7c94>
 368:	64615f74 	strbtvs	r5, [r1], #-3956	; 0xf74
 36c:	73657264 	cmnvc	r5, #1073741830	; 0x40000006
 370:	656b0073 	strbvs	r0, [fp, #-115]!	; 0x73
 374:	6c656e72 	stclvs	14, cr6, [r5], #-456	; 0xfffffe38
 378:	616c665f 	cmnvs	ip, pc, asr r6
 37c:	75007367 	strvc	r7, [r0, #-871]	; 0x367
 380:	33746e69 	cmncc	r4, #1680	; 0x690
 384:	65640032 	strbvs	r0, [r4, #-50]!	; 0x32
 388:	6574656c 	ldrbvs	r6, [r4, #-1388]!	; 0x56c
 38c:	6172665f 	cmnvs	r2, pc, asr r6
 390:	6f00656d 	svcvs	0x0000656d
 394:	70756363 	rsbsvc	r6, r5, r3, ror #6
 398:	6f697461 	svcvs	0x00697461
 39c:	61745f6e 	cmnvs	r4, lr, ror #30
 3a0:	00656c62 	rsbeq	r6, r5, r2, ror #24
 3a4:	69766564 	ldmdbvs	r6!, {r2, r5, r6, r8, sl, sp, lr}^
 3a8:	665f6563 	ldrbvs	r6, [pc], -r3, ror #10
 3ac:	7367616c 	cmnvc	r7, #27
 3b0:	6e697500 	cdpvs	5, 6, cr7, cr9, cr0, {0}
 3b4:	745f3874 	ldrbvc	r3, [pc], #-2164	; 3bc <_start-0x7c44>
 3b8:	746f7400 	strbtvc	r7, [pc], #-1024	; 3c0 <_start-0x7c40>
 3bc:	76006c61 	strvc	r6, [r0], -r1, ror #24
 3c0:	2f6d656d 	svccs	0x006d656d
 3c4:	6d656d76 	stclvs	13, cr6, [r5, #-472]!	; 0xfffffe28
 3c8:	6400632e 	strvs	r6, [r0], #-814	; 0x32e
 3cc:	74656c65 	strbtvc	r6, [r5], #-3173	; 0xc65
 3d0:	65735f65 	ldrbvs	r5, [r3, #-3941]!	; 0xf65
 3d4:	646e6f63 	strbtvs	r6, [lr], #-3939	; 0xf63
 3d8:	6261745f 	rsbvs	r7, r1, #1593835520	; 0x5f000000
 3dc:	6e00656c 	cfsh32vs	mvfx6, mvfx0, #60
 3e0:	665f7765 	ldrbvs	r7, [pc], -r5, ror #14
 3e4:	656d6172 	strbvs	r6, [sp, #-370]!	; 0x172
 3e8:	696e6900 	stmdbvs	lr!, {r8, fp, sp, lr}^
 3ec:	6f6e5f74 	svcvs	0x006e5f74
 3f0:	6172745f 	cmnvs	r2, pc, asr r4
 3f4:	616c736e 	cmnvs	ip, lr, ror #6
 3f8:	6e6f6974 	mcrvs	9, 3, r6, cr15, cr4, {3}
 3fc:	6761705f 			; <UNDEFINED> instruction: 0x6761705f
 400:	70007365 	andvc	r7, r0, r5, ror #6
 404:	64615f74 	strbtvs	r5, [r1], #-3956	; 0xf74
 408:	75007264 	strvc	r7, [r0, #-612]	; 0x264
 40c:	38746e69 	ldmdacc	r4!, {r0, r3, r5, r6, r9, sl, fp, sp, lr}^
 410:	646e6900 	strbtvs	r6, [lr], #-2304	; 0x900
 414:	75007865 	strvc	r7, [r0, #-2149]	; 0x865
 418:	33746e69 	cmncc	r4, #1680	; 0x690
 41c:	00745f32 	rsbseq	r5, r4, r2, lsr pc
 420:	6d654d76 	stclvs	13, cr4, [r5, #-472]!	; 0xfffffe28
 424:	6572465f 	ldrbvs	r4, [r2, #-1631]!	; 0x65f
 428:	74730065 	ldrbtvc	r0, [r3], #-101	; 0x65
 42c:	5f747261 	svcpl	0x00747261
 430:	5f756d6d 	svcpl	0x00756d6d
 434:	626e0043 	rsbvs	r0, lr, #67	; 0x43
 438:	65676150 	strbvs	r6, [r7, #-336]!	; 0x150
 43c:	Address 0x000000000000043c is out of bounds.


Disassembly of section .debug_frame:

00000000 <.debug_frame>:
   0:	0000000c 	andeq	r0, r0, ip
   4:	ffffffff 			; <UNDEFINED> instruction: 0xffffffff
   8:	7c020001 	stcvc	0, cr0, [r2], {1}
   c:	000d0c0e 	andeq	r0, sp, lr, lsl #24
  10:	00000010 	andeq	r0, r0, r0, lsl r0
  14:	00000000 	andeq	r0, r0, r0
  18:	000080d0 	ldrdeq	r8, [r0], -r0
  1c:	0000001c 	andeq	r0, r0, ip, lsl r0
  20:	00080e42 	andeq	r0, r8, r2, asr #28
  24:	00000010 	andeq	r0, r0, r0, lsl r0
  28:	00000000 	andeq	r0, r0, r0
  2c:	000080ec 	andeq	r8, r0, ip, ror #1
  30:	0000001c 	andeq	r0, r0, ip, lsl r0
  34:	00080e42 	andeq	r0, r8, r2, asr #28
  38:	00000014 	andeq	r0, r0, r4, lsl r0
  3c:	00000000 	andeq	r0, r0, r0
  40:	00008108 	andeq	r8, r0, r8, lsl #2
  44:	00000038 	andeq	r0, r0, r8, lsr r0
  48:	83080e42 	movwhi	r0, #36418	; 0x8e42
  4c:	00018e02 	andeq	r8, r1, r2, lsl #28
  50:	0000000c 	andeq	r0, r0, ip
  54:	ffffffff 			; <UNDEFINED> instruction: 0xffffffff
  58:	7c020001 	stcvc	0, cr0, [r2], {1}
  5c:	000d0c0e 	andeq	r0, sp, lr, lsl #24
  60:	00000018 	andeq	r0, r0, r8, lsl r0
  64:	00000050 	andeq	r0, r0, r0, asr r0
  68:	00008140 	andeq	r8, r0, r0, asr #2
  6c:	000000b4 	strheq	r0, [r0], -r4
  70:	84080e42 	strhi	r0, [r8], #-3650	; 0xe42
  74:	42018502 	andmi	r8, r1, #8388608	; 0x800000
  78:	0000100e 	andeq	r1, r0, lr
  7c:	00000014 	andeq	r0, r0, r4, lsl r0
  80:	00000050 	andeq	r0, r0, r0, asr r0
  84:	000081f4 	strdeq	r8, [r0], -r4
  88:	00000048 	andeq	r0, r0, r8, asr #32
  8c:	84040e42 	strhi	r0, [r4], #-3650	; 0xe42
  90:	100e4201 	andne	r4, lr, r1, lsl #4
  94:	00000010 	andeq	r0, r0, r0, lsl r0
  98:	00000050 	andeq	r0, r0, r0, asr r0
  9c:	0000823c 	andeq	r8, r0, ip, lsr r2
  a0:	0000003c 	andeq	r0, r0, ip, lsr r0
  a4:	00080e42 	andeq	r0, r8, r2, asr #28
  a8:	0000000c 	andeq	r0, r0, ip
  ac:	ffffffff 			; <UNDEFINED> instruction: 0xffffffff
  b0:	7c020001 	stcvc	0, cr0, [r2], {1}
  b4:	000d0c0e 	andeq	r0, sp, lr, lsl #24
  b8:	00000014 	andeq	r0, r0, r4, lsl r0
  bc:	000000a8 	andeq	r0, r0, r8, lsr #1
  c0:	00008278 	andeq	r8, r0, r8, ror r2
  c4:	0000004c 	andeq	r0, r0, ip, asr #32
  c8:	8e040e42 	cdphi	14, 0, cr0, cr4, cr2, {2}
  cc:	100e4201 	andne	r4, lr, r1, lsl #4
  d0:	00000014 	andeq	r0, r0, r4, lsl r0
  d4:	000000a8 	andeq	r0, r0, r8, lsr #1
  d8:	000082c4 	andeq	r8, r0, r4, asr #5
  dc:	00000018 	andeq	r0, r0, r8, lsl r0
  e0:	83080e42 	movwhi	r0, #36418	; 0x8e42
  e4:	00018e02 	andeq	r8, r1, r2, lsl #28
  e8:	00000014 	andeq	r0, r0, r4, lsl r0
  ec:	000000a8 	andeq	r0, r0, r8, lsr #1
  f0:	000082dc 	ldrdeq	r8, [r0], -ip
  f4:	00000018 	andeq	r0, r0, r8, lsl r0
  f8:	83080e42 	movwhi	r0, #36418	; 0x8e42
  fc:	00018e02 	andeq	r8, r1, r2, lsl #28
 100:	00000014 	andeq	r0, r0, r4, lsl r0
 104:	000000a8 	andeq	r0, r0, r8, lsr #1
 108:	000082f4 	strdeq	r8, [r0], -r4
 10c:	000000c0 	andeq	r0, r0, r0, asr #1
 110:	8e040e42 	cdphi	14, 0, cr0, cr4, cr2, {2}
 114:	100e4201 	andne	r4, lr, r1, lsl #4
 118:	0000000c 	andeq	r0, r0, ip
 11c:	ffffffff 			; <UNDEFINED> instruction: 0xffffffff
 120:	7c020001 	stcvc	0, cr0, [r2], {1}
 124:	000d0c0e 	andeq	r0, sp, lr, lsl #24
 128:	00000014 	andeq	r0, r0, r4, lsl r0
 12c:	00000118 	andeq	r0, r0, r8, lsl r1
 130:	000083b4 			; <UNDEFINED> instruction: 0x000083b4
 134:	00000054 	andeq	r0, r0, r4, asr r0
 138:	8e040e42 	cdphi	14, 0, cr0, cr4, cr2, {2}
 13c:	180e4201 	stmdane	lr, {r0, r9, lr}
 140:	00000014 	andeq	r0, r0, r4, lsl r0
 144:	00000118 	andeq	r0, r0, r8, lsl r1
 148:	00008408 	andeq	r8, r0, r8, lsl #8
 14c:	00000078 	andeq	r0, r0, r8, ror r0
 150:	8e040e42 	cdphi	14, 0, cr0, cr4, cr2, {2}
 154:	200e4201 	andcs	r4, lr, r1, lsl #4
 158:	00000014 	andeq	r0, r0, r4, lsl r0
 15c:	00000118 	andeq	r0, r0, r8, lsl r1
 160:	00008480 	andeq	r8, r0, r0, lsl #9
 164:	000000e8 	andeq	r0, r0, r8, ror #1
 168:	8e040e42 	cdphi	14, 0, cr0, cr4, cr2, {2}
 16c:	200e4201 	andcs	r4, lr, r1, lsl #4
 170:	00000014 	andeq	r0, r0, r4, lsl r0
 174:	00000118 	andeq	r0, r0, r8, lsl r1
 178:	00008568 	andeq	r8, r0, r8, ror #10
 17c:	00000068 	andeq	r0, r0, r8, rrx
 180:	83080e42 	movwhi	r0, #36418	; 0x8e42
 184:	00018e02 	andeq	r8, r1, r2, lsl #28
 188:	00000014 	andeq	r0, r0, r4, lsl r0
 18c:	00000118 	andeq	r0, r0, r8, lsl r1
 190:	000085d0 	ldrdeq	r8, [r0], -r0
 194:	000000f4 	strdeq	r0, [r0], -r4
 198:	8e040e42 	cdphi	14, 0, cr0, cr4, cr2, {2}
 19c:	100e4201 	andne	r4, lr, r1, lsl #4
 1a0:	0000000c 	andeq	r0, r0, ip
 1a4:	00000118 	andeq	r0, r0, r8, lsl r1
 1a8:	000086c4 	andeq	r8, r0, r4, asr #13
 1ac:	00000034 	andeq	r0, r0, r4, lsr r0
 1b0:	00000014 	andeq	r0, r0, r4, lsl r0
 1b4:	00000118 	andeq	r0, r0, r8, lsl r1
 1b8:	000086f8 	strdeq	r8, [r0], -r8	; <UNPREDICTABLE>
 1bc:	00000038 	andeq	r0, r0, r8, lsr r0
 1c0:	83080e42 	movwhi	r0, #36418	; 0x8e42
 1c4:	00018e02 	andeq	r8, r1, r2, lsl #28
 1c8:	00000014 	andeq	r0, r0, r4, lsl r0
 1cc:	00000118 	andeq	r0, r0, r8, lsl r1
 1d0:	00008730 	andeq	r8, r0, r0, lsr r7
 1d4:	00000184 	andeq	r0, r0, r4, lsl #3
 1d8:	8e040e42 	cdphi	14, 0, cr0, cr4, cr2, {2}
 1dc:	100e4201 	andne	r4, lr, r1, lsl #4
 1e0:	0000000c 	andeq	r0, r0, ip
 1e4:	00000118 	andeq	r0, r0, r8, lsl r1
 1e8:	000088b4 			; <UNDEFINED> instruction: 0x000088b4
 1ec:	00000114 	andeq	r0, r0, r4, lsl r1
 1f0:	0000000c 	andeq	r0, r0, ip
 1f4:	ffffffff 			; <UNDEFINED> instruction: 0xffffffff
 1f8:	7c020001 	stcvc	0, cr0, [r2], {1}
 1fc:	000d0c0e 	andeq	r0, sp, lr, lsl #24
 200:	00000014 	andeq	r0, r0, r4, lsl r0
 204:	000001f0 	strdeq	r0, [r0], -r0	; <UNPREDICTABLE>
 208:	000089c8 	andeq	r8, r0, r8, asr #19
 20c:	00000014 	andeq	r0, r0, r4, lsl r0
 210:	8e040e42 	cdphi	14, 0, cr0, cr4, cr2, {2}
 214:	00000001 	andeq	r0, r0, r1
 218:	00000014 	andeq	r0, r0, r4, lsl r0
 21c:	000001f0 	strdeq	r0, [r0], -r0	; <UNPREDICTABLE>
 220:	000089dc 	ldrdeq	r8, [r0], -ip
 224:	00000028 	andeq	r0, r0, r8, lsr #32
 228:	8e040e42 	cdphi	14, 0, cr0, cr4, cr2, {2}
 22c:	100e4201 	andne	r4, lr, r1, lsl #4
 230:	0000000c 	andeq	r0, r0, ip
 234:	000001f0 	strdeq	r0, [r0], -r0	; <UNPREDICTABLE>
 238:	00008a04 	andeq	r8, r0, r4, lsl #20
 23c:	00000004 	andeq	r0, r0, r4
 240:	00000014 	andeq	r0, r0, r4, lsl r0
 244:	000001f0 	strdeq	r0, [r0], -r0	; <UNPREDICTABLE>
 248:	00008a08 	andeq	r8, r0, r8, lsl #20
 24c:	00000030 	andeq	r0, r0, r0, lsr r0
 250:	84040e42 	strhi	r0, [r4], #-3650	; 0xe42
 254:	100e4201 	andne	r4, lr, r1, lsl #4
 258:	00000018 	andeq	r0, r0, r8, lsl r0
 25c:	000001f0 	strdeq	r0, [r0], -r0	; <UNPREDICTABLE>
 260:	00008a38 	andeq	r8, r0, r8, lsr sl
 264:	00000048 	andeq	r0, r0, r8, asr #32
 268:	84080e42 	strhi	r0, [r8], #-3650	; 0xe42
 26c:	42018e02 	andmi	r8, r1, #32
 270:	0000100e 	andeq	r1, r0, lr
 274:	0000000c 	andeq	r0, r0, ip
 278:	ffffffff 			; <UNDEFINED> instruction: 0xffffffff
 27c:	7c020001 	stcvc	0, cr0, [r2], {1}
 280:	000d0c0e 	andeq	r0, sp, lr, lsl #24
 284:	00000014 	andeq	r0, r0, r4, lsl r0
 288:	00000274 	andeq	r0, r0, r4, ror r2
 28c:	00008a80 	andeq	r8, r0, r0, lsl #21
 290:	00000144 	andeq	r0, r0, r4, asr #2
 294:	8e040e42 	cdphi	14, 0, cr0, cr4, cr2, {2}
 298:	100e4201 	andne	r4, lr, r1, lsl #4
 29c:	00000014 	andeq	r0, r0, r4, lsl r0
 2a0:	00000274 	andeq	r0, r0, r4, ror r2
 2a4:	00008bc4 	andeq	r8, r0, r4, asr #23
 2a8:	00000194 	muleq	r0, r4, r1
 2ac:	8e040e42 	cdphi	14, 0, cr0, cr4, cr2, {2}
 2b0:	280e4201 	stmdacs	lr, {r0, r9, lr}
 2b4:	00000010 	andeq	r0, r0, r0, lsl r0
 2b8:	00000274 	andeq	r0, r0, r4, ror r2
 2bc:	00008d58 	andeq	r8, r0, r8, asr sp
 2c0:	00000104 	andeq	r0, r0, r4, lsl #2
 2c4:	00100e42 	andseq	r0, r0, r2, asr #28
 2c8:	00000010 	andeq	r0, r0, r0, lsl r0
 2cc:	00000274 	andeq	r0, r0, r4, ror r2
 2d0:	00008e5c 	andeq	r8, r0, ip, asr lr
 2d4:	000000b0 	strheq	r0, [r0], -r0	; <UNPREDICTABLE>
 2d8:	00100e42 	andseq	r0, r0, r2, asr #28
 2dc:	00000010 	andeq	r0, r0, r0, lsl r0
 2e0:	00000274 	andeq	r0, r0, r4, ror r2
 2e4:	00008f0c 	andeq	r8, r0, ip, lsl #30
 2e8:	00000088 	andeq	r0, r0, r8, lsl #1
 2ec:	00080e42 	andeq	r0, r8, r2, asr #28
 2f0:	00000010 	andeq	r0, r0, r0, lsl r0
 2f4:	00000274 	andeq	r0, r0, r4, ror r2
 2f8:	00008f94 	muleq	r0, r4, pc	; <UNPREDICTABLE>
 2fc:	0000007c 	andeq	r0, r0, ip, ror r0
 300:	00100e42 	andseq	r0, r0, r2, asr #28
 304:	00000014 	andeq	r0, r0, r4, lsl r0
 308:	00000274 	andeq	r0, r0, r4, ror r2
 30c:	00009010 	andeq	r9, r0, r0, lsl r0
 310:	00000030 	andeq	r0, r0, r0, lsr r0
 314:	84040e42 	strhi	r0, [r4], #-3650	; 0xe42
 318:	00000001 	andeq	r0, r0, r1
 31c:	00000014 	andeq	r0, r0, r4, lsl r0
 320:	00000274 	andeq	r0, r0, r4, ror r2
 324:	00009040 	andeq	r9, r0, r0, asr #32
 328:	00000050 	andeq	r0, r0, r0, asr r0
 32c:	84040e42 	strhi	r0, [r4], #-3650	; 0xe42
 330:	00000001 	andeq	r0, r0, r1
 334:	00000010 	andeq	r0, r0, r0, lsl r0
 338:	00000274 	andeq	r0, r0, r4, ror r2
 33c:	00009090 	muleq	r0, r0, r0
 340:	00000088 	andeq	r0, r0, r8, lsl #1
 344:	00080e42 	andeq	r0, r8, r2, asr #28
 348:	00000010 	andeq	r0, r0, r0, lsl r0
 34c:	00000274 	andeq	r0, r0, r4, ror r2
 350:	00009118 	andeq	r9, r0, r8, lsl r1
 354:	00000040 	andeq	r0, r0, r0, asr #32
 358:	00100e42 	andseq	r0, r0, r2, asr #28
 35c:	00000018 	andeq	r0, r0, r8, lsl r0
 360:	00000274 	andeq	r0, r0, r4, ror r2
 364:	00009158 	andeq	r9, r0, r8, asr r1
 368:	00000160 	andeq	r0, r0, r0, ror #2
 36c:	84080e42 	strhi	r0, [r8], #-3650	; 0xe42
 370:	42018e02 	andmi	r8, r1, #32
 374:	0000280e 	andeq	r2, r0, lr, lsl #16
 378:	00000014 	andeq	r0, r0, r4, lsl r0
 37c:	00000274 	andeq	r0, r0, r4, ror r2
 380:	000092b8 			; <UNDEFINED> instruction: 0x000092b8
 384:	00000178 	andeq	r0, r0, r8, ror r1
 388:	8e040e42 	cdphi	14, 0, cr0, cr4, cr2, {2}
 38c:	300e4201 	andcc	r4, lr, r1, lsl #4
