
kernel.elf:     file format elf32-littlearm


Disassembly of section .text:

00008000 <_start>:
    8000:	e59ff018 	ldr	pc, [pc, #24]	; 8020 <reset_handler>
    8004:	e59ff018 	ldr	pc, [pc, #24]	; 8024 <undefined_handler>
    8008:	e59ff018 	ldr	pc, [pc, #24]	; 8028 <swi_handler>
    800c:	e59ff018 	ldr	pc, [pc, #24]	; 802c <prefetch_handler>
    8010:	e59ff018 	ldr	pc, [pc, #24]	; 8030 <data_handler>
    8014:	e59ff018 	ldr	pc, [pc, #24]	; 8034 <unused_handler>
    8018:	e59ff018 	ldr	pc, [pc, #24]	; 8038 <irq_handler>
    801c:	e59ff018 	ldr	pc, [pc, #24]	; 803c <fiq_handler>

00008020 <reset_handler>:
    8020:	00008040 	andeq	r8, r0, r0, asr #32

00008024 <undefined_handler>:
    8024:	00008084 	andeq	r8, r0, r4, lsl #1

00008028 <swi_handler>:
    8028:	000080cc 	andeq	r8, r0, ip, asr #1

0000802c <prefetch_handler>:
    802c:	00008088 	andeq	r8, r0, r8, lsl #1

00008030 <data_handler>:
    8030:	0000808c 	andeq	r8, r0, ip, lsl #1

00008034 <unused_handler>:
    8034:	00008090 	muleq	r0, r0, r0

00008038 <irq_handler>:
    8038:	000080c8 	andeq	r8, r0, r8, asr #1

0000803c <fiq_handler>:
    803c:	00008094 	muleq	r0, r4, r0

00008040 <reset>:
    8040:	e3a00902 	mov	r0, #32768	; 0x8000
    8044:	e3a01000 	mov	r1, #0
    8048:	e8b003fc 	ldm	r0!, {r2, r3, r4, r5, r6, r7, r8, r9}
    804c:	e8a103fc 	stmia	r1!, {r2, r3, r4, r5, r6, r7, r8, r9}
    8050:	e8b003fc 	ldm	r0!, {r2, r3, r4, r5, r6, r7, r8, r9}
    8054:	e8a103fc 	stmia	r1!, {r2, r3, r4, r5, r6, r7, r8, r9}
    8058:	e3a000d1 	mov	r0, #209	; 0xd1
    805c:	e121f000 	msr	CPSR_c, r0
    8060:	e3a0d90e 	mov	sp, #229376	; 0x38000
    8064:	e3a000d2 	mov	r0, #210	; 0xd2
    8068:	e121f000 	msr	CPSR_c, r0
    806c:	e3a0d701 	mov	sp, #262144	; 0x40000
    8070:	e3a000d3 	mov	r0, #211	; 0xd3
    8074:	e121f000 	msr	CPSR_c, r0
    8078:	e3a0d912 	mov	sp, #294912	; 0x48000
    807c:	eb00002a 	bl	812c <kmain>

00008080 <hang>:
    8080:	eafffffe 	b	8080 <hang>

00008084 <undefined>:
    8084:	eafffffe 	b	8084 <undefined>

00008088 <prefetch>:
    8088:	eafffffe 	b	8088 <prefetch>

0000808c <data>:
    808c:	eafffffe 	b	808c <data>

00008090 <unused>:
    8090:	eafffffe 	b	8090 <unused>

00008094 <fiq>:
    8094:	eafffffe 	b	8094 <fiq>

00008098 <PUT32>:
    8098:	e5801000 	str	r1, [r0]
    809c:	e12fff1e 	bx	lr

000080a0 <PUT16>:
    80a0:	e1c010b0 	strh	r1, [r0]
    80a4:	e12fff1e 	bx	lr

000080a8 <PUT8>:
    80a8:	e5c01000 	strb	r1, [r0]
    80ac:	e12fff1e 	bx	lr

000080b0 <GET32>:
    80b0:	e5900000 	ldr	r0, [r0]
    80b4:	e12fff1e 	bx	lr

000080b8 <GETPC>:
    80b8:	e1a0000e 	mov	r0, lr
    80bc:	e12fff1e 	bx	lr

000080c0 <BRANCHTO>:
    80c0:	e12fff10 	bx	r0

000080c4 <dummy>:
    80c4:	e12fff1e 	bx	lr

000080c8 <irq>:
    80c8:	ea00018e 	b	8708 <ctx_switch_from_irq>

000080cc <swi>:
    80cc:	ea00024f 	b	8a10 <SWIHandler>

000080d0 <funcA>:
    80d0:	e24dd008 	sub	sp, sp, #8
    80d4:	e3a03000 	mov	r3, #0
    80d8:	e58d3004 	str	r3, [sp, #4]
    80dc:	ea000000 	b	80e4 <funcA+0x14>
    80e0:	e1a00000 	nop			; (mov r0, r0)
    80e4:	e59d3004 	ldr	r3, [sp, #4]
    80e8:	e2833001 	add	r3, r3, #1
    80ec:	e58d3004 	str	r3, [sp, #4]
    80f0:	e59d2004 	ldr	r2, [sp, #4]
    80f4:	e59f3010 	ldr	r3, [pc, #16]	; 810c <funcA+0x3c>
    80f8:	e1520003 	cmp	r2, r3
    80fc:	dafffff7 	ble	80e0 <funcA+0x10>
    8100:	e3a03000 	mov	r3, #0
    8104:	e58d3004 	str	r3, [sp, #4]
    8108:	eafffff4 	b	80e0 <funcA+0x10>
    810c:	0016e360 	andseq	lr, r6, r0, ror #6

00008110 <funcB>:
    8110:	e24dd008 	sub	sp, sp, #8
    8114:	e3a03001 	mov	r3, #1
    8118:	e58d3004 	str	r3, [sp, #4]
    811c:	e59d3004 	ldr	r3, [sp, #4]
    8120:	e2833002 	add	r3, r3, #2
    8124:	e58d3004 	str	r3, [sp, #4]
    8128:	eafffffb 	b	811c <funcB+0xc>

0000812c <kmain>:
    812c:	e92d4008 	push	{r3, lr}
    8130:	eb00006e 	bl	82f0 <init_hw>
    8134:	eb000269 	bl	8ae0 <init_kern_translation_table>
    8138:	eafffffe 	b	8138 <kmain+0xc>

0000813c <phyAlloc_alloc>:
    813c:	e92d0030 	push	{r4, r5}
    8140:	e24dd008 	sub	sp, sp, #8
    8144:	e58d0004 	str	r0, [sp, #4]
    8148:	e59f3094 	ldr	r3, [pc, #148]	; 81e4 <phyAlloc_alloc+0xa8>
    814c:	e5934000 	ldr	r4, [r3]
    8150:	e59f508c 	ldr	r5, [pc, #140]	; 81e4 <phyAlloc_alloc+0xa8>
    8154:	ea000001 	b	8160 <phyAlloc_alloc+0x24>
    8158:	e1a05004 	mov	r5, r4
    815c:	e5944000 	ldr	r4, [r4]
    8160:	e3540000 	cmp	r4, #0
    8164:	0a000003 	beq	8178 <phyAlloc_alloc+0x3c>
    8168:	e5942004 	ldr	r2, [r4, #4]
    816c:	e59d3004 	ldr	r3, [sp, #4]
    8170:	e1520003 	cmp	r2, r3
    8174:	3afffff7 	bcc	8158 <phyAlloc_alloc+0x1c>
    8178:	e3540000 	cmp	r4, #0
    817c:	1a000011 	bne	81c8 <phyAlloc_alloc+0x8c>
    8180:	e59f3060 	ldr	r3, [pc, #96]	; 81e8 <phyAlloc_alloc+0xac>
    8184:	e5934000 	ldr	r4, [r3]
    8188:	e59f3058 	ldr	r3, [pc, #88]	; 81e8 <phyAlloc_alloc+0xac>
    818c:	e5932000 	ldr	r2, [r3]
    8190:	e59d3004 	ldr	r3, [sp, #4]
    8194:	e2833003 	add	r3, r3, #3
    8198:	e3c33003 	bic	r3, r3, #3
    819c:	e0822003 	add	r2, r2, r3
    81a0:	e59f3040 	ldr	r3, [pc, #64]	; 81e8 <phyAlloc_alloc+0xac>
    81a4:	e5832000 	str	r2, [r3]
    81a8:	e59f3038 	ldr	r3, [pc, #56]	; 81e8 <phyAlloc_alloc+0xac>
    81ac:	e5932000 	ldr	r2, [r3]
    81b0:	e59f3034 	ldr	r3, [pc, #52]	; 81ec <phyAlloc_alloc+0xb0>
    81b4:	e5933000 	ldr	r3, [r3]
    81b8:	e1520003 	cmp	r2, r3
    81bc:	9a000003 	bls	81d0 <phyAlloc_alloc+0x94>
    81c0:	e3a03000 	mov	r3, #0
    81c4:	ea000002 	b	81d4 <phyAlloc_alloc+0x98>
    81c8:	e5943000 	ldr	r3, [r4]
    81cc:	e5853000 	str	r3, [r5]
    81d0:	e1a03004 	mov	r3, r4
    81d4:	e1a00003 	mov	r0, r3
    81d8:	e28dd008 	add	sp, sp, #8
    81dc:	e8bd0030 	pop	{r4, r5}
    81e0:	e12fff1e 	bx	lr
    81e4:	00008b6c 	andeq	r8, r0, ip, ror #22
    81e8:	00008b70 	andeq	r8, r0, r0, ror fp
    81ec:	00008b74 	andeq	r8, r0, r4, ror fp

000081f0 <phyAlloc_free>:
    81f0:	e52d4004 	push	{r4}		; (str r4, [sp, #-4]!)
    81f4:	e24dd00c 	sub	sp, sp, #12
    81f8:	e58d0004 	str	r0, [sp, #4]
    81fc:	e58d1000 	str	r1, [sp]
    8200:	e59d4004 	ldr	r4, [sp, #4]
    8204:	e59d3000 	ldr	r3, [sp]
    8208:	e2833003 	add	r3, r3, #3
    820c:	e3c33003 	bic	r3, r3, #3
    8210:	e5843004 	str	r3, [r4, #4]
    8214:	e59f3018 	ldr	r3, [pc, #24]	; 8234 <phyAlloc_free+0x44>
    8218:	e5933000 	ldr	r3, [r3]
    821c:	e5843000 	str	r3, [r4]
    8220:	e59f300c 	ldr	r3, [pc, #12]	; 8234 <phyAlloc_free+0x44>
    8224:	e5834000 	str	r4, [r3]
    8228:	e28dd00c 	add	sp, sp, #12
    822c:	e8bd0010 	pop	{r4}
    8230:	e12fff1e 	bx	lr
    8234:	00008b6c 	andeq	r8, r0, ip, ror #22

00008238 <phyAlloc_init>:
    8238:	e24dd008 	sub	sp, sp, #8
    823c:	e58d0004 	str	r0, [sp, #4]
    8240:	e58d1000 	str	r1, [sp]
    8244:	e59f3020 	ldr	r3, [pc, #32]	; 826c <phyAlloc_init+0x34>
    8248:	e59d2004 	ldr	r2, [sp, #4]
    824c:	e5832000 	str	r2, [r3]
    8250:	e59d2004 	ldr	r2, [sp, #4]
    8254:	e59d3000 	ldr	r3, [sp]
    8258:	e0822003 	add	r2, r2, r3
    825c:	e59f300c 	ldr	r3, [pc, #12]	; 8270 <phyAlloc_init+0x38>
    8260:	e5832000 	str	r2, [r3]
    8264:	e28dd008 	add	sp, sp, #8
    8268:	e12fff1e 	bx	lr
    826c:	00008b70 	andeq	r8, r0, r0, ror fp
    8270:	00008b74 	andeq	r8, r0, r4, ror fp

00008274 <set_tick_and_enable_timer>:
    8274:	e52de004 	push	{lr}		; (str lr, [sp, #-4]!)
    8278:	e24dd00c 	sub	sp, sp, #12
    827c:	e59f0030 	ldr	r0, [pc, #48]	; 82b4 <set_tick_and_enable_timer+0x40>
    8280:	ebffff8a 	bl	80b0 <GET32>
    8284:	e58d0004 	str	r0, [sp, #4]
    8288:	e59d3004 	ldr	r3, [sp, #4]
    828c:	e2833702 	add	r3, r3, #524288	; 0x80000
    8290:	e58d3004 	str	r3, [sp, #4]
    8294:	e59f001c 	ldr	r0, [pc, #28]	; 82b8 <set_tick_and_enable_timer+0x44>
    8298:	e59d1004 	ldr	r1, [sp, #4]
    829c:	ebffff7d 	bl	8098 <PUT32>
    82a0:	e59f0014 	ldr	r0, [pc, #20]	; 82bc <set_tick_and_enable_timer+0x48>
    82a4:	e3a01002 	mov	r1, #2
    82a8:	ebffff7a 	bl	8098 <PUT32>
    82ac:	e28dd00c 	add	sp, sp, #12
    82b0:	e8bd8000 	pop	{pc}
    82b4:	20003004 	andcs	r3, r0, r4
    82b8:	20003010 	andcs	r3, r0, r0, lsl r0
    82bc:	20003000 	andcs	r3, r0, r0

000082c0 <led_off>:
    82c0:	e92d4008 	push	{r3, lr}
    82c4:	e59f0008 	ldr	r0, [pc, #8]	; 82d4 <led_off+0x14>
    82c8:	e3a01801 	mov	r1, #65536	; 0x10000
    82cc:	ebffff71 	bl	8098 <PUT32>
    82d0:	e8bd8008 	pop	{r3, pc}
    82d4:	2020001c 	eorcs	r0, r0, ip, lsl r0

000082d8 <led_on>:
    82d8:	e92d4008 	push	{r3, lr}
    82dc:	e59f0008 	ldr	r0, [pc, #8]	; 82ec <led_on+0x14>
    82e0:	e3a01801 	mov	r1, #65536	; 0x10000
    82e4:	ebffff6b 	bl	8098 <PUT32>
    82e8:	e8bd8008 	pop	{r3, pc}
    82ec:	20200028 	eorcs	r0, r0, r8, lsr #32

000082f0 <init_hw>:
    82f0:	e52de004 	push	{lr}		; (str lr, [sp, #-4]!)
    82f4:	e24dd00c 	sub	sp, sp, #12
    82f8:	e59f0098 	ldr	r0, [pc, #152]	; 8398 <init_hw+0xa8>
    82fc:	ebffff6b 	bl	80b0 <GET32>
    8300:	e58d0004 	str	r0, [sp, #4]
    8304:	e59d3004 	ldr	r3, [sp, #4]
    8308:	e3c33707 	bic	r3, r3, #1835008	; 0x1c0000
    830c:	e58d3004 	str	r3, [sp, #4]
    8310:	e59d3004 	ldr	r3, [sp, #4]
    8314:	e3833701 	orr	r3, r3, #262144	; 0x40000
    8318:	e58d3004 	str	r3, [sp, #4]
    831c:	e59f0074 	ldr	r0, [pc, #116]	; 8398 <init_hw+0xa8>
    8320:	e59d1004 	ldr	r1, [sp, #4]
    8324:	ebffff5b 	bl	8098 <PUT32>
    8328:	e59f006c 	ldr	r0, [pc, #108]	; 839c <init_hw+0xac>
    832c:	e3a01801 	mov	r1, #65536	; 0x10000
    8330:	ebffff58 	bl	8098 <PUT32>
    8334:	e59f0064 	ldr	r0, [pc, #100]	; 83a0 <init_hw+0xb0>
    8338:	ebffff5c 	bl	80b0 <GET32>
    833c:	e58d0000 	str	r0, [sp]
    8340:	e59d3000 	ldr	r3, [sp]
    8344:	e2833702 	add	r3, r3, #524288	; 0x80000
    8348:	e58d3000 	str	r3, [sp]
    834c:	e59f0050 	ldr	r0, [pc, #80]	; 83a4 <init_hw+0xb4>
    8350:	e59d1000 	ldr	r1, [sp]
    8354:	ebffff4f 	bl	8098 <PUT32>
    8358:	e59f0048 	ldr	r0, [pc, #72]	; 83a8 <init_hw+0xb8>
    835c:	e3a01002 	mov	r1, #2
    8360:	ebffff4c 	bl	8098 <PUT32>
    8364:	e59f0040 	ldr	r0, [pc, #64]	; 83ac <init_hw+0xbc>
    8368:	e3a01002 	mov	r1, #2
    836c:	ebffff49 	bl	8098 <PUT32>
    8370:	e92d0001 	push	{r0}
    8374:	e10f0000 	mrs	r0, CPSR
    8378:	e3800080 	orr	r0, r0, #128	; 0x80
    837c:	e121f000 	msr	CPSR_c, r0
    8380:	e8bd0001 	pop	{r0}
    8384:	e3a00805 	mov	r0, #327680	; 0x50000
    8388:	e3a01a32 	mov	r1, #204800	; 0x32000
    838c:	ebffffa9 	bl	8238 <phyAlloc_init>
    8390:	e28dd00c 	add	sp, sp, #12
    8394:	e8bd8000 	pop	{pc}
    8398:	20200004 	eorcs	r0, r0, r4
    839c:	2020001c 	eorcs	r0, r0, ip, lsl r0
    83a0:	20003004 	andcs	r3, r0, r4
    83a4:	20003010 	andcs	r3, r0, r0, lsl r0
    83a8:	20003000 	andcs	r3, r0, r0
    83ac:	2000b210 	andcs	fp, r0, r0, lsl r2

000083b0 <init_ctx>:
    83b0:	e52de004 	push	{lr}		; (str lr, [sp, #-4]!)
    83b4:	e24dd014 	sub	sp, sp, #20
    83b8:	e58d000c 	str	r0, [sp, #12]
    83bc:	e58d1008 	str	r1, [sp, #8]
    83c0:	e58d2004 	str	r2, [sp, #4]
    83c4:	e59d0004 	ldr	r0, [sp, #4]
    83c8:	ebffff5b 	bl	813c <phyAlloc_alloc>
    83cc:	e1a02000 	mov	r2, r0
    83d0:	e59d300c 	ldr	r3, [sp, #12]
    83d4:	e5832008 	str	r2, [r3, #8]
    83d8:	e59d300c 	ldr	r3, [sp, #12]
    83dc:	e5933008 	ldr	r3, [r3, #8]
    83e0:	e2833e7f 	add	r3, r3, #2032	; 0x7f0
    83e4:	e283300c 	add	r3, r3, #12
    83e8:	e59d200c 	ldr	r2, [sp, #12]
    83ec:	e5823000 	str	r3, [r2]
    83f0:	e59d300c 	ldr	r3, [sp, #12]
    83f4:	e59d2008 	ldr	r2, [sp, #8]
    83f8:	e5832004 	str	r2, [r3, #4]
    83fc:	e28dd014 	add	sp, sp, #20
    8400:	e8bd8000 	pop	{pc}

00008404 <init_pcb>:
    8404:	e52de004 	push	{lr}		; (str lr, [sp, #-4]!)
    8408:	e24dd01c 	sub	sp, sp, #28
    840c:	e58d000c 	str	r0, [sp, #12]
    8410:	e58d1008 	str	r1, [sp, #8]
    8414:	e58d2004 	str	r2, [sp, #4]
    8418:	e58d3000 	str	r3, [sp]
    841c:	e59d300c 	ldr	r3, [sp, #12]
    8420:	e59d2008 	ldr	r2, [sp, #8]
    8424:	e5832008 	str	r2, [r3, #8]
    8428:	e59d300c 	ldr	r3, [sp, #12]
    842c:	e59d2000 	ldr	r2, [sp]
    8430:	e5832004 	str	r2, [r3, #4]
    8434:	e3a0000c 	mov	r0, #12
    8438:	ebffff3f 	bl	813c <phyAlloc_alloc>
    843c:	e58d0014 	str	r0, [sp, #20]
    8440:	e59d0014 	ldr	r0, [sp, #20]
    8444:	e59d1008 	ldr	r1, [sp, #8]
    8448:	e59d2004 	ldr	r2, [sp, #4]
    844c:	ebffffd7 	bl	83b0 <init_ctx>
    8450:	e59d300c 	ldr	r3, [sp, #12]
    8454:	e59d2014 	ldr	r2, [sp, #20]
    8458:	e583200c 	str	r2, [r3, #12]
    845c:	e59d300c 	ldr	r3, [sp, #12]
    8460:	e3a02000 	mov	r2, #0
    8464:	e5832010 	str	r2, [r3, #16]
    8468:	e28dd01c 	add	sp, sp, #28
    846c:	e8bd8000 	pop	{pc}

00008470 <create_process>:
    8470:	e52de004 	push	{lr}		; (str lr, [sp, #-4]!)
    8474:	e24dd01c 	sub	sp, sp, #28
    8478:	e58d000c 	str	r0, [sp, #12]
    847c:	e58d1008 	str	r1, [sp, #8]
    8480:	e58d2004 	str	r2, [sp, #4]
    8484:	e3a00018 	mov	r0, #24
    8488:	ebffff2b 	bl	813c <phyAlloc_alloc>
    848c:	e58d0014 	str	r0, [sp, #20]
    8490:	e59d0014 	ldr	r0, [sp, #20]
    8494:	e59d100c 	ldr	r1, [sp, #12]
    8498:	e59d2004 	ldr	r2, [sp, #4]
    849c:	e59d3008 	ldr	r3, [sp, #8]
    84a0:	ebffffd7 	bl	8404 <init_pcb>
    84a4:	e59f30a8 	ldr	r3, [pc, #168]	; 8554 <create_process+0xe4>
    84a8:	e5933000 	ldr	r3, [r3]
    84ac:	e5933010 	ldr	r3, [r3, #16]
    84b0:	e3530000 	cmp	r3, #0
    84b4:	0a000018 	beq	851c <create_process+0xac>
    84b8:	e59f3094 	ldr	r3, [pc, #148]	; 8554 <create_process+0xe4>
    84bc:	e5933000 	ldr	r3, [r3]
    84c0:	e5933010 	ldr	r3, [r3, #16]
    84c4:	e3530001 	cmp	r3, #1
    84c8:	0a000013 	beq	851c <create_process+0xac>
    84cc:	e59f3080 	ldr	r3, [pc, #128]	; 8554 <create_process+0xe4>
    84d0:	e5933000 	ldr	r3, [r3]
    84d4:	e5933010 	ldr	r3, [r3, #16]
    84d8:	e3530003 	cmp	r3, #3
    84dc:	0a00000e 	beq	851c <create_process+0xac>
    84e0:	e59f306c 	ldr	r3, [pc, #108]	; 8554 <create_process+0xe4>
    84e4:	e5933000 	ldr	r3, [r3]
    84e8:	e5933010 	ldr	r3, [r3, #16]
    84ec:	e3530002 	cmp	r3, #2
    84f0:	0a000009 	beq	851c <create_process+0xac>
    84f4:	e59f3058 	ldr	r3, [pc, #88]	; 8554 <create_process+0xe4>
    84f8:	e59d2014 	ldr	r2, [sp, #20]
    84fc:	e5832000 	str	r2, [r3]
    8500:	e59f304c 	ldr	r3, [pc, #76]	; 8554 <create_process+0xe4>
    8504:	e59d2014 	ldr	r2, [sp, #20]
    8508:	e5832000 	str	r2, [r3]
    850c:	e59f3040 	ldr	r3, [pc, #64]	; 8554 <create_process+0xe4>
    8510:	e59d2014 	ldr	r2, [sp, #20]
    8514:	e5832004 	str	r2, [r3, #4]
    8518:	ea00000b 	b	854c <create_process+0xdc>
    851c:	e59f3030 	ldr	r3, [pc, #48]	; 8554 <create_process+0xe4>
    8520:	e5933004 	ldr	r3, [r3, #4]
    8524:	e59d2014 	ldr	r2, [sp, #20]
    8528:	e5832000 	str	r2, [r3]
    852c:	e59f3020 	ldr	r3, [pc, #32]	; 8554 <create_process+0xe4>
    8530:	e59d2014 	ldr	r2, [sp, #20]
    8534:	e5832004 	str	r2, [r3, #4]
    8538:	e59f3014 	ldr	r3, [pc, #20]	; 8554 <create_process+0xe4>
    853c:	e5933004 	ldr	r3, [r3, #4]
    8540:	e59f200c 	ldr	r2, [pc, #12]	; 8554 <create_process+0xe4>
    8544:	e5922000 	ldr	r2, [r2]
    8548:	e5832000 	str	r2, [r3]
    854c:	e28dd01c 	add	sp, sp, #28
    8550:	e8bd8000 	pop	{pc}
    8554:	00008b84 	andeq	r8, r0, r4, lsl #23

00008558 <start_current_process>:
    8558:	e92d4008 	push	{r3, lr}
    855c:	e92d0001 	push	{r0}
    8560:	e10f0000 	mrs	r0, CPSR
    8564:	e3c00080 	bic	r0, r0, #128	; 0x80
    8568:	e121f000 	msr	CPSR_c, r0
    856c:	e8bd0001 	pop	{r0}
    8570:	ebffff3f 	bl	8274 <set_tick_and_enable_timer>
    8574:	e59f3040 	ldr	r3, [pc, #64]	; 85bc <start_current_process+0x64>
    8578:	e5933000 	ldr	r3, [r3]
    857c:	e3a02002 	mov	r2, #2
    8580:	e5832010 	str	r2, [r3, #16]
    8584:	e59f3030 	ldr	r3, [pc, #48]	; 85bc <start_current_process+0x64>
    8588:	e5933000 	ldr	r3, [r3]
    858c:	e5933008 	ldr	r3, [r3, #8]
    8590:	e12fff33 	blx	r3
    8594:	e92d0001 	push	{r0}
    8598:	e10f0000 	mrs	r0, CPSR
    859c:	e3800080 	orr	r0, r0, #128	; 0x80
    85a0:	e121f000 	msr	CPSR_c, r0
    85a4:	e8bd0001 	pop	{r0}
    85a8:	e59f300c 	ldr	r3, [pc, #12]	; 85bc <start_current_process+0x64>
    85ac:	e5933000 	ldr	r3, [r3]
    85b0:	e3a02003 	mov	r2, #3
    85b4:	e5832010 	str	r2, [r3, #16]
    85b8:	e8bd8008 	pop	{r3, pc}
    85bc:	00008b8c 	andeq	r8, r0, ip, lsl #23

000085c0 <terminate_process>:
    85c0:	e52de004 	push	{lr}		; (str lr, [sp, #-4]!)
    85c4:	e24dd00c 	sub	sp, sp, #12
    85c8:	e59f30e0 	ldr	r3, [pc, #224]	; 86b0 <terminate_process+0xf0>
    85cc:	e5933000 	ldr	r3, [r3]
    85d0:	e58d3004 	str	r3, [sp, #4]
    85d4:	ea00002d 	b	8690 <terminate_process+0xd0>
    85d8:	e59d3004 	ldr	r3, [sp, #4]
    85dc:	e5933000 	ldr	r3, [r3]
    85e0:	e58d3004 	str	r3, [sp, #4]
    85e4:	ea000000 	b	85ec <terminate_process+0x2c>
    85e8:	e1a00000 	nop			; (mov r0, r0)
    85ec:	e59d3004 	ldr	r3, [sp, #4]
    85f0:	e5933000 	ldr	r3, [r3]
    85f4:	e5933010 	ldr	r3, [r3, #16]
    85f8:	e3530003 	cmp	r3, #3
    85fc:	0a000005 	beq	8618 <terminate_process+0x58>
    8600:	e59d3004 	ldr	r3, [sp, #4]
    8604:	e5932000 	ldr	r2, [r3]
    8608:	e59f30a0 	ldr	r3, [pc, #160]	; 86b0 <terminate_process+0xf0>
    860c:	e5933000 	ldr	r3, [r3]
    8610:	e1520003 	cmp	r2, r3
    8614:	1affffef 	bne	85d8 <terminate_process+0x18>
    8618:	e59d3004 	ldr	r3, [sp, #4]
    861c:	e5933000 	ldr	r3, [r3]
    8620:	e5933010 	ldr	r3, [r3, #16]
    8624:	e3530003 	cmp	r3, #3
    8628:	1a000018 	bne	8690 <terminate_process+0xd0>
    862c:	e59d3004 	ldr	r3, [sp, #4]
    8630:	e5933000 	ldr	r3, [r3]
    8634:	e5933000 	ldr	r3, [r3]
    8638:	e58d3000 	str	r3, [sp]
    863c:	e59d3004 	ldr	r3, [sp, #4]
    8640:	e5933000 	ldr	r3, [r3]
    8644:	e593300c 	ldr	r3, [r3, #12]
    8648:	e5933008 	ldr	r3, [r3, #8]
    864c:	e1a00003 	mov	r0, r3
    8650:	e3a01b02 	mov	r1, #2048	; 0x800
    8654:	ebfffee5 	bl	81f0 <phyAlloc_free>
    8658:	e59d3004 	ldr	r3, [sp, #4]
    865c:	e5933000 	ldr	r3, [r3]
    8660:	e593300c 	ldr	r3, [r3, #12]
    8664:	e1a00003 	mov	r0, r3
    8668:	e3a0100c 	mov	r1, #12
    866c:	ebfffedf 	bl	81f0 <phyAlloc_free>
    8670:	e59d3004 	ldr	r3, [sp, #4]
    8674:	e5933000 	ldr	r3, [r3]
    8678:	e1a00003 	mov	r0, r3
    867c:	e3a01018 	mov	r1, #24
    8680:	ebfffeda 	bl	81f0 <phyAlloc_free>
    8684:	e59d3004 	ldr	r3, [sp, #4]
    8688:	e59d2000 	ldr	r2, [sp]
    868c:	e5832000 	str	r2, [r3]
    8690:	e59d3004 	ldr	r3, [sp, #4]
    8694:	e5932000 	ldr	r2, [r3]
    8698:	e59f3010 	ldr	r3, [pc, #16]	; 86b0 <terminate_process+0xf0>
    869c:	e5933000 	ldr	r3, [r3]
    86a0:	e1520003 	cmp	r2, r3
    86a4:	1affffcf 	bne	85e8 <terminate_process+0x28>
    86a8:	e28dd00c 	add	sp, sp, #12
    86ac:	e8bd8000 	pop	{pc}
    86b0:	00008b84 	andeq	r8, r0, r4, lsl #23

000086b4 <elect>:
    86b4:	e59f3010 	ldr	r3, [pc, #16]	; 86cc <elect+0x18>
    86b8:	e5933000 	ldr	r3, [r3]
    86bc:	e5932000 	ldr	r2, [r3]
    86c0:	e59f3004 	ldr	r3, [pc, #4]	; 86cc <elect+0x18>
    86c4:	e5832000 	str	r2, [r3]
    86c8:	e12fff1e 	bx	lr
    86cc:	00008b8c 	andeq	r8, r0, ip, lsl #23

000086d0 <start_sched>:
    86d0:	e92d4008 	push	{r3, lr}
    86d4:	e92d0001 	push	{r0}
    86d8:	e10f0000 	mrs	r0, CPSR
    86dc:	e3c00080 	bic	r0, r0, #128	; 0x80
    86e0:	e121f000 	msr	CPSR_c, r0
    86e4:	e8bd0001 	pop	{r0}
    86e8:	ebfffee1 	bl	8274 <set_tick_and_enable_timer>
    86ec:	e59f300c 	ldr	r3, [pc, #12]	; 8700 <start_sched+0x30>
    86f0:	e5932000 	ldr	r2, [r3]
    86f4:	e59f3008 	ldr	r3, [pc, #8]	; 8704 <start_sched+0x34>
    86f8:	e5832000 	str	r2, [r3]
    86fc:	e8bd8008 	pop	{r3, pc}
    8700:	00008b84 	andeq	r8, r0, r4, lsl #23
    8704:	00008b8c 	andeq	r8, r0, ip, lsl #23

00008708 <ctx_switch_from_irq>:
    8708:	e52de004 	push	{lr}		; (str lr, [sp, #-4]!)
    870c:	e24dd00c 	sub	sp, sp, #12
    8710:	e92d0001 	push	{r0}
    8714:	e10f0000 	mrs	r0, CPSR
    8718:	e3800080 	orr	r0, r0, #128	; 0x80
    871c:	e121f000 	msr	CPSR_c, r0
    8720:	e8bd0001 	pop	{r0}
    8724:	e24ee004 	sub	lr, lr, #4
    8728:	f96d0513 	srsdb	sp!, #19
    872c:	f1020013 	cps	#19
    8730:	e59f3150 	ldr	r3, [pc, #336]	; 8888 <ctx_switch_from_irq+0x180>
    8734:	e5933000 	ldr	r3, [r3]
    8738:	e3530000 	cmp	r3, #0
    873c:	0a000013 	beq	8790 <ctx_switch_from_irq+0x88>
    8740:	e59f3140 	ldr	r3, [pc, #320]	; 8888 <ctx_switch_from_irq+0x180>
    8744:	e5933000 	ldr	r3, [r3]
    8748:	e5933010 	ldr	r3, [r3, #16]
    874c:	e3530000 	cmp	r3, #0
    8750:	0a00000e 	beq	8790 <ctx_switch_from_irq+0x88>
    8754:	e92d1fff 	push	{r0, r1, r2, r3, r4, r5, r6, r7, r8, r9, sl, fp, ip}
    8758:	e59f3128 	ldr	r3, [pc, #296]	; 8888 <ctx_switch_from_irq+0x180>
    875c:	e5933000 	ldr	r3, [r3]
    8760:	e593300c 	ldr	r3, [r3, #12]
    8764:	e1a0200d 	mov	r2, sp
    8768:	e5832000 	str	r2, [r3]
    876c:	e59f3114 	ldr	r3, [pc, #276]	; 8888 <ctx_switch_from_irq+0x180>
    8770:	e5933000 	ldr	r3, [r3]
    8774:	e593300c 	ldr	r3, [r3, #12]
    8778:	e1a0200e 	mov	r2, lr
    877c:	e5832004 	str	r2, [r3, #4]
    8780:	e59f3100 	ldr	r3, [pc, #256]	; 8888 <ctx_switch_from_irq+0x180>
    8784:	e5933000 	ldr	r3, [r3]
    8788:	e3a02001 	mov	r2, #1
    878c:	e5832010 	str	r2, [r3, #16]
    8790:	ebffffc7 	bl	86b4 <elect>
    8794:	e59f30ec 	ldr	r3, [pc, #236]	; 8888 <ctx_switch_from_irq+0x180>
    8798:	e5933000 	ldr	r3, [r3]
    879c:	e5933010 	ldr	r3, [r3, #16]
    87a0:	e3530003 	cmp	r3, #3
    87a4:	1a000014 	bne	87fc <ctx_switch_from_irq+0xf4>
    87a8:	e59f30d8 	ldr	r3, [pc, #216]	; 8888 <ctx_switch_from_irq+0x180>
    87ac:	e5933000 	ldr	r3, [r3]
    87b0:	e58d3004 	str	r3, [sp, #4]
    87b4:	ea000002 	b	87c4 <ctx_switch_from_irq+0xbc>
    87b8:	e59d3004 	ldr	r3, [sp, #4]
    87bc:	e5933000 	ldr	r3, [r3]
    87c0:	e58d3004 	str	r3, [sp, #4]
    87c4:	e59d3004 	ldr	r3, [sp, #4]
    87c8:	e5933000 	ldr	r3, [r3]
    87cc:	e5933010 	ldr	r3, [r3, #16]
    87d0:	e3530003 	cmp	r3, #3
    87d4:	0afffff7 	beq	87b8 <ctx_switch_from_irq+0xb0>
    87d8:	e59d3004 	ldr	r3, [sp, #4]
    87dc:	e5932000 	ldr	r2, [r3]
    87e0:	e59f30a0 	ldr	r3, [pc, #160]	; 8888 <ctx_switch_from_irq+0x180>
    87e4:	e5832000 	str	r2, [r3]
    87e8:	ebffff74 	bl	85c0 <terminate_process>
    87ec:	ea000002 	b	87fc <ctx_switch_from_irq+0xf4>
    87f0:	ebffff58 	bl	8558 <start_current_process>
    87f4:	ebffffae 	bl	86b4 <elect>
    87f8:	ea000000 	b	8800 <ctx_switch_from_irq+0xf8>
    87fc:	e1a00000 	nop			; (mov r0, r0)
    8800:	e59f3080 	ldr	r3, [pc, #128]	; 8888 <ctx_switch_from_irq+0x180>
    8804:	e5933000 	ldr	r3, [r3]
    8808:	e5933010 	ldr	r3, [r3, #16]
    880c:	e3530000 	cmp	r3, #0
    8810:	0afffff6 	beq	87f0 <ctx_switch_from_irq+0xe8>
    8814:	e59f306c 	ldr	r3, [pc, #108]	; 8888 <ctx_switch_from_irq+0x180>
    8818:	e5933000 	ldr	r3, [r3]
    881c:	e5933010 	ldr	r3, [r3, #16]
    8820:	e3530001 	cmp	r3, #1
    8824:	1a000003 	bne	8838 <ctx_switch_from_irq+0x130>
    8828:	e59f3058 	ldr	r3, [pc, #88]	; 8888 <ctx_switch_from_irq+0x180>
    882c:	e5933000 	ldr	r3, [r3]
    8830:	e3a02002 	mov	r2, #2
    8834:	e5832010 	str	r2, [r3, #16]
    8838:	e59f3048 	ldr	r3, [pc, #72]	; 8888 <ctx_switch_from_irq+0x180>
    883c:	e5933000 	ldr	r3, [r3]
    8840:	e593300c 	ldr	r3, [r3, #12]
    8844:	e5933000 	ldr	r3, [r3]
    8848:	e1a0d003 	mov	sp, r3
    884c:	e59f3034 	ldr	r3, [pc, #52]	; 8888 <ctx_switch_from_irq+0x180>
    8850:	e5933000 	ldr	r3, [r3]
    8854:	e593300c 	ldr	r3, [r3, #12]
    8858:	e5933004 	ldr	r3, [r3, #4]
    885c:	e1a0e003 	mov	lr, r3
    8860:	e8bd1fff 	pop	{r0, r1, r2, r3, r4, r5, r6, r7, r8, r9, sl, fp, ip}
    8864:	e92d0001 	push	{r0}
    8868:	e10f0000 	mrs	r0, CPSR
    886c:	e3c00080 	bic	r0, r0, #128	; 0x80
    8870:	e121f000 	msr	CPSR_c, r0
    8874:	e8bd0001 	pop	{r0}
    8878:	ebfffe7d 	bl	8274 <set_tick_and_enable_timer>
    887c:	f8bd0a00 	rfeia	sp!
    8880:	e28dd00c 	add	sp, sp, #12
    8884:	e8bd8000 	pop	{pc}
    8888:	00008b8c 	andeq	r8, r0, ip, lsl #23

0000888c <ctx_switch>:
    888c:	e59f3108 	ldr	r3, [pc, #264]	; 899c <ctx_switch+0x110>
    8890:	e5933000 	ldr	r3, [r3]
    8894:	e5933010 	ldr	r3, [r3, #16]
    8898:	e3530000 	cmp	r3, #0
    889c:	1a000001 	bne	88a8 <ctx_switch+0x1c>
    88a0:	ebffff2c 	bl	8558 <start_current_process>
    88a4:	ea000021 	b	8930 <ctx_switch+0xa4>
    88a8:	e59f30ec 	ldr	r3, [pc, #236]	; 899c <ctx_switch+0x110>
    88ac:	e5933000 	ldr	r3, [r3]
    88b0:	e5933010 	ldr	r3, [r3, #16]
    88b4:	e3530003 	cmp	r3, #3
    88b8:	1a00000c 	bne	88f0 <ctx_switch+0x64>
    88bc:	e59f30d8 	ldr	r3, [pc, #216]	; 899c <ctx_switch+0x110>
    88c0:	e5934000 	ldr	r4, [r3]
    88c4:	ea000000 	b	88cc <ctx_switch+0x40>
    88c8:	e5944000 	ldr	r4, [r4]
    88cc:	e5943000 	ldr	r3, [r4]
    88d0:	e5933010 	ldr	r3, [r3, #16]
    88d4:	e3530003 	cmp	r3, #3
    88d8:	0afffffa 	beq	88c8 <ctx_switch+0x3c>
    88dc:	e5942000 	ldr	r2, [r4]
    88e0:	e59f30b4 	ldr	r3, [pc, #180]	; 899c <ctx_switch+0x110>
    88e4:	e5832000 	str	r2, [r3]
    88e8:	ebffff34 	bl	85c0 <terminate_process>
    88ec:	ea00000f 	b	8930 <ctx_switch+0xa4>
    88f0:	e92d1fff 	push	{r0, r1, r2, r3, r4, r5, r6, r7, r8, r9, sl, fp, ip}
    88f4:	e59f30a0 	ldr	r3, [pc, #160]	; 899c <ctx_switch+0x110>
    88f8:	e5933000 	ldr	r3, [r3]
    88fc:	e593300c 	ldr	r3, [r3, #12]
    8900:	e1a0200d 	mov	r2, sp
    8904:	e5832000 	str	r2, [r3]
    8908:	e59f308c 	ldr	r3, [pc, #140]	; 899c <ctx_switch+0x110>
    890c:	e5933000 	ldr	r3, [r3]
    8910:	e593300c 	ldr	r3, [r3, #12]
    8914:	e1a0200e 	mov	r2, lr
    8918:	e5832004 	str	r2, [r3, #4]
    891c:	e59f3078 	ldr	r3, [pc, #120]	; 899c <ctx_switch+0x110>
    8920:	e5933000 	ldr	r3, [r3]
    8924:	e3a02001 	mov	r2, #1
    8928:	e5832010 	str	r2, [r3, #16]
    892c:	ebffff60 	bl	86b4 <elect>
    8930:	e59f3064 	ldr	r3, [pc, #100]	; 899c <ctx_switch+0x110>
    8934:	e5933000 	ldr	r3, [r3]
    8938:	e5933010 	ldr	r3, [r3, #16]
    893c:	e3530000 	cmp	r3, #0
    8940:	1a000000 	bne	8948 <ctx_switch+0xbc>
    8944:	ebffff03 	bl	8558 <start_current_process>
    8948:	e59f304c 	ldr	r3, [pc, #76]	; 899c <ctx_switch+0x110>
    894c:	e5933000 	ldr	r3, [r3]
    8950:	e5933010 	ldr	r3, [r3, #16]
    8954:	e3530001 	cmp	r3, #1
    8958:	1a00000f 	bne	899c <ctx_switch+0x110>
    895c:	e59f3038 	ldr	r3, [pc, #56]	; 899c <ctx_switch+0x110>
    8960:	e5933000 	ldr	r3, [r3]
    8964:	e3a02002 	mov	r2, #2
    8968:	e5832010 	str	r2, [r3, #16]
    896c:	e59f3028 	ldr	r3, [pc, #40]	; 899c <ctx_switch+0x110>
    8970:	e5933000 	ldr	r3, [r3]
    8974:	e593300c 	ldr	r3, [r3, #12]
    8978:	e5933000 	ldr	r3, [r3]
    897c:	e1a0d003 	mov	sp, r3
    8980:	e59f3014 	ldr	r3, [pc, #20]	; 899c <ctx_switch+0x110>
    8984:	e5933000 	ldr	r3, [r3]
    8988:	e593300c 	ldr	r3, [r3, #12]
    898c:	e5933004 	ldr	r3, [r3, #4]
    8990:	e1a0e003 	mov	lr, r3
    8994:	e8bd1fff 	pop	{r0, r1, r2, r3, r4, r5, r6, r7, r8, r9, sl, fp, ip}
    8998:	e12fff1e 	bx	lr
    899c:	00008b8c 	andeq	r8, r0, ip, lsl #23

000089a0 <sys_reboot>:
    89a0:	e52de004 	push	{lr}		; (str lr, [sp, #-4]!)
    89a4:	e3a03001 	mov	r3, #1
    89a8:	e1a00003 	mov	r0, r3
    89ac:	ef000000 	svc	0x00000000
    89b0:	e49df004 	pop	{pc}		; (ldr pc, [sp], #4)

000089b4 <sys_wait>:
    89b4:	e52de004 	push	{lr}		; (str lr, [sp, #-4]!)
    89b8:	e24dd00c 	sub	sp, sp, #12
    89bc:	e58d0004 	str	r0, [sp, #4]
    89c0:	e3a03001 	mov	r3, #1
    89c4:	e1a00003 	mov	r0, r3
    89c8:	e59d3004 	ldr	r3, [sp, #4]
    89cc:	e1a01003 	mov	r1, r3
    89d0:	ef000000 	svc	0x00000000
    89d4:	e28dd00c 	add	sp, sp, #12
    89d8:	e8bd8000 	pop	{pc}

000089dc <doSysCallReboot>:
    89dc:	e12fff1e 	bx	lr

000089e0 <doSysCallWait>:
    89e0:	e52d4004 	push	{r4}		; (str r4, [sp, #-4]!)
    89e4:	e24dd00c 	sub	sp, sp, #12
    89e8:	e1a04001 	mov	r4, r1
    89ec:	e58d4004 	str	r4, [sp, #4]
    89f0:	e59f3014 	ldr	r3, [pc, #20]	; 8a0c <doSysCallWait+0x2c>
    89f4:	e5933000 	ldr	r3, [r3]
    89f8:	e59d2004 	ldr	r2, [sp, #4]
    89fc:	e5832008 	str	r2, [r3, #8]
    8a00:	e28dd00c 	add	sp, sp, #12
    8a04:	e8bd0010 	pop	{r4}
    8a08:	e12fff1e 	bx	lr
    8a0c:	00008b8c 	andeq	r8, r0, ip, lsl #23

00008a10 <SWIHandler>:
    8a10:	e92d4010 	push	{r4, lr}
    8a14:	e24dd008 	sub	sp, sp, #8
    8a18:	e3a03000 	mov	r3, #0
    8a1c:	e58d3004 	str	r3, [sp, #4]
    8a20:	e1a04000 	mov	r4, r0
    8a24:	e58d4004 	str	r4, [sp, #4]
    8a28:	e59d3004 	ldr	r3, [sp, #4]
    8a2c:	e3530001 	cmp	r3, #1
    8a30:	0a000002 	beq	8a40 <SWIHandler+0x30>
    8a34:	e3530002 	cmp	r3, #2
    8a38:	0a000002 	beq	8a48 <SWIHandler+0x38>
    8a3c:	ea000003 	b	8a50 <SWIHandler+0x40>
    8a40:	ebffffe5 	bl	89dc <doSysCallReboot>
    8a44:	ea000001 	b	8a50 <SWIHandler+0x40>
    8a48:	ebffffe4 	bl	89e0 <doSysCallWait>
    8a4c:	e1a00000 	nop			; (mov r0, r0)
    8a50:	e28dd008 	add	sp, sp, #8
    8a54:	e8bd8010 	pop	{r4, pc}

00008a58 <init_page_no_translation>:
    8a58:	e24dd010 	sub	sp, sp, #16
    8a5c:	e58d0004 	str	r0, [sp, #4]
    8a60:	e58d1000 	str	r1, [sp]
    8a64:	e59d3004 	ldr	r3, [sp, #4]
    8a68:	e1a03a23 	lsr	r3, r3, #20
    8a6c:	e2833912 	add	r3, r3, #294912	; 0x48000
    8a70:	e58d300c 	str	r3, [sp, #12]
    8a74:	e59d300c 	ldr	r3, [sp, #12]
    8a78:	e5933000 	ldr	r3, [r3]
    8a7c:	e2033003 	and	r3, r3, #3
    8a80:	e3530000 	cmp	r3, #0
    8a84:	1a000007 	bne	8aa8 <init_page_no_translation+0x50>
    8a88:	e59d3004 	ldr	r3, [sp, #4]
    8a8c:	e2833e13 	add	r3, r3, #304	; 0x130
    8a90:	e1a03503 	lsl	r3, r3, #10
    8a94:	e3c33b01 	bic	r3, r3, #1024	; 0x400
    8a98:	e3c33001 	bic	r3, r3, #1
    8a9c:	e3832001 	orr	r2, r3, #1
    8aa0:	e59d300c 	ldr	r3, [sp, #12]
    8aa4:	e5832000 	str	r2, [r3]
    8aa8:	e59d3004 	ldr	r3, [sp, #4]
    8aac:	e1a03a23 	lsr	r3, r3, #20
    8ab0:	e2833e13 	add	r3, r3, #304	; 0x130
    8ab4:	e1a03503 	lsl	r3, r3, #10
    8ab8:	e58d3008 	str	r3, [sp, #8]
    8abc:	e59d3004 	ldr	r3, [sp, #4]
    8ac0:	e3c33eff 	bic	r3, r3, #4080	; 0xff0
    8ac4:	e3c3300f 	bic	r3, r3, #15
    8ac8:	e59d2000 	ldr	r2, [sp]
    8acc:	e1832002 	orr	r2, r3, r2
    8ad0:	e59d3008 	ldr	r3, [sp, #8]
    8ad4:	e5832000 	str	r2, [r3]
    8ad8:	e28dd010 	add	sp, sp, #16
    8adc:	e12fff1e 	bx	lr

00008ae0 <init_kern_translation_table>:
    8ae0:	e52de004 	push	{lr}		; (str lr, [sp, #-4]!)
    8ae4:	e24dd00c 	sub	sp, sp, #12
    8ae8:	e59f306c 	ldr	r3, [pc, #108]	; 8b5c <init_kern_translation_table+0x7c>
    8aec:	e3a02912 	mov	r2, #294912	; 0x48000
    8af0:	e5832000 	str	r2, [r3]
    8af4:	e3a03000 	mov	r3, #0
    8af8:	e58d3004 	str	r3, [sp, #4]
    8afc:	ea000009 	b	8b28 <init_kern_translation_table+0x48>
    8b00:	e59f3054 	ldr	r3, [pc, #84]	; 8b5c <init_kern_translation_table+0x7c>
    8b04:	e5932000 	ldr	r2, [r3]
    8b08:	e59d3004 	ldr	r3, [sp, #4]
    8b0c:	e1a03103 	lsl	r3, r3, #2
    8b10:	e0823003 	add	r3, r2, r3
    8b14:	e3a02000 	mov	r2, #0
    8b18:	e5832000 	str	r2, [r3]
    8b1c:	e59d3004 	ldr	r3, [sp, #4]
    8b20:	e2833001 	add	r3, r3, #1
    8b24:	e58d3004 	str	r3, [sp, #4]
    8b28:	e59d2004 	ldr	r2, [sp, #4]
    8b2c:	e59f302c 	ldr	r3, [pc, #44]	; 8b60 <init_kern_translation_table+0x80>
    8b30:	e1520003 	cmp	r2, r3
    8b34:	dafffff1 	ble	8b00 <init_kern_translation_table+0x20>
    8b38:	e59f3024 	ldr	r3, [pc, #36]	; 8b64 <init_kern_translation_table+0x84>
    8b3c:	e5933000 	ldr	r3, [r3]
    8b40:	e59f0020 	ldr	r0, [pc, #32]	; 8b68 <init_kern_translation_table+0x88>
    8b44:	e1a01003 	mov	r1, r3
    8b48:	ebffffc2 	bl	8a58 <init_page_no_translation>
    8b4c:	e3a03000 	mov	r3, #0
    8b50:	e1a00003 	mov	r0, r3
    8b54:	e28dd00c 	add	sp, sp, #12
    8b58:	e8bd8000 	pop	{pc}
    8b5c:	00008b78 	andeq	r8, r0, r8, ror fp
    8b60:	00000fff 	strdeq	r0, [r0], -pc	; <UNPREDICTABLE>
    8b64:	00008b80 	andeq	r8, r0, r0, lsl #23
    8b68:	00000512 	andeq	r0, r0, r2, lsl r5

Disassembly of section .bss:

00008b6c <freelist>:
    8b6c:	00000000 	andeq	r0, r0, r0

00008b70 <top>:
    8b70:	00000000 	andeq	r0, r0, r0

00008b74 <heap_limit>:
    8b74:	00000000 	andeq	r0, r0, r0

00008b78 <first_level_entries>:
    8b78:	00000000 	andeq	r0, r0, r0

00008b7c <device_flags>:
    8b7c:	00000437 	andeq	r0, r0, r7, lsr r4

00008b80 <kernel_flags>:
    8b80:	00000472 	andeq	r0, r0, r2, ror r4

00008b84 <CL>:
	...

00008b8c <current_process>:
    8b8c:	00000000 	andeq	r0, r0, r0

Disassembly of section .ARM.attributes:

00000000 <.ARM.attributes>:
   0:	00003141 	andeq	r3, r0, r1, asr #2
   4:	61656100 	cmnvs	r5, r0, lsl #2
   8:	01006962 	tsteq	r0, r2, ror #18
   c:	00000027 	andeq	r0, r0, r7, lsr #32
  10:	005a3605 	subseq	r3, sl, r5, lsl #12
  14:	01080706 	tsteq	r8, r6, lsl #14
  18:	020a0109 	andeq	r0, sl, #1073741826	; 0x40000002
  1c:	01140412 	tsteq	r4, r2, lsl r4
  20:	03170115 	tsteq	r7, #1073741829	; 0x40000005
  24:	011a0118 	tsteq	sl, r8, lsl r1
  28:	011c031b 	tsteq	ip, fp, lsl r3
  2c:	012c0122 	teqeq	ip, r2, lsr #2
  30:	Address 0x0000000000000030 is out of bounds.


Disassembly of section .comment:

00000000 <.comment>:
   0:	3a434347 	bcc	10d0d24 <__bss_end+0x10c8194>
   4:	4e472820 	cdpmi	8, 4, cr2, cr7, cr0, {1}
   8:	34202955 	strtcc	r2, [r0], #-2389	; 0x955
   c:	312e372e 	teqcc	lr, lr, lsr #14
	...

Disassembly of section .debug_line:

00000000 <.debug_line>:
   0:	00000061 	andeq	r0, r0, r1, rrx
   4:	00200002 	eoreq	r0, r0, r2
   8:	01020000 	mrseq	r0, (UNDEF: 2)
   c:	000d0efb 	strdeq	r0, [sp], -fp
  10:	01010101 	tsteq	r1, r1, lsl #2
  14:	01000000 	mrseq	r0, (UNDEF: 0)
  18:	00010000 	andeq	r0, r1, r0
  1c:	74636576 	strbtvc	r6, [r3], #-1398	; 0x576
  20:	2e73726f 	cdpcs	2, 7, cr7, cr3, cr15, {3}
  24:	00000073 	andeq	r0, r0, r3, ror r0
  28:	05000000 	streq	r0, [r0, #-0]
  2c:	00800002 	addeq	r0, r0, r2
  30:	2f2f1900 	svccs	0x002f1900
  34:	2f2f2f2f 	svccs	0x002f2f2f
  38:	080b032f 	stmdaeq	fp, {r0, r1, r2, r3, r5, r8, r9}
  3c:	2f2f2f20 	svccs	0x002f2f20
  40:	2f322f2f 	svccs	0x00322f2f
  44:	2f2f322f 	svccs	0x002f322f
  48:	302f2f31 	eorcc	r2, pc, r1, lsr pc	; <UNPREDICTABLE>
  4c:	2f2f2f30 	svccs	0x002f2f30
  50:	2f322f2f 	svccs	0x00322f2f
  54:	2f322f32 	svccs	0x00322f32
  58:	2f322f32 	svccs	0x00322f32
  5c:	31303232 	teqcc	r0, r2, lsr r2
  60:	01000202 	tsteq	r0, r2, lsl #4
  64:	00005701 	andeq	r5, r0, r1, lsl #14
  68:	2a000200 	bcs	870 <_start-0x7790>
  6c:	02000000 	andeq	r0, r0, #0
  70:	0d0efb01 	vstreq	d15, [lr, #-4]
  74:	01010100 	mrseq	r0, (UNDEF: 17)
  78:	00000001 	andeq	r0, r0, r1
  7c:	01000001 	tsteq	r0, r1
  80:	72656b00 	rsbvc	r6, r5, #0
  84:	2e6c656e 	cdpcs	5, 6, cr6, cr12, cr14, {3}
  88:	00000063 	andeq	r0, r0, r3, rrx
  8c:	68637300 	stmdavs	r3!, {r8, r9, ip, sp, lr}^
  90:	682e6465 	stmdavs	lr!, {r0, r2, r5, r6, sl, sp, lr}
  94:	00000000 	andeq	r0, r0, r0
  98:	02050000 	andeq	r0, r5, #0
  9c:	000080d0 	ldrdeq	r8, [r0], -r0
  a0:	2a6c2f18 	bcs	1b0bd08 <__bss_end+0x1b03178>
  a4:	4c4c8367 	mcrrmi	3, 6, r8, ip, cr7
  a8:	0402002f 	streq	r0, [r2], #-47	; 0x2f
  ac:	02004c01 	andeq	r4, r0, #256	; 0x100
  b0:	31670104 	cmncc	r7, r4, lsl #2
  b4:	02002f2f 	andeq	r2, r0, #188	; 0xbc
  b8:	02320104 	eorseq	r0, r2, #1
  bc:	01010002 	tsteq	r1, r2
  c0:	00000059 	andeq	r0, r0, r9, asr r0
  c4:	00210002 	eoreq	r0, r1, r2
  c8:	01020000 	mrseq	r0, (UNDEF: 2)
  cc:	000d0efb 	strdeq	r0, [sp], -fp
  d0:	01010101 	tsteq	r1, r1, lsl #2
  d4:	01000000 	mrseq	r0, (UNDEF: 0)
  d8:	00010000 	andeq	r0, r1, r0
  dc:	41796870 	cmnmi	r9, r0, ror r8
  e0:	636f6c6c 	cmnvs	pc, #27648	; 0x6c00
  e4:	0000632e 	andeq	r6, r0, lr, lsr #6
  e8:	00000000 	andeq	r0, r0, r0
  ec:	813c0205 	teqhi	ip, r5, lsl #4
  f0:	0c030000 	stceq	0, cr0, [r3], {-0}
  f4:	2f4c6701 	svccs	0x004c6701
  f8:	02002f2f 	andeq	r2, r0, #188	; 0xbc
  fc:	002c0104 	eoreq	r0, ip, r4, lsl #2
 100:	06020402 	streq	r0, [r2], -r2, lsl #8
 104:	4b86064a 	blmi	fe181a34 <__bss_end+0xfe178ea4>
 108:	4cbbf44b 	cfldrsmi	mvf15, [fp], #300	; 0x12c
 10c:	83da2f4c 	bicshi	r2, sl, #304	; 0x130
 110:	4b678330 	blmi	19e0dd8 <__bss_end+0x19d8248>
 114:	9f676786 	svcls	0x00676786
 118:	01000802 	tsteq	r0, r2, lsl #16
 11c:	00004b01 	andeq	r4, r0, r1, lsl #22
 120:	1b000200 	blne	928 <_start-0x76d8>
 124:	02000000 	andeq	r0, r0, #0
 128:	0d0efb01 	vstreq	d15, [lr, #-4]
 12c:	01010100 	mrseq	r0, (UNDEF: 17)
 130:	00000001 	andeq	r0, r0, r1
 134:	01000001 	tsteq	r0, r1
 138:	2e776800 	cdpcs	8, 7, cr6, cr7, cr0, {0}
 13c:	00000063 	andeq	r0, r0, r3, rrx
 140:	05000000 	streq	r0, [r0, #-0]
 144:	00827402 	addeq	r7, r2, r2, lsl #8
 148:	011c0300 	tsteq	ip, r0, lsl #6
 14c:	6867674b 	stmdavs	r7!, {r0, r1, r3, r6, r8, r9, sl, sp, lr}^
 150:	9e090367 	cdpls	3, 0, cr0, cr9, cr7, {3}
 154:	2f4e672f 	svccs	0x004e672f
 158:	674f5167 	strbvs	r5, [pc, -r7, ror #2]
 15c:	69696767 	stmdbvs	r9!, {r0, r1, r2, r5, r6, r8, r9, sl, sp, lr}^
 160:	696a6767 	stmdbvs	sl!, {r0, r1, r2, r5, r6, r8, r9, sl, sp, lr}^
 164:	0267a068 	rsbeq	sl, r7, #104	; 0x68
 168:	01010010 	tsteq	r1, r0, lsl r0
 16c:	000000da 	ldrdeq	r0, [r0], -sl
 170:	00290002 	eoreq	r0, r9, r2
 174:	01020000 	mrseq	r0, (UNDEF: 2)
 178:	000d0efb 	strdeq	r0, [sp], -fp
 17c:	01010101 	tsteq	r1, r1, lsl #2
 180:	01000000 	mrseq	r0, (UNDEF: 0)
 184:	00010000 	andeq	r0, r1, r0
 188:	65686373 	strbvs	r6, [r8, #-883]!	; 0x373
 18c:	00632e64 	rsbeq	r2, r3, r4, ror #28
 190:	73000000 	movwvc	r0, #0
 194:	64656863 	strbtvs	r6, [r5], #-2147	; 0x863
 198:	0000682e 	andeq	r6, r0, lr, lsr #16
 19c:	00000000 	andeq	r0, r0, r0
 1a0:	83b00205 	movshi	r0, #1342177280	; 0x50000000
 1a4:	9f170000 	svcls	0x00170000
 1a8:	0367bb9f 	cmneq	r7, #162816	; 0x27c00
 1ac:	67bb4a0f 	ldrvs	r4, [fp, pc, lsl #20]!
 1b0:	67836767 	strvs	r6, [r3, r7, ror #14]
 1b4:	67a04c67 	strvs	r4, [r0, r7, ror #24]!
 1b8:	040200a0 	streq	r0, [r2], #-160	; 0xa0
 1bc:	069e0601 	ldreq	r0, [lr], r1, lsl #12
 1c0:	6767c908 	strbvs	ip, [r7, -r8, lsl #18]!
 1c4:	a0678385 	rsbge	r8, r7, r5, lsl #7
 1c8:	2f9f2f68 	svccs	0x009f2f68
 1cc:	839f8383 	orrshi	r8, pc, #201326594	; 0xc000002
 1d0:	30694b4c 	rsbcc	r4, r9, ip, asr #22
 1d4:	04020081 	streq	r0, [r2], #-129	; 0x81
 1d8:	002e0601 	eoreq	r0, lr, r1, lsl #12
 1dc:	9e020402 	cdpls	4, 0, cr0, cr2, cr2, {0}
 1e0:	839fbd06 	orrshi	fp, pc, #384	; 0x180
 1e4:	009fbbd7 			; <UNDEFINED> instruction: 0x009fbbd7
 1e8:	03010402 	movweq	r0, #5122	; 0x1402
 1ec:	18036677 	stmdane	r3, {r0, r1, r2, r4, r5, r6, r9, sl, sp, lr}
 1f0:	9f1368ba 	svcls	0x001368ba
 1f4:	2f9f2f4c 	svccs	0x009f2f4c
 1f8:	9f4b6883 	svcls	0x004b6883
 1fc:	00302f2f 	eorseq	r2, r0, pc, lsr #30
 200:	06010402 	streq	r0, [r1], -r2, lsl #8
 204:	2f9f0682 	svccs	0x009f0682
 208:	2f849f9f 	svccs	0x00849f9f
 20c:	002f679f 	mlaeq	pc, pc, r7, r6	; <UNPREDICTABLE>
 210:	65010402 	strvs	r0, [r1, #-1026]	; 0x402
 214:	303083a1 	eorscc	r8, r0, r1, lsr #7
 218:	0200472f 	andeq	r4, r0, #12320768	; 0xbc0000
 21c:	2e060104 	adfcss	f0, f6, f4
 220:	849fa306 	ldrhi	sl, [pc], #774	; 228 <_start-0x7dd8>
 224:	9f309f9f 	svcls	0x00309f9f
 228:	13692f2f 	cmnne	r9, #188	; 0xbc
 22c:	4b9f4ba0 	blmi	fe7d30b4 <__bss_end+0xfe7ca524>
 230:	0402002f 	streq	r0, [r2], #-47	; 0x2f
 234:	67852d01 	strvs	r2, [r5, r1, lsl #26]
 238:	9f9f2f4c 	svcls	0x009f2f4c
 23c:	30a03084 	adccc	r3, r0, r4, lsl #1
 240:	9f9f839f 	svcls	0x009f839f
 244:	0004022f 	andeq	r0, r4, pc, lsr #4
 248:	00550101 	subseq	r0, r5, r1, lsl #2
 24c:	00020000 	andeq	r0, r2, r0
 250:	0000002b 	andeq	r0, r0, fp, lsr #32
 254:	0efb0102 	cdpeq	1, 15, cr0, cr11, cr2, {0}
 258:	0101000d 	tsteq	r1, sp
 25c:	00000101 	andeq	r0, r0, r1, lsl #2
 260:	00000100 	andeq	r0, r0, r0, lsl #2
 264:	79730001 	ldmdbvc	r3!, {r0}^
 268:	6c616373 	stclvs	3, cr6, [r1], #-460	; 0xfffffe34
 26c:	00632e6c 	rsbeq	r2, r3, ip, ror #28
 270:	73000000 	movwvc	r0, #0
 274:	64656863 	strbtvs	r6, [r5], #-2147	; 0x863
 278:	0000682e 	andeq	r6, r0, lr, lsr #16
 27c:	00000000 	andeq	r0, r0, r0
 280:	89a00205 	stmibhi	r0!, {r0, r2, r9}
 284:	2f150000 	svccs	0x00150000
 288:	67302f4b 	ldrvs	r2, [r0, -fp, asr #30]!
 28c:	4c2f4b4b 	stcmi	11, cr4, [pc], #-300	; 168 <_start-0x7e98>
 290:	4c4c3001 	mcrrmi	0, 0, r3, ip, cr1
 294:	4b4b8483 	blmi	12e14a8 <__bss_end+0x12d8918>
 298:	302fbc4b 	eorcc	fp, pc, fp, asr #24
 29c:	0402302f 	streq	r3, [r2], #-47	; 0x2f
 2a0:	73010100 	movwvc	r0, #4352	; 0x1100
 2a4:	02000000 	andeq	r0, r0, #0
 2a8:	00003f00 	andeq	r3, r0, r0, lsl #30
 2ac:	fb010200 	blx	40ab6 <__bss_end+0x37f26>
 2b0:	01000d0e 	tsteq	r0, lr, lsl #26
 2b4:	00010101 	andeq	r0, r1, r1, lsl #2
 2b8:	00010000 	andeq	r0, r1, r0
 2bc:	6d760100 	ldfvse	f0, [r6, #-0]
 2c0:	76006d65 	strvc	r6, [r0], -r5, ror #26
 2c4:	2f6d656d 	svccs	0x006d656d
 2c8:	00002e2e 	andeq	r2, r0, lr, lsr #28
 2cc:	6d656d76 	stclvs	13, cr6, [r5, #-472]!	; 0xfffffe28
 2d0:	0100632e 	tsteq	r0, lr, lsr #6
 2d4:	79740000 	ldmdbvc	r4!, {}^	; <UNPREDICTABLE>
 2d8:	2e736570 	mrccs	5, 3, r6, cr3, cr0, {3}
 2dc:	00020068 	andeq	r0, r2, r8, rrx
 2e0:	656d7600 	strbvs	r7, [sp, #-1536]!	; 0x600
 2e4:	00682e6d 	rsbeq	r2, r8, sp, ror #28
 2e8:	00000001 	andeq	r0, r0, r1
 2ec:	58020500 	stmdapl	r2, {r8, sl}
 2f0:	0300008a 	movweq	r0, #138	; 0x8a
 2f4:	83670109 	cmnhi	r7, #1073741826	; 0x40000002
 2f8:	d7a0f4a1 	strle	pc, [r0, r1, lsr #9]!
 2fc:	006a4b4d 	rsbeq	r4, sl, sp, asr #22
 300:	68020402 	stmdavs	r2, {r1, sl}
 304:	02040200 	andeq	r0, r4, #0
 308:	040200d4 	streq	r0, [r2], #-212	; 0xd4
 30c:	06660601 	strbteq	r0, [r6], -r1, lsl #12
 310:	a3822403 	orrge	r2, r2, #50331648	; 0x3000000
 314:	000e022f 	andeq	r0, lr, pc, lsr #4
 318:	Address 0x0000000000000318 is out of bounds.


Disassembly of section .debug_info:

00000000 <.debug_info>:
   0:	00000052 	andeq	r0, r0, r2, asr r0
   4:	00000002 	andeq	r0, r0, r2
   8:	01040000 	mrseq	r0, (UNDEF: 4)
   c:	00000000 	andeq	r0, r0, r0
  10:	00008000 	andeq	r8, r0, r0
  14:	000080d0 	ldrdeq	r8, [r0], -r0
  18:	74636576 	strbtvc	r6, [r3], #-1398	; 0x576
  1c:	2e73726f 	cdpcs	2, 7, cr7, cr3, cr15, {3}
  20:	682f0073 	stmdavs	pc!, {r0, r1, r4, r5, r6}	; <UNPREDICTABLE>
  24:	2f656d6f 	svccs	0x00656d6f
  28:	63696e72 	cmnvs	r9, #1824	; 0x720
  2c:	74656c6f 	strbtvc	r6, [r5], #-3183	; 0xc6f
  30:	3134482f 	teqcc	r4, pc, lsr #16
  34:	4f2f3430 	svcmi	0x002f3430
  38:	734f2f53 	movtvc	r2, #65363	; 0xff53
  3c:	7361522d 	cmnvc	r1, #-805306366	; 0xd0000002
  40:	65626570 	strbvs	r6, [r2, #-1392]!	; 0x570
  44:	00797272 	rsbseq	r7, r9, r2, ror r2
  48:	20554e47 	subscs	r4, r5, r7, asr #28
  4c:	32205341 	eorcc	r5, r0, #67108865	; 0x4000001
  50:	0032322e 	eorseq	r3, r2, lr, lsr #4
  54:	01ef8001 	mvneq	r8, r1
  58:	00020000 	andeq	r0, r2, r0
  5c:	00000014 	andeq	r0, r0, r4, lsl r0
  60:	00250104 	eoreq	r0, r5, r4, lsl #2
  64:	d3010000 	movwle	r0, #4096	; 0x1000
  68:	ad000000 	stcge	0, cr0, [r0, #-0]
  6c:	d0000000 	andle	r0, r0, r0
  70:	3c000080 	stccc	0, cr0, [r0], {128}	; 0x80
  74:	65000081 	strvs	r0, [r0, #-129]	; 0x81
  78:	02000000 	andeq	r0, r0, #0
  7c:	000000fd 	strdeq	r0, [r0], -sp
  80:	00300502 	eorseq	r0, r0, r2, lsl #10
  84:	fd030000 	stc2	0, cr0, [r3, #-0]
  88:	04000000 	streq	r0, [r0], #-0
  8c:	00550502 	subseq	r0, r5, r2, lsl #10
  90:	4e040000 	cdpmi	0, 0, cr0, cr4, cr0, {0}
  94:	00005745 	andeq	r5, r0, r5, asr #14
  98:	00003105 	andeq	r3, r0, r5, lsl #2
  9c:	a5050100 	strge	r0, [r5, #-256]	; 0x100
  a0:	02000000 	andeq	r0, r0, #0
  a4:	00006905 	andeq	r6, r0, r5, lsl #18
  a8:	02000300 	andeq	r0, r0, #0
  ac:	0000001d 	andeq	r0, r0, sp, lsl r0
  b0:	00600702 	rsbeq	r0, r0, r2, lsl #14
  b4:	04060000 	streq	r0, [r6], #-0
  b8:	00000066 	andeq	r0, r0, r6, rrx
  bc:	9f080107 	svcls	0x00080107
  c0:	0c000000 	stceq	0, cr0, [r0], {-0}
  c4:	009d0e02 	addseq	r0, sp, r2, lsl #28
  c8:	73090000 	movwvc	r0, #36864	; 0x9000
  cc:	0f020070 	svceq	0x00020070
  d0:	0000009d 	muleq	r0, sp, r0
  d4:	09002302 	stmdbeq	r0, {r1, r8, r9, sp}
  d8:	02006370 	andeq	r6, r0, #-1073741823	; 0xc0000001
  dc:	00009d10 	andeq	r9, r0, r0, lsl sp
  e0:	04230200 	strteq	r0, [r3], #-512	; 0x200
  e4:	0000f50a 	andeq	pc, r0, sl, lsl #10
  e8:	9d110200 	lfmls	f0, 4, [r1, #-0]
  ec:	02000000 	andeq	r0, r0, #0
  f0:	0b000823 	bleq	2184 <_start-0x5e7c>
  f4:	00ef0804 	rsceq	r0, pc, r4, lsl #16
  f8:	021c0000 	andseq	r0, ip, #0
  fc:	00010e14 	andeq	r0, r1, r4, lsl lr
 100:	00140a00 	andseq	r0, r4, r0, lsl #20
 104:	15020000 	strne	r0, [r2, #-0]
 108:	0000010e 	andeq	r0, r0, lr, lsl #2
 10c:	0a002302 	beq	8d1c <__bss_end+0x18c>
 110:	00000000 	andeq	r0, r0, r0
 114:	009d1602 	addseq	r1, sp, r2, lsl #12
 118:	23020000 	movwcs	r0, #8192	; 0x2000
 11c:	00e20a04 	rsceq	r0, r2, r4, lsl #20
 120:	17020000 	strne	r0, [r2, -r0]
 124:	00000114 	andeq	r0, r0, r4, lsl r1
 128:	0a082302 	beq	208d38 <__bss_end+0x2001a8>
 12c:	00000048 	andeq	r0, r0, r8, asr #32
 130:	00551802 	subseq	r1, r5, r2, lsl #16
 134:	23020000 	movwcs	r0, #8192	; 0x2000
 138:	01030a0c 	tsteq	r3, ip, lsl #20
 13c:	19020000 	stmdbne	r2, {}	; <UNPREDICTABLE>
 140:	0000011b 	andeq	r0, r0, fp, lsl r1
 144:	0a102302 	beq	408d54 <__bss_end+0x4001c4>
 148:	000000dc 	ldrdeq	r0, [r0], -ip
 14c:	00251a02 	eoreq	r1, r5, r2, lsl #20
 150:	23020000 	movwcs	r0, #8192	; 0x2000
 154:	00540a14 	subseq	r0, r4, r4, lsl sl
 158:	1b020000 	blne	80160 <__bss_end+0x775d0>
 15c:	0000009d 	muleq	r0, sp, r0
 160:	00182302 	andseq	r2, r8, r2, lsl #6
 164:	009f0406 	addseq	r0, pc, r6, lsl #8
 168:	040c0000 	streq	r0, [ip], #-0
 16c:	0001de07 	andeq	sp, r1, r7, lsl #28
 170:	68040600 	stmdavs	r4, {r9, sl}
 174:	08000000 	stmdaeq	r0, {}	; <UNPREDICTABLE>
 178:	0000005c 	andeq	r0, r0, ip, asr r0
 17c:	4a1e0208 	bmi	7809a4 <__bss_end+0x777e14>
 180:	0a000001 	beq	18c <_start-0x7e74>
 184:	0000003e 	andeq	r0, r0, lr, lsr r0
 188:	010e1f02 	tsteq	lr, r2, lsl #30
 18c:	23020000 	movwcs	r0, #8192	; 0x2000
 190:	00900a00 	addseq	r0, r0, r0, lsl #20
 194:	20020000 	andcs	r0, r2, r0
 198:	0000010e 	andeq	r0, r0, lr, lsl #2
 19c:	00042302 	andeq	r2, r4, r2, lsl #6
 1a0:	004e010d 	subeq	r0, lr, sp, lsl #2
 1a4:	07010000 	streq	r0, [r1, -r0]
 1a8:	000080d0 	ldrdeq	r8, [r0], -r0
 1ac:	00008110 	andeq	r8, r0, r0, lsl r1
 1b0:	00000000 	andeq	r0, r0, r0
 1b4:	00017201 	andeq	r7, r1, r1, lsl #4
 1b8:	00390e00 	eorseq	r0, r9, r0, lsl #28
 1bc:	08010000 	stmdaeq	r1, {}	; <UNPREDICTABLE>
 1c0:	00000172 	andeq	r0, r0, r2, ror r1
 1c4:	007c9102 	rsbseq	r9, ip, r2, lsl #2
 1c8:	6905040f 	stmdbvs	r5, {r0, r1, r2, r3, sl}
 1cc:	0d00746e 	cfstrseq	mvf7, [r0, #-440]	; 0xfffffe48
 1d0:	00009901 	andeq	r9, r0, r1, lsl #18
 1d4:	10100100 	andsne	r0, r0, r0, lsl #2
 1d8:	2c000081 	stccs	0, cr0, [r0], {129}	; 0x81
 1dc:	20000081 	andcs	r0, r0, r1, lsl #1
 1e0:	01000000 	mrseq	r0, (UNDEF: 0)
 1e4:	000001a1 	andeq	r0, r0, r1, lsr #3
 1e8:	00000f0e 	andeq	r0, r0, lr, lsl #30
 1ec:	72110100 	andsvc	r0, r1, #0
 1f0:	02000001 	andeq	r0, r0, #1
 1f4:	10007c91 	mulne	r0, r1, ip
 1f8:	00000901 	andeq	r0, r0, r1, lsl #18
 1fc:	01170100 	tsteq	r7, r0, lsl #2
 200:	00000172 	andeq	r0, r0, r2, ror r1
 204:	0000812c 	andeq	r8, r0, ip, lsr #2
 208:	0000813c 	andeq	r8, r0, ip, lsr r1
 20c:	00000040 	andeq	r0, r0, r0, asr #32
 210:	0001cf01 	andeq	ip, r1, r1, lsl #30
 214:	74011100 	strvc	r1, [r1], #-256	; 0x100
 218:	01000000 	mrseq	r0, (UNDEF: 0)
 21c:	00017219 	andeq	r7, r1, r9, lsl r2
 220:	00120100 	andseq	r0, r2, r0, lsl #2
 224:	026d1300 	rsbeq	r1, sp, #0
 228:	23020000 	movwcs	r0, #8192	; 0x2000
 22c:	0000010e 	andeq	r0, r0, lr, lsl #2
 230:	8c030501 	cfstr32hi	mvfx0, [r3], {1}
 234:	1400008b 	strne	r0, [r0], #-139	; 0x8b
 238:	02004c43 	andeq	r4, r0, #17152	; 0x4300
 23c:	00012124 	andeq	r2, r1, r4, lsr #2
 240:	03050100 	movweq	r0, #20736	; 0x5100
 244:	00008b84 	andeq	r8, r0, r4, lsl #23
 248:	00015e00 	andeq	r5, r1, r0, lsl #28
 24c:	2b000200 	blcs	a54 <_start-0x75ac>
 250:	04000001 	streq	r0, [r0], #-1
 254:	00002501 	andeq	r2, r0, r1, lsl #10
 258:	010b0100 	mrseq	r0, (UNDEF: 27)
 25c:	01320000 	teqeq	r2, r0
 260:	813c0000 	teqhi	ip, r0
 264:	82740000 	rsbshi	r0, r4, #0
 268:	00c00000 	sbceq	r0, r0, r0
 26c:	66020000 	strvs	r0, [r2], -r0
 270:	0108006c 	tsteq	r8, ip, rrx
 274:	00004d03 	andeq	r4, r0, r3, lsl #26
 278:	01780300 	cmneq	r8, r0, lsl #6
 27c:	04010000 	streq	r0, [r1], #-0
 280:	0000004d 	andeq	r0, r0, sp, asr #32
 284:	03002302 	movweq	r2, #770	; 0x302
 288:	00000246 	andeq	r0, r0, r6, asr #4
 28c:	00530501 	subseq	r0, r3, r1, lsl #10
 290:	23020000 	movwcs	r0, #8192	; 0x2000
 294:	04040004 	streq	r0, [r4], #-4
 298:	00000025 	andeq	r0, r0, r5, lsr #32
 29c:	de070405 	cdple	4, 0, cr0, cr7, cr5, {0}
 2a0:	06000001 	streq	r0, [r0], -r1
 2a4:	00017d01 	andeq	r7, r1, r1, lsl #26
 2a8:	010c0100 	mrseq	r0, (UNDEF: 28)
 2ac:	0000009f 	muleq	r0, pc, r0	; <UNPREDICTABLE>
 2b0:	0000813c 	andeq	r8, r0, ip, lsr r1
 2b4:	000081f0 	strdeq	r8, [r0], -r0
 2b8:	00000060 	andeq	r0, r0, r0, rrx
 2bc:	00009f01 	andeq	r9, r0, r1, lsl #30
 2c0:	02460700 	subeq	r0, r6, #0
 2c4:	0c010000 	stceq	0, cr0, [r1], {-0}
 2c8:	00000053 	andeq	r0, r0, r3, asr r0
 2cc:	08749102 	ldmdaeq	r4!, {r1, r8, ip, pc}^
 2d0:	0e010066 	cdpeq	0, 0, cr0, cr1, cr6, {3}
 2d4:	0000004d 	andeq	r0, r0, sp, asr #32
 2d8:	16095401 	strne	r5, [r9], -r1, lsl #8
 2dc:	01000001 	tsteq	r0, r1
 2e0:	0000a10e 	andeq	sl, r0, lr, lsl #2
 2e4:	00550100 	subseq	r0, r5, r0, lsl #2
 2e8:	0404040a 	streq	r0, [r4], #-1034	; 0x40a
 2ec:	0000004d 	andeq	r0, r0, sp, asr #32
 2f0:	0124010b 	teqeq	r4, fp, lsl #2
 2f4:	22010000 	andcs	r0, r1, #0
 2f8:	0081f001 	addeq	pc, r1, r1
 2fc:	00823800 	addeq	r3, r2, r0, lsl #16
 300:	00008c00 	andeq	r8, r0, r0, lsl #24
 304:	00e90100 	rsceq	r0, r9, r0, lsl #2
 308:	700c0000 	andvc	r0, ip, r0
 30c:	01007274 	tsteq	r0, r4, ror r2
 310:	00009f22 	andeq	r9, r0, r2, lsr #30
 314:	74910200 	ldrvc	r0, [r1], #512	; 0x200
 318:	00024607 	andeq	r4, r2, r7, lsl #12
 31c:	53220100 	teqpl	r2, #0
 320:	02000000 	andeq	r0, r0, #0
 324:	66087091 			; <UNDEFINED> instruction: 0x66087091
 328:	4d240100 	stfmis	f0, [r4, #-0]
 32c:	01000000 	mrseq	r0, (UNDEF: 0)
 330:	010b0054 	qaddeq	r0, r4, fp
 334:	0000018c 	andeq	r0, r0, ip, lsl #3
 338:	38012c01 	stmdacc	r1, {r0, sl, fp, sp}
 33c:	74000082 	strvc	r0, [r0], #-130	; 0x82
 340:	b8000082 	stmdalt	r0, {r1, r7}
 344:	01000000 	mrseq	r0, (UNDEF: 0)
 348:	00000120 	andeq	r0, r0, r0, lsr #2
 34c:	00016d07 	andeq	r6, r1, r7, lsl #26
 350:	202c0100 	eorcs	r0, ip, r0, lsl #2
 354:	02000001 	andeq	r0, r0, #1
 358:	9a077c91 	bls	1df5a4 <__bss_end+0x1d6a14>
 35c:	01000001 	tsteq	r0, r1
 360:	0000532c 	andeq	r5, r0, ip, lsr #6
 364:	78910200 	ldmvc	r1, {r9}
 368:	26040400 	strcs	r0, [r4], -r0, lsl #8
 36c:	05000001 	streq	r0, [r0, #-1]
 370:	01ad0801 			; <UNDEFINED> instruction: 0x01ad0801
 374:	74080000 	strvc	r0, [r8], #-0
 378:	0100706f 	tsteq	r0, pc, rrx
 37c:	00012008 	andeq	r2, r1, r8
 380:	70030500 	andvc	r0, r3, r0, lsl #10
 384:	0900008b 	stmdbeq	r0, {r0, r1, r3, r7}
 388:	00000162 	andeq	r0, r0, r2, ror #2
 38c:	01200901 	teqeq	r0, r1, lsl #18
 390:	03050000 	movweq	r0, #20480	; 0x5000
 394:	00008b74 	andeq	r8, r0, r4, ror fp
 398:	00011b0d 	andeq	r1, r1, sp, lsl #22
 39c:	4d060100 	stfmis	f0, [r6, #-0]
 3a0:	01000000 	mrseq	r0, (UNDEF: 0)
 3a4:	8b6c0305 	blhi	1b00fc0 <__bss_end+0x1af8430>
 3a8:	b8000000 	stmdalt	r0, {}	; <UNPREDICTABLE>
 3ac:	02000000 	andeq	r0, r0, #0
 3b0:	0001fb00 	andeq	pc, r1, r0, lsl #22
 3b4:	25010400 	strcs	r0, [r1, #-1024]	; 0x400
 3b8:	01000000 	mrseq	r0, (UNDEF: 0)
 3bc:	000001b2 			; <UNDEFINED> instruction: 0x000001b2
 3c0:	00000132 	andeq	r0, r0, r2, lsr r1
 3c4:	00008274 	andeq	r8, r0, r4, ror r2
 3c8:	000083b0 			; <UNDEFINED> instruction: 0x000083b0
 3cc:	0000011d 	andeq	r0, r0, sp, lsl r1
 3d0:	d8070202 	stmdale	r7, {r1, r9}
 3d4:	02000001 	andeq	r0, r0, #1
 3d8:	01de0704 	bicseq	r0, lr, r4, lsl #14
 3dc:	01020000 	mrseq	r0, (UNDEF: 2)
 3e0:	0001a408 	andeq	sl, r1, r8, lsl #8
 3e4:	b7010300 	strlt	r0, [r1, -r0, lsl #6]
 3e8:	01000001 	tsteq	r0, r1
 3ec:	0082741c 	addeq	r7, r2, ip, lsl r4
 3f0:	0082c000 	addeq	ip, r2, r0
 3f4:	0000d800 	andeq	sp, r0, r0, lsl #16
 3f8:	00610100 	rsbeq	r0, r1, r0, lsl #2
 3fc:	72040000 	andvc	r0, r4, #0
 400:	1e010078 	mcrne	0, 0, r0, cr1, cr8, {3}
 404:	0000002c 	andeq	r0, r0, ip, lsr #32
 408:	00749102 	rsbseq	r9, r4, r2, lsl #2
 40c:	01f30105 	mvnseq	r0, r5, lsl #2
 410:	2b010000 	blcs	40418 <__bss_end+0x37888>
 414:	000082c0 	andeq	r8, r0, r0, asr #5
 418:	000082d8 	ldrdeq	r8, [r0], -r8	; <UNPREDICTABLE>
 41c:	00000104 	andeq	r0, r0, r4, lsl #2
 420:	d1010501 	tstle	r1, r1, lsl #10
 424:	01000001 	tsteq	r0, r1
 428:	0082d831 	addeq	sp, r2, r1, lsr r8
 42c:	0082f000 	addeq	pc, r2, r0
 430:	00012400 	andeq	r2, r1, r0, lsl #8
 434:	01060100 	mrseq	r0, (UNDEF: 22)
 438:	000001eb 	andeq	r0, r0, fp, ror #3
 43c:	82f03a01 	rscshi	r3, r0, #4096	; 0x1000
 440:	83b00000 	movshi	r0, #0
 444:	01440000 	mrseq	r0, (UNDEF: 68)
 448:	04010000 	streq	r0, [r1], #-0
 44c:	01006172 	tsteq	r0, r2, ror r1
 450:	00002c3c 	andeq	r2, r0, ip, lsr ip
 454:	74910200 	ldrvc	r0, [r1], #512	; 0x200
 458:	00787204 	rsbseq	r7, r8, r4, lsl #4
 45c:	002c3d01 	eoreq	r3, ip, r1, lsl #26
 460:	91020000 	mrsls	r0, (UNDEF: 2)
 464:	25000070 	strcs	r0, [r0, #-112]	; 0x70
 468:	02000003 	andeq	r0, r0, #3
 46c:	00026d00 	andeq	r6, r2, r0, lsl #26
 470:	25010400 	strcs	r0, [r1, #-1024]	; 0x400
 474:	01000000 	mrseq	r0, (UNDEF: 0)
 478:	0000020f 	andeq	r0, r0, pc, lsl #4
 47c:	00000132 	andeq	r0, r0, r2, lsr r1
 480:	000083b0 			; <UNDEFINED> instruction: 0x000083b0
 484:	000089a0 	andeq	r8, r0, r0, lsr #19
 488:	0000016c 	andeq	r0, r0, ip, ror #2
 48c:	0000fd02 	andeq	pc, r0, r2, lsl #26
 490:	30050200 	andcc	r0, r5, r0, lsl #4
 494:	03000000 	movweq	r0, #0
 498:	000000fd 	strdeq	r0, [r0], -sp
 49c:	55050204 	strpl	r0, [r5, #-516]	; 0x204
 4a0:	04000000 	streq	r0, [r0], #-0
 4a4:	0057454e 	subseq	r4, r7, lr, asr #10
 4a8:	00310500 	eorseq	r0, r1, r0, lsl #10
 4ac:	05010000 	streq	r0, [r1, #-0]
 4b0:	000000a5 	andeq	r0, r0, r5, lsr #1
 4b4:	00690502 	rsbeq	r0, r9, r2, lsl #10
 4b8:	00030000 	andeq	r0, r3, r0
 4bc:	00001d02 	andeq	r1, r0, r2, lsl #26
 4c0:	60070200 	andvs	r0, r7, r0, lsl #4
 4c4:	06000000 	streq	r0, [r0], -r0
 4c8:	00006604 	andeq	r6, r0, r4, lsl #12
 4cc:	08010700 	stmdaeq	r1, {r8, r9, sl}
 4d0:	0000009f 	muleq	r0, pc, r0	; <UNPREDICTABLE>
 4d4:	9d0e020c 	sfmls	f0, 4, [lr, #-48]	; 0xffffffd0
 4d8:	09000000 	stmdbeq	r0, {}	; <UNPREDICTABLE>
 4dc:	02007073 	andeq	r7, r0, #115	; 0x73
 4e0:	00009d0f 	andeq	r9, r0, pc, lsl #26
 4e4:	00230200 	eoreq	r0, r3, r0, lsl #4
 4e8:	00637009 	rsbeq	r7, r3, r9
 4ec:	009d1002 	addseq	r1, sp, r2
 4f0:	23020000 	movwcs	r0, #8192	; 0x2000
 4f4:	00f50a04 	rscseq	r0, r5, r4, lsl #20
 4f8:	11020000 	mrsne	r0, (UNDEF: 2)
 4fc:	0000009d 	muleq	r0, sp, r0
 500:	00082302 	andeq	r2, r8, r2, lsl #6
 504:	ef08040b 	svc	0x0008040b
 508:	18000000 	stmdane	r0, {}	; <UNPREDICTABLE>
 50c:	01001402 	tsteq	r0, r2, lsl #8
 510:	140a0000 	strne	r0, [sl], #-0
 514:	02000000 	andeq	r0, r0, #0
 518:	00010015 	andeq	r0, r1, r5, lsl r0
 51c:	00230200 	eoreq	r0, r3, r0, lsl #4
 520:	0000000a 	andeq	r0, r0, sl
 524:	9d160200 	lfmls	f0, 4, [r6, #-0]
 528:	02000000 	andeq	r0, r0, #0
 52c:	480a0423 	stmdami	sl, {r0, r1, r5, sl}
 530:	02000000 	andeq	r0, r0, #0
 534:	00005517 	andeq	r5, r0, r7, lsl r5
 538:	08230200 	stmdaeq	r3!, {r9}
 53c:	0001030a 	andeq	r0, r1, sl, lsl #6
 540:	06180200 	ldreq	r0, [r8], -r0, lsl #4
 544:	02000001 	andeq	r0, r0, #1
 548:	dc0a0c23 	stcle	12, cr0, [sl], {35}	; 0x23
 54c:	02000000 	andeq	r0, r0, #0
 550:	00002519 	andeq	r2, r0, r9, lsl r5
 554:	10230200 	eorne	r0, r3, r0, lsl #4
 558:	0000540a 	andeq	r5, r0, sl, lsl #8
 55c:	9d1a0200 	lfmls	f0, 4, [sl, #-0]
 560:	02000000 	andeq	r0, r0, #0
 564:	06001423 	streq	r1, [r0], -r3, lsr #8
 568:	00009f04 	andeq	r9, r0, r4, lsl #30
 56c:	68040600 	stmdavs	r4, {r9, sl}
 570:	08000000 	stmdaeq	r0, {}	; <UNPREDICTABLE>
 574:	0000005c 	andeq	r0, r0, ip, asr r0
 578:	351d0208 	ldrcc	r0, [sp, #-520]	; 0x208
 57c:	0a000001 	beq	588 <_start-0x7a78>
 580:	0000003e 	andeq	r0, r0, lr, lsr r0
 584:	01001e02 	tsteq	r0, r2, lsl #28
 588:	23020000 	movwcs	r0, #8192	; 0x2000
 58c:	00900a00 	addseq	r0, r0, r0, lsl #20
 590:	1f020000 	svcne	0x00020000
 594:	00000100 	andeq	r0, r0, r0, lsl #2
 598:	00042302 	andeq	r2, r4, r2, lsl #6
 59c:	028e010c 	addeq	r0, lr, #3
 5a0:	06010000 	streq	r0, [r1], -r0
 5a4:	0083b001 	addeq	fp, r3, r1
 5a8:	00840400 	addeq	r0, r4, r0, lsl #8
 5ac:	00017000 	andeq	r7, r1, r0
 5b0:	01780100 	cmneq	r8, r0, lsl #2
 5b4:	380d0000 	stmdacc	sp, {}	; <UNPREDICTABLE>
 5b8:	01000002 	tsteq	r0, r2
 5bc:	00010606 	andeq	r0, r1, r6, lsl #12
 5c0:	74910200 	ldrvc	r0, [r1], #512	; 0x200
 5c4:	0100660e 	tsteq	r0, lr, lsl #12
 5c8:	00005506 	andeq	r5, r0, r6, lsl #10
 5cc:	70910200 	addsvc	r0, r1, r0, lsl #4
 5d0:	0002460d 	andeq	r4, r2, sp, lsl #12
 5d4:	78060100 	stmdavc	r6, {r8}
 5d8:	02000001 	andeq	r0, r0, #1
 5dc:	0f006c91 	svceq	0x00006c91
 5e0:	01de0704 	bicseq	r0, lr, r4, lsl #14
 5e4:	010c0000 	mrseq	r0, (UNDEF: 12)
 5e8:	00000285 	andeq	r0, r0, r5, lsl #5
 5ec:	04011901 	streq	r1, [r1], #-2305	; 0x901
 5f0:	70000084 	andvc	r0, r0, r4, lsl #1
 5f4:	9c000084 	stcls	0, cr0, [r0], {132}	; 0x84
 5f8:	01000001 	tsteq	r0, r1
 5fc:	000001de 	ldrdeq	r0, [r0], -lr
 600:	6263700e 	rsbvs	r7, r3, #14
 604:	00190100 	andseq	r0, r9, r0, lsl #2
 608:	02000001 	andeq	r0, r0, #1
 60c:	660e6c91 			; <UNDEFINED> instruction: 0x660e6c91
 610:	55190100 	ldrpl	r0, [r9, #-256]	; 0x100
 614:	02000000 	andeq	r0, r0, #0
 618:	460d6891 			; <UNDEFINED> instruction: 0x460d6891
 61c:	01000002 	tsteq	r0, r2
 620:	00017819 	andeq	r7, r1, r9, lsl r8
 624:	64910200 	ldrvs	r0, [r1], #512	; 0x200
 628:	0000040d 	andeq	r0, r0, sp, lsl #8
 62c:	9d190100 	ldflss	f0, [r9, #-0]
 630:	02000000 	andeq	r0, r0, #0
 634:	63106091 	tstvs	r0, #145	; 0x91
 638:	01007874 	tsteq	r0, r4, ror r8
 63c:	0001061c 	andeq	r0, r1, ip, lsl r6
 640:	74910200 	ldrvc	r0, [r1], #512	; 0x200
 644:	17010c00 	strne	r0, [r1, -r0, lsl #24]
 648:	01000002 	tsteq	r0, r2
 64c:	84700122 	ldrbthi	r0, [r0], #-290	; 0x122
 650:	85580000 	ldrbhi	r0, [r8, #-0]
 654:	01c80000 	biceq	r0, r8, r0
 658:	2f010000 	svccs	0x00010000
 65c:	0e000002 	cdpeq	0, 0, cr0, cr0, cr2, {0}
 660:	22010066 	andcs	r0, r1, #102	; 0x66
 664:	00000055 	andeq	r0, r0, r5, asr r0
 668:	0d6c9102 	stfeqp	f1, [ip, #-8]!
 66c:	00000004 	andeq	r0, r0, r4
 670:	009d2201 	addseq	r2, sp, r1, lsl #4
 674:	91020000 	mrsls	r0, (UNDEF: 2)
 678:	02400d68 	subeq	r0, r0, #6656	; 0x1a00
 67c:	22010000 	andcs	r0, r1, #0
 680:	00000178 	andeq	r0, r0, r8, ror r1
 684:	11649102 	cmnne	r4, r2, lsl #2
 688:	0000027d 	andeq	r0, r0, sp, ror r2
 68c:	01002401 	tsteq	r0, r1, lsl #8
 690:	91020000 	mrsls	r0, (UNDEF: 2)
 694:	01120074 	tsteq	r2, r4, ror r0
 698:	00000267 	andeq	r0, r0, r7, ror #4
 69c:	85583301 	ldrbhi	r3, [r8, #-769]	; 0x301
 6a0:	85c00000 	strbhi	r0, [r0]
 6a4:	01f40000 	mvnseq	r0, r0
 6a8:	13010000 	movwne	r0, #4096	; 0x1000
 6ac:	00022601 	andeq	r2, r2, r1, lsl #12
 6b0:	c03c0100 	eorsgt	r0, ip, r0, lsl #2
 6b4:	b4000085 	strlt	r0, [r0], #-133	; 0x85
 6b8:	14000086 	strne	r0, [r0], #-134	; 0x86
 6bc:	01000002 	tsteq	r0, r2
 6c0:	0000027a 	andeq	r0, r0, sl, ror r2
 6c4:	00025711 	andeq	r5, r2, r1, lsl r7
 6c8:	003d0100 	eorseq	r0, sp, r0, lsl #2
 6cc:	02000001 	andeq	r0, r0, #1
 6d0:	74107491 	ldrvc	r7, [r0], #-1169	; 0x491
 6d4:	0100706d 	tsteq	r0, sp, rrx
 6d8:	0001003e 	andeq	r0, r1, lr, lsr r0
 6dc:	70910200 	addsvc	r0, r1, r0, lsl #4
 6e0:	97011400 	strls	r1, [r1, -r0, lsl #8]
 6e4:	01000002 	tsteq	r0, r2
 6e8:	0086b45a 	addeq	fp, r6, sl, asr r4
 6ec:	0086d000 	addeq	sp, r6, r0
 6f0:	007d0200 	rsbseq	r0, sp, r0, lsl #4
 6f4:	4b011201 	blmi	44f00 <__bss_end+0x3c370>
 6f8:	01000002 	tsteq	r0, r2
 6fc:	0086d05e 	addeq	sp, r6, lr, asr r0
 700:	00870800 	addeq	r0, r7, r0, lsl #16
 704:	00024000 	andeq	r4, r2, r0
 708:	01130100 	tsteq	r3, r0, lsl #2
 70c:	000001fb 	strdeq	r0, [r0], -fp
 710:	87086401 	strhi	r6, [r8, -r1, lsl #8]
 714:	888c0000 	stmhi	ip, {}	; <UNPREDICTABLE>
 718:	02600000 	rsbeq	r0, r0, #0
 71c:	d5010000 	strle	r0, [r1, #-0]
 720:	15000002 	strne	r0, [r0, #-2]
 724:	000087a8 	andeq	r8, r0, r8, lsr #15
 728:	000087ec 	andeq	r8, r0, ip, ror #15
 72c:	706d7410 	rsbvc	r7, sp, r0, lsl r4
 730:	00720100 	rsbseq	r0, r2, r0, lsl #2
 734:	02000001 	andeq	r0, r0, #1
 738:	00007491 	muleq	r0, r1, r4
 73c:	025c0116 	subseq	r0, ip, #-2147483643	; 0x80000005
 740:	8b010000 	blhi	40748 <__bss_end+0x37bb8>
 744:	0000888c 	andeq	r8, r0, ip, lsl #17
 748:	000089a0 	andeq	r8, r0, r0, lsr #19
 74c:	01007d02 	tsteq	r0, r2, lsl #26
 750:	00000305 	andeq	r0, r0, r5, lsl #6
 754:	0088bc15 	addeq	fp, r8, r5, lsl ip
 758:	0088f000 	addeq	pc, r8, r0
 75c:	6d741000 	ldclvs	0, cr1, [r4, #-0]
 760:	90010070 	andls	r0, r1, r0, ror r0
 764:	00000100 	andeq	r0, r0, r0, lsl #2
 768:	00005401 	andeq	r5, r0, r1, lsl #8
 76c:	00026d17 	andeq	r6, r2, r7, lsl sp
 770:	00220200 	eoreq	r0, r2, r0, lsl #4
 774:	01000001 	tsteq	r0, r1
 778:	8b8c0305 	blhi	fe301394 <__bss_end+0xfe2f8804>
 77c:	43180000 	tstmi	r8, #0
 780:	2302004c 	movwcs	r0, #8268	; 0x204c
 784:	0000010c 	andeq	r0, r0, ip, lsl #2
 788:	84030501 	strhi	r0, [r3], #-1281	; 0x501
 78c:	0000008b 	andeq	r0, r0, fp, lsl #1
 790:	00000213 	andeq	r0, r0, r3, lsl r2
 794:	03db0002 	bicseq	r0, fp, #2
 798:	01040000 	mrseq	r0, (UNDEF: 4)
 79c:	00000025 	andeq	r0, r0, r5, lsr #32
 7a0:	0002f001 	andeq	pc, r2, r1
 7a4:	0000ad00 	andeq	sl, r0, r0, lsl #26
 7a8:	0089a000 	addeq	sl, r9, r0
 7ac:	008a5800 	addeq	r5, sl, r0, lsl #16
 7b0:	00024a00 	andeq	r4, r2, r0, lsl #20
 7b4:	00fd0200 	rscseq	r0, sp, r0, lsl #4
 7b8:	05020000 	streq	r0, [r2, #-0]
 7bc:	00000030 	andeq	r0, r0, r0, lsr r0
 7c0:	0000fd03 	andeq	pc, r0, r3, lsl #26
 7c4:	05020400 	streq	r0, [r2, #-1024]	; 0x400
 7c8:	00000055 	andeq	r0, r0, r5, asr r0
 7cc:	57454e04 	strbpl	r4, [r5, -r4, lsl #28]
 7d0:	31050000 	mrscc	r0, (UNDEF: 5)
 7d4:	01000000 	mrseq	r0, (UNDEF: 0)
 7d8:	0000a505 	andeq	sl, r0, r5, lsl #10
 7dc:	69050200 	stmdbvs	r5, {r9}
 7e0:	03000000 	movweq	r0, #0
 7e4:	001d0200 	andseq	r0, sp, r0, lsl #4
 7e8:	07020000 	streq	r0, [r2, -r0]
 7ec:	00000060 	andeq	r0, r0, r0, rrx
 7f0:	00660406 	rsbeq	r0, r6, r6, lsl #8
 7f4:	01070000 	mrseq	r0, (UNDEF: 7)
 7f8:	00009f08 	andeq	r9, r0, r8, lsl #30
 7fc:	0e020c00 	cdpeq	12, 0, cr0, cr2, cr0, {0}
 800:	0000009d 	muleq	r0, sp, r0
 804:	00707309 	rsbseq	r7, r0, r9, lsl #6
 808:	009d0f02 	addseq	r0, sp, r2, lsl #30
 80c:	23020000 	movwcs	r0, #8192	; 0x2000
 810:	63700900 	cmnvs	r0, #0
 814:	9d100200 	lfmls	f0, 4, [r0, #-0]
 818:	02000000 	andeq	r0, r0, #0
 81c:	f50a0423 			; <UNDEFINED> instruction: 0xf50a0423
 820:	02000000 	andeq	r0, r0, #0
 824:	00009d11 	andeq	r9, r0, r1, lsl sp
 828:	08230200 	stmdaeq	r3!, {r9}
 82c:	08040b00 	stmdaeq	r4, {r8, r9, fp}
 830:	000000ef 	andeq	r0, r0, pc, ror #1
 834:	0e14021c 	mrceq	2, 0, r0, cr4, cr12, {0}
 838:	0a000001 	beq	844 <_start-0x77bc>
 83c:	00000014 	andeq	r0, r0, r4, lsl r0
 840:	010e1502 	tsteq	lr, r2, lsl #10
 844:	23020000 	movwcs	r0, #8192	; 0x2000
 848:	00000a00 	andeq	r0, r0, r0, lsl #20
 84c:	16020000 	strne	r0, [r2], -r0
 850:	0000009d 	muleq	r0, sp, r0
 854:	0a042302 	beq	109464 <__bss_end+0x1008d4>
 858:	000000e2 	andeq	r0, r0, r2, ror #1
 85c:	01141702 	tsteq	r4, r2, lsl #14
 860:	23020000 	movwcs	r0, #8192	; 0x2000
 864:	00480a08 	subeq	r0, r8, r8, lsl #20
 868:	18020000 	stmdane	r2, {}	; <UNPREDICTABLE>
 86c:	00000055 	andeq	r0, r0, r5, asr r0
 870:	0a0c2302 	beq	309480 <__bss_end+0x3008f0>
 874:	00000103 	andeq	r0, r0, r3, lsl #2
 878:	011b1902 	tsteq	fp, r2, lsl #18
 87c:	23020000 	movwcs	r0, #8192	; 0x2000
 880:	00dc0a10 	sbcseq	r0, ip, r0, lsl sl
 884:	1a020000 	bne	8088c <__bss_end+0x77cfc>
 888:	00000025 	andeq	r0, r0, r5, lsr #32
 88c:	0a142302 	beq	50949c <__bss_end+0x50090c>
 890:	00000054 	andeq	r0, r0, r4, asr r0
 894:	009d1b02 	addseq	r1, sp, r2, lsl #22
 898:	23020000 	movwcs	r0, #8192	; 0x2000
 89c:	04060018 	streq	r0, [r6], #-24
 8a0:	0000009f 	muleq	r0, pc, r0	; <UNPREDICTABLE>
 8a4:	de07040c 	cdple	4, 0, cr0, cr7, cr12, {0}
 8a8:	06000001 	streq	r0, [r0], -r1
 8ac:	00006804 	andeq	r6, r0, r4, lsl #16
 8b0:	005c0800 	subseq	r0, ip, r0, lsl #16
 8b4:	02080000 	andeq	r0, r8, #0
 8b8:	00014a1e 	andeq	r4, r1, lr, lsl sl
 8bc:	003e0a00 	eorseq	r0, lr, r0, lsl #20
 8c0:	1f020000 	svcne	0x00020000
 8c4:	0000010e 	andeq	r0, r0, lr, lsl #2
 8c8:	0a002302 	beq	94d8 <__bss_end+0x948>
 8cc:	00000090 	muleq	r0, r0, r0
 8d0:	010e2002 	tsteq	lr, r2
 8d4:	23020000 	movwcs	r0, #8192	; 0x2000
 8d8:	010d0004 	tsteq	sp, r4
 8dc:	000002c4 	andeq	r0, r0, r4, asr #5
 8e0:	89a00401 	stmibhi	r0!, {r0, sl}
 8e4:	89b40000 	ldmibhi	r4!, {}	; <UNPREDICTABLE>
 8e8:	028c0000 	addeq	r0, ip, #0
 8ec:	0e010000 	cdpeq	0, 0, cr0, cr1, cr0, {0}
 8f0:	00029d01 	andeq	r9, r2, r1, lsl #26
 8f4:	01090100 	mrseq	r0, (UNDEF: 25)
 8f8:	000089b4 			; <UNDEFINED> instruction: 0x000089b4
 8fc:	000089dc 	ldrdeq	r8, [r0], -ip
 900:	000002ac 	andeq	r0, r0, ip, lsr #5
 904:	00018801 	andeq	r8, r1, r1, lsl #16
 908:	02da0f00 	sbcseq	r0, sl, #0
 90c:	09010000 	stmdbeq	r1, {}	; <UNPREDICTABLE>
 910:	00000114 	andeq	r0, r0, r4, lsl r1
 914:	00749102 	rsbseq	r9, r4, r2, lsl #2
 918:	02b40110 	adcseq	r0, r4, #4
 91c:	0f010000 	svceq	0x00010000
 920:	000089dc 	ldrdeq	r8, [r0], -ip
 924:	000089e0 	andeq	r8, r0, r0, ror #19
 928:	01007d02 	tsteq	r0, r2, lsl #26
 92c:	02a60111 	adceq	r0, r6, #1073741828	; 0x40000004
 930:	11010000 	mrsne	r0, (UNDEF: 1)
 934:	000089e0 	andeq	r8, r0, r0, ror #19
 938:	00008a10 	andeq	r8, r0, r0, lsl sl
 93c:	000002d8 	ldrdeq	r0, [r0], -r8
 940:	0001c401 	andeq	ip, r1, r1, lsl #8
 944:	02da1200 	sbcseq	r1, sl, #0
 948:	12010000 	andne	r0, r1, #0
 94c:	00000114 	andeq	r0, r0, r4, lsl r1
 950:	00749102 	rsbseq	r9, r4, r2, lsl #2
 954:	02cf0113 	sbceq	r0, pc, #-1073741820	; 0xc0000004
 958:	18010000 	stmdane	r1, {}	; <UNPREDICTABLE>
 95c:	00008a10 	andeq	r8, r0, r0, lsl sl
 960:	00008a58 	andeq	r8, r0, r8, asr sl
 964:	00000304 	andeq	r0, r0, r4, lsl #6
 968:	0001ec01 	andeq	lr, r1, r1, lsl #24
 96c:	02e51200 	rsceq	r1, r5, #0
 970:	19010000 	stmdbne	r1, {}	; <UNPREDICTABLE>
 974:	000001ec 	andeq	r0, r0, ip, ror #3
 978:	00749102 	rsbseq	r9, r4, r2, lsl #2
 97c:	69050414 	stmdbvs	r5, {r2, r4, sl}
 980:	1500746e 	strne	r7, [r0, #-1134]	; 0x46e
 984:	0000026d 	andeq	r0, r0, sp, ror #4
 988:	010e2302 	tsteq	lr, r2, lsl #6
 98c:	05010000 	streq	r0, [r1, #-0]
 990:	008b8c03 	addeq	r8, fp, r3, lsl #24
 994:	4c431600 	mcrrmi	6, 0, r1, r3, cr0
 998:	21240200 	teqcs	r4, r0, lsl #4
 99c:	01000001 	tsteq	r0, r1
 9a0:	8b840305 	blhi	fe1015bc <__bss_end+0xfe0f8a2c>
 9a4:	0a000000 	beq	9ac <_start-0x7654>
 9a8:	02000001 	andeq	r0, r0, #1
 9ac:	00052d00 	andeq	r2, r5, r0, lsl #26
 9b0:	25010400 	strcs	r0, [r1, #-1024]	; 0x400
 9b4:	01000000 	mrseq	r0, (UNDEF: 0)
 9b8:	00000389 	andeq	r0, r0, r9, lsl #7
 9bc:	000000ad 	andeq	r0, r0, sp, lsr #1
 9c0:	00008a58 	andeq	r8, r0, r8, asr sl
 9c4:	00008b6c 	andeq	r8, r0, ip, ror #22
 9c8:	000002a3 	andeq	r0, r0, r3, lsr #5
 9cc:	d8070202 	stmdale	r7, {r1, r9}
 9d0:	03000001 	movweq	r0, #1
 9d4:	000002fa 	strdeq	r0, [r0], -sl
 9d8:	00370502 	eorseq	r0, r7, r2, lsl #10
 9dc:	04020000 	streq	r0, [r2], #-0
 9e0:	0001de07 	andeq	sp, r1, r7, lsl #28
 9e4:	08010200 	stmdaeq	r1, {r9}
 9e8:	000001a4 	andeq	r0, r0, r4, lsr #3
 9ec:	00033903 	andeq	r3, r3, r3, lsl #18
 9f0:	2c1c0300 	ldccs	3, cr0, [ip], {-0}
 9f4:	04000000 	streq	r0, [r0], #-0
 9f8:	00000370 	andeq	r0, r0, r0, ror r3
 9fc:	58010901 	stmdapl	r1, {r0, r8, fp}
 a00:	e000008a 	and	r0, r0, sl, lsl #1
 a04:	3000008a 	andcc	r0, r0, sl, lsl #1
 a08:	01000003 	tsteq	r0, r3
 a0c:	000000a2 	andeq	r0, r0, r2, lsr #1
 a10:	00005405 	andeq	r5, r0, r5, lsl #8
 a14:	45090100 	strmi	r0, [r9, #-256]	; 0x100
 a18:	02000000 	andeq	r0, r0, #0
 a1c:	42057491 	andmi	r7, r5, #-1862270976	; 0x91000000
 a20:	01000003 	tsteq	r0, r3
 a24:	00004509 	andeq	r4, r0, r9, lsl #10
 a28:	70910200 	addsvc	r0, r1, r0, lsl #4
 a2c:	00030106 	andeq	r0, r3, r6, lsl #2
 a30:	a20b0100 	andge	r0, fp, #0
 a34:	02000000 	andeq	r0, r0, #0
 a38:	4b067c91 	blmi	19fc84 <__bss_end+0x1970f4>
 a3c:	01000003 	tsteq	r0, r3
 a40:	0000a211 	andeq	sl, r0, r1, lsl r2
 a44:	78910200 	ldmvc	r1, {r9}
 a48:	45040700 	strmi	r0, [r4, #-1792]	; 0x700
 a4c:	08000000 	stmdaeq	r0, {}	; <UNPREDICTABLE>
 a50:	00007401 	andeq	r7, r0, r1, lsl #8
 a54:	01160100 	tsteq	r6, r0, lsl #2
 a58:	000000d3 	ldrdeq	r0, [r0], -r3
 a5c:	00008ae0 	andeq	r8, r0, r0, ror #21
 a60:	00008b6c 	andeq	r8, r0, ip, ror #22
 a64:	00000350 	andeq	r0, r0, r0, asr r3
 a68:	0000d301 	andeq	sp, r0, r1, lsl #6
 a6c:	00690900 	rsbeq	r0, r9, r0, lsl #18
 a70:	00d31b01 	sbcseq	r1, r3, r1, lsl #22
 a74:	91020000 	mrsls	r0, (UNDEF: 2)
 a78:	040a0074 	streq	r0, [sl], #-116	; 0x74
 a7c:	746e6905 	strbtvc	r6, [lr], #-2309	; 0x905
 a80:	03630600 	cmneq	r3, #0
 a84:	05010000 	streq	r0, [r1, #-0]
 a88:	00000045 	andeq	r0, r0, r5, asr #32
 a8c:	8b7c0305 	blhi	1f016a8 <__bss_end+0x1ef8b18>
 a90:	2c060000 	stccs	0, cr0, [r6], {-0}
 a94:	01000003 	tsteq	r0, r3
 a98:	00004506 	andeq	r4, r0, r6, lsl #10
 a9c:	80030500 	andhi	r0, r3, r0, lsl #10
 aa0:	0600008b 	streq	r0, [r0], -fp, lsl #1
 aa4:	00000318 	andeq	r0, r0, r8, lsl r3
 aa8:	00a20701 	adceq	r0, r2, r1, lsl #14
 aac:	03050000 	movweq	r0, #20480	; 0x5000
 ab0:	00008b78 	andeq	r8, r0, r8, ror fp
	...

Disassembly of section .debug_abbrev:

00000000 <.debug_abbrev>:
   0:	10001101 	andne	r1, r0, r1, lsl #2
   4:	12011106 	andne	r1, r1, #-2147483647	; 0x80000001
   8:	1b080301 	blne	200c14 <__bss_end+0x1f8084>
   c:	13082508 	movwne	r2, #34056	; 0x8508
  10:	00000005 	andeq	r0, r0, r5
  14:	25011101 	strcs	r1, [r1, #-257]	; 0x101
  18:	030b130e 	movweq	r1, #45838	; 0xb30e
  1c:	110e1b0e 	tstne	lr, lr, lsl #22
  20:	10011201 	andne	r1, r1, r1, lsl #4
  24:	02000006 	andeq	r0, r0, #6
  28:	0e030016 	mcreq	0, 0, r0, cr3, cr6, {0}
  2c:	0b3b0b3a 	bleq	ec2d1c <__bss_end+0xeba18c>
  30:	00001349 	andeq	r1, r0, r9, asr #6
  34:	03010403 	movweq	r0, #5123	; 0x1403
  38:	3a0b0b0e 	bcc	2c2c78 <__bss_end+0x2ba0e8>
  3c:	010b3b0b 	tsteq	fp, fp, lsl #22
  40:	04000013 	streq	r0, [r0], #-19
  44:	08030028 	stmdaeq	r3, {r3, r5}
  48:	00000d1c 	andeq	r0, r0, ip, lsl sp
  4c:	03002805 	movweq	r2, #2053	; 0x805
  50:	000d1c0e 	andeq	r1, sp, lr, lsl #24
  54:	000f0600 	andeq	r0, pc, r0, lsl #12
  58:	13490b0b 	movtne	r0, #39691	; 0x9b0b
  5c:	15070000 	strne	r0, [r7, #-0]
  60:	000c2700 	andeq	r2, ip, r0, lsl #14
  64:	01130800 	tsteq	r3, r0, lsl #16
  68:	0b0b0e03 	bleq	2c387c <__bss_end+0x2bacec>
  6c:	0b3b0b3a 	bleq	ec2d5c <__bss_end+0xeba1cc>
  70:	00001301 	andeq	r1, r0, r1, lsl #6
  74:	03000d09 	movweq	r0, #3337	; 0xd09
  78:	3b0b3a08 	blcc	2ce8a0 <__bss_end+0x2c5d10>
  7c:	3813490b 	ldmdacc	r3, {r0, r1, r3, r8, fp, lr}
  80:	0a00000a 	beq	b0 <_start-0x7f50>
  84:	0e03000d 	cdpeq	0, 0, cr0, cr3, cr13, {0}
  88:	0b3b0b3a 	bleq	ec2d78 <__bss_end+0xeba1e8>
  8c:	0a381349 	beq	e04db8 <__bss_end+0xdfc228>
  90:	0f0b0000 	svceq	0x000b0000
  94:	000b0b00 	andeq	r0, fp, r0, lsl #22
  98:	00240c00 	eoreq	r0, r4, r0, lsl #24
  9c:	0b3e0b0b 	bleq	f82cd0 <__bss_end+0xf7a140>
  a0:	00000e03 	andeq	r0, r0, r3, lsl #28
  a4:	3f012e0d 	svccc	0x00012e0d
  a8:	3a0e030c 	bcc	380ce0 <__bss_end+0x378150>
  ac:	110b3b0b 	tstne	fp, fp, lsl #22
  b0:	40011201 	andmi	r1, r1, r1, lsl #4
  b4:	0c429706 	mcrreq	7, 0, r9, r2, cr6
  b8:	00001301 	andeq	r1, r0, r1, lsl #6
  bc:	0300340e 	movweq	r3, #1038	; 0x40e
  c0:	3b0b3a0e 	blcc	2ce900 <__bss_end+0x2c5d70>
  c4:	0213490b 	andseq	r4, r3, #180224	; 0x2c000
  c8:	0f00000a 	svceq	0x0000000a
  cc:	0b0b0024 	bleq	2c0164 <__bss_end+0x2b75d4>
  d0:	08030b3e 	stmdaeq	r3, {r1, r2, r3, r4, r5, r8, r9, fp}
  d4:	2e100000 	cdpcs	0, 1, cr0, cr0, cr0, {0}
  d8:	030c3f01 	movweq	r3, #52993	; 0xcf01
  dc:	3b0b3a0e 	blcc	2ce91c <__bss_end+0x2c5d8c>
  e0:	490c270b 	stmdbmi	ip, {r0, r1, r3, r8, r9, sl, sp}
  e4:	12011113 	andne	r1, r1, #-1073741820	; 0xc0000004
  e8:	96064001 	strls	r4, [r6], -r1
  ec:	13010c42 	movwne	r0, #7234	; 0x1c42
  f0:	2e110000 	cdpcs	0, 1, cr0, cr1, cr0, {0}
  f4:	030c3f01 	movweq	r3, #52993	; 0xcf01
  f8:	3b0b3a0e 	blcc	2ce938 <__bss_end+0x2c5da8>
  fc:	3c13490b 	ldccc	9, cr4, [r3], {11}
 100:	1200000c 	andne	r0, r0, #12
 104:	00000018 	andeq	r0, r0, r8, lsl r0
 108:	03003413 	movweq	r3, #1043	; 0x413
 10c:	3b0b3a0e 	blcc	2ce94c <__bss_end+0x2c5dbc>
 110:	3f13490b 	svccc	0x0013490b
 114:	000a020c 	andeq	r0, sl, ip, lsl #4
 118:	00341400 	eorseq	r1, r4, r0, lsl #8
 11c:	0b3a0803 	bleq	e82130 <__bss_end+0xe795a0>
 120:	13490b3b 	movtne	r0, #39739	; 0x9b3b
 124:	0a020c3f 	beq	83228 <__bss_end+0x7a698>
 128:	01000000 	mrseq	r0, (UNDEF: 0)
 12c:	0e250111 	mcreq	1, 1, r0, cr5, cr1, {0}
 130:	0e030b13 	vmoveq.32	d3[0], r0
 134:	01110e1b 	tsteq	r1, fp, lsl lr
 138:	06100112 			; <UNDEFINED> instruction: 0x06100112
 13c:	13020000 	movwne	r0, #8192	; 0x2000
 140:	0b080301 	bleq	200d4c <__bss_end+0x1f81bc>
 144:	3b0b3a0b 	blcc	2ce978 <__bss_end+0x2c5de8>
 148:	0013010b 	andseq	r0, r3, fp, lsl #2
 14c:	000d0300 	andeq	r0, sp, r0, lsl #6
 150:	0b3a0e03 	bleq	e83964 <__bss_end+0xe7add4>
 154:	13490b3b 	movtne	r0, #39739	; 0x9b3b
 158:	00000a38 	andeq	r0, r0, r8, lsr sl
 15c:	0b000f04 	bleq	3d74 <_start-0x428c>
 160:	0013490b 	andseq	r4, r3, fp, lsl #18
 164:	00240500 	eoreq	r0, r4, r0, lsl #10
 168:	0b3e0b0b 	bleq	f82d9c <__bss_end+0xf7a20c>
 16c:	00000e03 	andeq	r0, r0, r3, lsl #28
 170:	3f012e06 	svccc	0x00012e06
 174:	3a0e030c 	bcc	380dac <__bss_end+0x37821c>
 178:	270b3b0b 	strcs	r3, [fp, -fp, lsl #22]
 17c:	1113490c 	tstne	r3, ip, lsl #18
 180:	40011201 	andmi	r1, r1, r1, lsl #4
 184:	0c429706 	mcrreq	7, 0, r9, r2, cr6
 188:	00001301 	andeq	r1, r0, r1, lsl #6
 18c:	03000507 	movweq	r0, #1287	; 0x507
 190:	3b0b3a0e 	blcc	2ce9d0 <__bss_end+0x2c5e40>
 194:	0213490b 	andseq	r4, r3, #180224	; 0x2c000
 198:	0800000a 	stmdaeq	r0, {r1, r3}
 19c:	08030034 	stmdaeq	r3, {r2, r4, r5}
 1a0:	0b3b0b3a 	bleq	ec2e90 <__bss_end+0xeba300>
 1a4:	0a021349 	beq	84ed0 <__bss_end+0x7c340>
 1a8:	34090000 	strcc	r0, [r9], #-0
 1ac:	3a0e0300 	bcc	380db4 <__bss_end+0x378224>
 1b0:	490b3b0b 	stmdbmi	fp, {r0, r1, r3, r8, r9, fp, ip, sp}
 1b4:	000a0213 	andeq	r0, sl, r3, lsl r2
 1b8:	000f0a00 	andeq	r0, pc, r0, lsl #20
 1bc:	00000b0b 	andeq	r0, r0, fp, lsl #22
 1c0:	3f012e0b 	svccc	0x00012e0b
 1c4:	3a0e030c 	bcc	380dfc <__bss_end+0x37826c>
 1c8:	270b3b0b 	strcs	r3, [fp, -fp, lsl #22]
 1cc:	1201110c 	andne	r1, r1, #3
 1d0:	97064001 	strls	r4, [r6, -r1]
 1d4:	13010c42 	movwne	r0, #7234	; 0x1c42
 1d8:	050c0000 	streq	r0, [ip, #-0]
 1dc:	3a080300 	bcc	200de4 <__bss_end+0x1f8254>
 1e0:	490b3b0b 	stmdbmi	fp, {r0, r1, r3, r8, r9, fp, ip, sp}
 1e4:	000a0213 	andeq	r0, sl, r3, lsl r2
 1e8:	00340d00 	eorseq	r0, r4, r0, lsl #26
 1ec:	0b3a0e03 	bleq	e83a00 <__bss_end+0xe7ae70>
 1f0:	13490b3b 	movtne	r0, #39739	; 0x9b3b
 1f4:	0a020c3f 	beq	832f8 <__bss_end+0x7a768>
 1f8:	01000000 	mrseq	r0, (UNDEF: 0)
 1fc:	0e250111 	mcreq	1, 1, r0, cr5, cr1, {0}
 200:	0e030b13 	vmoveq.32	d3[0], r0
 204:	01110e1b 	tsteq	r1, fp, lsl lr
 208:	06100112 			; <UNDEFINED> instruction: 0x06100112
 20c:	24020000 	strcs	r0, [r2], #-0
 210:	3e0b0b00 	vmlacc.f64	d0, d11, d0
 214:	000e030b 	andeq	r0, lr, fp, lsl #6
 218:	012e0300 	teqeq	lr, r0, lsl #6
 21c:	0e030c3f 	mcreq	12, 0, r0, cr3, cr15, {1}
 220:	0b3b0b3a 	bleq	ec2f10 <__bss_end+0xeba380>
 224:	01120111 	tsteq	r2, r1, lsl r1
 228:	42960640 	addsmi	r0, r6, #67108864	; 0x4000000
 22c:	0013010c 	andseq	r0, r3, ip, lsl #2
 230:	00340400 	eorseq	r0, r4, r0, lsl #8
 234:	0b3a0803 	bleq	e82248 <__bss_end+0xe796b8>
 238:	13490b3b 	movtne	r0, #39739	; 0x9b3b
 23c:	00000a02 	andeq	r0, r0, r2, lsl #20
 240:	3f002e05 	svccc	0x00002e05
 244:	3a0e030c 	bcc	380e7c <__bss_end+0x3782ec>
 248:	110b3b0b 	tstne	fp, fp, lsl #22
 24c:	40011201 	andmi	r1, r1, r1, lsl #4
 250:	0c429606 	mcrreq	6, 0, r9, r2, cr6
 254:	2e060000 	cdpcs	0, 0, cr0, cr6, cr0, {0}
 258:	030c3f01 	movweq	r3, #52993	; 0xcf01
 25c:	3b0b3a0e 	blcc	2cea9c <__bss_end+0x2c5f0c>
 260:	1201110b 	andne	r1, r1, #-1073741822	; 0xc0000002
 264:	96064001 	strls	r4, [r6], -r1
 268:	00000c42 	andeq	r0, r0, r2, asr #24
 26c:	01110100 	tsteq	r1, r0, lsl #2
 270:	0b130e25 	bleq	4c3b0c <__bss_end+0x4baf7c>
 274:	0e1b0e03 	cdpeq	14, 1, cr0, cr11, cr3, {0}
 278:	01120111 	tsteq	r2, r1, lsl r1
 27c:	00000610 	andeq	r0, r0, r0, lsl r6
 280:	03001602 	movweq	r1, #1538	; 0x602
 284:	3b0b3a0e 	blcc	2ceac4 <__bss_end+0x2c5f34>
 288:	0013490b 	andseq	r4, r3, fp, lsl #18
 28c:	01040300 	mrseq	r0, LR_abt
 290:	0b0b0e03 	bleq	2c3aa4 <__bss_end+0x2baf14>
 294:	0b3b0b3a 	bleq	ec2f84 <__bss_end+0xeba3f4>
 298:	00001301 	andeq	r1, r0, r1, lsl #6
 29c:	03002804 	movweq	r2, #2052	; 0x804
 2a0:	000d1c08 	andeq	r1, sp, r8, lsl #24
 2a4:	00280500 	eoreq	r0, r8, r0, lsl #10
 2a8:	0d1c0e03 	ldceq	14, cr0, [ip, #-12]
 2ac:	0f060000 	svceq	0x00060000
 2b0:	490b0b00 	stmdbmi	fp, {r8, r9, fp}
 2b4:	07000013 	smladeq	r0, r3, r0, r0
 2b8:	0c270015 	stceq	0, cr0, [r7], #-84	; 0xffffffac
 2bc:	13080000 	movwne	r0, #32768	; 0x8000
 2c0:	0b0e0301 	bleq	380ecc <__bss_end+0x37833c>
 2c4:	3b0b3a0b 	blcc	2ceaf8 <__bss_end+0x2c5f68>
 2c8:	0013010b 	andseq	r0, r3, fp, lsl #2
 2cc:	000d0900 	andeq	r0, sp, r0, lsl #18
 2d0:	0b3a0803 	bleq	e822e4 <__bss_end+0xe79754>
 2d4:	13490b3b 	movtne	r0, #39739	; 0x9b3b
 2d8:	00000a38 	andeq	r0, r0, r8, lsr sl
 2dc:	03000d0a 	movweq	r0, #3338	; 0xd0a
 2e0:	3b0b3a0e 	blcc	2ceb20 <__bss_end+0x2c5f90>
 2e4:	3813490b 	ldmdacc	r3, {r0, r1, r3, r8, fp, lr}
 2e8:	0b00000a 	bleq	318 <_start-0x7ce8>
 2ec:	0b0b000f 	bleq	2c0330 <__bss_end+0x2b77a0>
 2f0:	2e0c0000 	cdpcs	0, 0, cr0, cr12, cr0, {0}
 2f4:	030c3f01 	movweq	r3, #52993	; 0xcf01
 2f8:	3b0b3a0e 	blcc	2ceb38 <__bss_end+0x2c5fa8>
 2fc:	110c270b 	tstne	ip, fp, lsl #14
 300:	40011201 	andmi	r1, r1, r1, lsl #4
 304:	0c429606 	mcrreq	6, 0, r9, r2, cr6
 308:	00001301 	andeq	r1, r0, r1, lsl #6
 30c:	0300050d 	movweq	r0, #1293	; 0x50d
 310:	3b0b3a0e 	blcc	2ceb50 <__bss_end+0x2c5fc0>
 314:	0213490b 	andseq	r4, r3, #180224	; 0x2c000
 318:	0e00000a 	cdpeq	0, 0, cr0, cr0, cr10, {0}
 31c:	08030005 	stmdaeq	r3, {r0, r2}
 320:	0b3b0b3a 	bleq	ec3010 <__bss_end+0xeba480>
 324:	0a021349 	beq	85050 <__bss_end+0x7c4c0>
 328:	240f0000 	strcs	r0, [pc], #-0	; 330 <_start-0x7cd0>
 32c:	3e0b0b00 	vmlacc.f64	d0, d11, d0
 330:	000e030b 	andeq	r0, lr, fp, lsl #6
 334:	00341000 	eorseq	r1, r4, r0
 338:	0b3a0803 	bleq	e8234c <__bss_end+0xe797bc>
 33c:	13490b3b 	movtne	r0, #39739	; 0x9b3b
 340:	00000a02 	andeq	r0, r0, r2, lsl #20
 344:	03003411 	movweq	r3, #1041	; 0x411
 348:	3b0b3a0e 	blcc	2ceb88 <__bss_end+0x2c5ff8>
 34c:	0213490b 	andseq	r4, r3, #180224	; 0x2c000
 350:	1200000a 	andne	r0, r0, #10
 354:	0c3f002e 	ldceq	0, cr0, [pc], #-184	; 2a4 <_start-0x7d5c>
 358:	0b3a0e03 	bleq	e83b6c <__bss_end+0xe7afdc>
 35c:	01110b3b 	tsteq	r1, fp, lsr fp
 360:	06400112 			; <UNDEFINED> instruction: 0x06400112
 364:	000c4296 	muleq	ip, r6, r2
 368:	012e1300 	teqeq	lr, r0, lsl #6
 36c:	0e030c3f 	mcreq	12, 0, r0, cr3, cr15, {1}
 370:	0b3b0b3a 	bleq	ec3060 <__bss_end+0xeba4d0>
 374:	01120111 	tsteq	r2, r1, lsl r1
 378:	42960640 	addsmi	r0, r6, #67108864	; 0x4000000
 37c:	0013010c 	andseq	r0, r3, ip, lsl #2
 380:	002e1400 	eoreq	r1, lr, r0, lsl #8
 384:	0e030c3f 	mcreq	12, 0, r0, cr3, cr15, {1}
 388:	0b3b0b3a 	bleq	ec3078 <__bss_end+0xeba4e8>
 38c:	01120111 	tsteq	r2, r1, lsl r1
 390:	42970a40 	addsmi	r0, r7, #262144	; 0x40000
 394:	1500000c 	strne	r0, [r0, #-12]
 398:	0111010b 	tsteq	r1, fp, lsl #2
 39c:	00000112 	andeq	r0, r0, r2, lsl r1
 3a0:	3f012e16 	svccc	0x00012e16
 3a4:	3a0e030c 	bcc	380fdc <__bss_end+0x37844c>
 3a8:	110b3b0b 	tstne	fp, fp, lsl #22
 3ac:	40011201 	andmi	r1, r1, r1, lsl #4
 3b0:	0c42960a 	mcrreq	6, 0, r9, r2, cr10
 3b4:	00001301 	andeq	r1, r0, r1, lsl #6
 3b8:	03003417 	movweq	r3, #1047	; 0x417
 3bc:	3b0b3a0e 	blcc	2cebfc <__bss_end+0x2c606c>
 3c0:	3f13490b 	svccc	0x0013490b
 3c4:	000a020c 	andeq	r0, sl, ip, lsl #4
 3c8:	00341800 	eorseq	r1, r4, r0, lsl #16
 3cc:	0b3a0803 	bleq	e823e0 <__bss_end+0xe79850>
 3d0:	13490b3b 	movtne	r0, #39739	; 0x9b3b
 3d4:	0a020c3f 	beq	834d8 <__bss_end+0x7a948>
 3d8:	01000000 	mrseq	r0, (UNDEF: 0)
 3dc:	0e250111 	mcreq	1, 1, r0, cr5, cr1, {0}
 3e0:	0e030b13 	vmoveq.32	d3[0], r0
 3e4:	01110e1b 	tsteq	r1, fp, lsl lr
 3e8:	06100112 			; <UNDEFINED> instruction: 0x06100112
 3ec:	16020000 	strne	r0, [r2], -r0
 3f0:	3a0e0300 	bcc	380ff8 <__bss_end+0x378468>
 3f4:	490b3b0b 	stmdbmi	fp, {r0, r1, r3, r8, r9, fp, ip, sp}
 3f8:	03000013 	movweq	r0, #19
 3fc:	0e030104 	adfeqs	f0, f3, f4
 400:	0b3a0b0b 	bleq	e83034 <__bss_end+0xe7a4a4>
 404:	13010b3b 	movwne	r0, #6971	; 0x1b3b
 408:	28040000 	stmdacs	r4, {}	; <UNPREDICTABLE>
 40c:	1c080300 	stcne	3, cr0, [r8], {-0}
 410:	0500000d 	streq	r0, [r0, #-13]
 414:	0e030028 	cdpeq	0, 0, cr0, cr3, cr8, {1}
 418:	00000d1c 	andeq	r0, r0, ip, lsl sp
 41c:	0b000f06 	bleq	403c <_start-0x3fc4>
 420:	0013490b 	andseq	r4, r3, fp, lsl #18
 424:	00150700 	andseq	r0, r5, r0, lsl #14
 428:	00000c27 	andeq	r0, r0, r7, lsr #24
 42c:	03011308 	movweq	r1, #4872	; 0x1308
 430:	3a0b0b0e 	bcc	2c3070 <__bss_end+0x2ba4e0>
 434:	010b3b0b 	tsteq	fp, fp, lsl #22
 438:	09000013 	stmdbeq	r0, {r0, r1, r4}
 43c:	0803000d 	stmdaeq	r3, {r0, r2, r3}
 440:	0b3b0b3a 	bleq	ec3130 <__bss_end+0xeba5a0>
 444:	0a381349 	beq	e05170 <__bss_end+0xdfc5e0>
 448:	0d0a0000 	stceq	0, cr0, [sl, #-0]
 44c:	3a0e0300 	bcc	381054 <__bss_end+0x3784c4>
 450:	490b3b0b 	stmdbmi	fp, {r0, r1, r3, r8, r9, fp, ip, sp}
 454:	000a3813 	andeq	r3, sl, r3, lsl r8
 458:	000f0b00 	andeq	r0, pc, r0, lsl #22
 45c:	00000b0b 	andeq	r0, r0, fp, lsl #22
 460:	0b00240c 	bleq	9498 <__bss_end+0x908>
 464:	030b3e0b 	movweq	r3, #48651	; 0xbe0b
 468:	0d00000e 	stceq	0, cr0, [r0, #-56]	; 0xffffffc8
 46c:	0c3f002e 	ldceq	0, cr0, [pc], #-184	; 3bc <_start-0x7c44>
 470:	0b3a0e03 	bleq	e83c84 <__bss_end+0xe7b0f4>
 474:	01110b3b 	tsteq	r1, fp, lsr fp
 478:	06400112 			; <UNDEFINED> instruction: 0x06400112
 47c:	000c4297 	muleq	ip, r7, r2
 480:	012e0e00 	teqeq	lr, r0, lsl #28
 484:	0e030c3f 	mcreq	12, 0, r0, cr3, cr15, {1}
 488:	0b3b0b3a 	bleq	ec3178 <__bss_end+0xeba5e8>
 48c:	01110c27 	tsteq	r1, r7, lsr #24
 490:	06400112 			; <UNDEFINED> instruction: 0x06400112
 494:	010c4297 			; <UNDEFINED> instruction: 0x010c4297
 498:	0f000013 	svceq	0x00000013
 49c:	0e030005 	cdpeq	0, 0, cr0, cr3, cr5, {0}
 4a0:	0b3b0b3a 	bleq	ec3190 <__bss_end+0xeba600>
 4a4:	0a021349 	beq	851d0 <__bss_end+0x7c640>
 4a8:	2e100000 	cdpcs	0, 1, cr0, cr0, cr0, {0}
 4ac:	030c3f00 	movweq	r3, #52992	; 0xcf00
 4b0:	3b0b3a0e 	blcc	2cecf0 <__bss_end+0x2c6160>
 4b4:	1201110b 	andne	r1, r1, #-1073741822	; 0xc0000002
 4b8:	970a4001 	strls	r4, [sl, -r1]
 4bc:	00000c42 	andeq	r0, r0, r2, asr #24
 4c0:	3f012e11 	svccc	0x00012e11
 4c4:	3a0e030c 	bcc	3810fc <__bss_end+0x37856c>
 4c8:	110b3b0b 	tstne	fp, fp, lsl #22
 4cc:	40011201 	andmi	r1, r1, r1, lsl #4
 4d0:	0c429706 	mcrreq	7, 0, r9, r2, cr6
 4d4:	00001301 	andeq	r1, r0, r1, lsl #6
 4d8:	03003412 	movweq	r3, #1042	; 0x412
 4dc:	3b0b3a0e 	blcc	2ced1c <__bss_end+0x2c618c>
 4e0:	0213490b 	andseq	r4, r3, #180224	; 0x2c000
 4e4:	1300000a 	movwne	r0, #10
 4e8:	0c3f012e 	ldfeqs	f0, [pc], #-184	; 438 <_start-0x7bc8>
 4ec:	0b3a0e03 	bleq	e83d00 <__bss_end+0xe7b170>
 4f0:	01110b3b 	tsteq	r1, fp, lsr fp
 4f4:	06400112 			; <UNDEFINED> instruction: 0x06400112
 4f8:	010c4296 			; <UNDEFINED> instruction: 0x010c4296
 4fc:	14000013 	strne	r0, [r0], #-19
 500:	0b0b0024 	bleq	2c0598 <__bss_end+0x2b7a08>
 504:	08030b3e 	stmdaeq	r3, {r1, r2, r3, r4, r5, r8, r9, fp}
 508:	34150000 	ldrcc	r0, [r5], #-0
 50c:	3a0e0300 	bcc	381114 <__bss_end+0x378584>
 510:	490b3b0b 	stmdbmi	fp, {r0, r1, r3, r8, r9, fp, ip, sp}
 514:	020c3f13 	andeq	r3, ip, #76	; 0x4c
 518:	1600000a 	strne	r0, [r0], -sl
 51c:	08030034 	stmdaeq	r3, {r2, r4, r5}
 520:	0b3b0b3a 	bleq	ec3210 <__bss_end+0xeba680>
 524:	0c3f1349 	ldceq	3, cr1, [pc], #-292	; 408 <_start-0x7bf8>
 528:	00000a02 	andeq	r0, r0, r2, lsl #20
 52c:	01110100 	tsteq	r1, r0, lsl #2
 530:	0b130e25 	bleq	4c3dcc <__bss_end+0x4bb23c>
 534:	0e1b0e03 	cdpeq	14, 1, cr0, cr11, cr3, {0}
 538:	01120111 	tsteq	r2, r1, lsl r1
 53c:	00000610 	andeq	r0, r0, r0, lsl r6
 540:	0b002402 	bleq	9550 <__bss_end+0x9c0>
 544:	030b3e0b 	movweq	r3, #48651	; 0xbe0b
 548:	0300000e 	movweq	r0, #14
 54c:	0e030016 	mcreq	0, 0, r0, cr3, cr6, {0}
 550:	0b3b0b3a 	bleq	ec3240 <__bss_end+0xeba6b0>
 554:	00001349 	andeq	r1, r0, r9, asr #6
 558:	03012e04 	movweq	r2, #7684	; 0x1e04
 55c:	3b0b3a0e 	blcc	2ced9c <__bss_end+0x2c620c>
 560:	110c270b 	tstne	ip, fp, lsl #14
 564:	40011201 	andmi	r1, r1, r1, lsl #4
 568:	0c429706 	mcrreq	7, 0, r9, r2, cr6
 56c:	00001301 	andeq	r1, r0, r1, lsl #6
 570:	03000505 	movweq	r0, #1285	; 0x505
 574:	3b0b3a0e 	blcc	2cedb4 <__bss_end+0x2c6224>
 578:	0213490b 	andseq	r4, r3, #180224	; 0x2c000
 57c:	0600000a 	streq	r0, [r0], -sl
 580:	0e030034 	mcreq	0, 0, r0, cr3, cr4, {1}
 584:	0b3b0b3a 	bleq	ec3274 <__bss_end+0xeba6e4>
 588:	0a021349 	beq	852b4 <__bss_end+0x7c724>
 58c:	0f070000 	svceq	0x00070000
 590:	490b0b00 	stmdbmi	fp, {r8, r9, fp}
 594:	08000013 	stmdaeq	r0, {r0, r1, r4}
 598:	0c3f012e 	ldfeqs	f0, [pc], #-184	; 4e8 <_start-0x7b18>
 59c:	0b3a0e03 	bleq	e83db0 <__bss_end+0xe7b220>
 5a0:	0c270b3b 	stceq	11, cr0, [r7], #-236	; 0xffffff14
 5a4:	01111349 	tsteq	r1, r9, asr #6
 5a8:	06400112 			; <UNDEFINED> instruction: 0x06400112
 5ac:	010c4296 			; <UNDEFINED> instruction: 0x010c4296
 5b0:	09000013 	stmdbeq	r0, {r0, r1, r4}
 5b4:	08030034 	stmdaeq	r3, {r2, r4, r5}
 5b8:	0b3b0b3a 	bleq	ec32a8 <__bss_end+0xeba718>
 5bc:	0a021349 	beq	852e8 <__bss_end+0x7c758>
 5c0:	240a0000 	strcs	r0, [sl], #-0
 5c4:	3e0b0b00 	vmlacc.f64	d0, d11, d0
 5c8:	0008030b 	andeq	r0, r8, fp, lsl #6
	...

Disassembly of section .debug_aranges:

00000000 <.debug_aranges>:
   0:	0000001c 	andeq	r0, r0, ip, lsl r0
   4:	00000002 	andeq	r0, r0, r2
   8:	00040000 	andeq	r0, r4, r0
   c:	00000000 	andeq	r0, r0, r0
  10:	00008000 	andeq	r8, r0, r0
  14:	000000d0 	ldrdeq	r0, [r0], -r0	; <UNPREDICTABLE>
	...
  20:	0000001c 	andeq	r0, r0, ip, lsl r0
  24:	00560002 	subseq	r0, r6, r2
  28:	00040000 	andeq	r0, r4, r0
  2c:	00000000 	andeq	r0, r0, r0
  30:	000080d0 	ldrdeq	r8, [r0], -r0
  34:	0000006c 	andeq	r0, r0, ip, rrx
	...
  40:	0000001c 	andeq	r0, r0, ip, lsl r0
  44:	02490002 	subeq	r0, r9, #2
  48:	00040000 	andeq	r0, r4, r0
  4c:	00000000 	andeq	r0, r0, r0
  50:	0000813c 	andeq	r8, r0, ip, lsr r1
  54:	00000138 	andeq	r0, r0, r8, lsr r1
	...
  60:	0000001c 	andeq	r0, r0, ip, lsl r0
  64:	03ab0002 			; <UNDEFINED> instruction: 0x03ab0002
  68:	00040000 	andeq	r0, r4, r0
  6c:	00000000 	andeq	r0, r0, r0
  70:	00008274 	andeq	r8, r0, r4, ror r2
  74:	0000013c 	andeq	r0, r0, ip, lsr r1
	...
  80:	0000001c 	andeq	r0, r0, ip, lsl r0
  84:	04670002 	strbteq	r0, [r7], #-2
  88:	00040000 	andeq	r0, r4, r0
  8c:	00000000 	andeq	r0, r0, r0
  90:	000083b0 			; <UNDEFINED> instruction: 0x000083b0
  94:	000005f0 	strdeq	r0, [r0], -r0	; <UNPREDICTABLE>
	...
  a0:	0000001c 	andeq	r0, r0, ip, lsl r0
  a4:	07900002 	ldreq	r0, [r0, r2]
  a8:	00040000 	andeq	r0, r4, r0
  ac:	00000000 	andeq	r0, r0, r0
  b0:	000089a0 	andeq	r8, r0, r0, lsr #19
  b4:	000000b8 	strheq	r0, [r0], -r8
	...
  c0:	0000001c 	andeq	r0, r0, ip, lsl r0
  c4:	09a70002 	stmibeq	r7!, {r1}
  c8:	00040000 	andeq	r0, r4, r0
  cc:	00000000 	andeq	r0, r0, r0
  d0:	00008a58 	andeq	r8, r0, r8, asr sl
  d4:	00000114 	andeq	r0, r0, r4, lsl r1
	...

Disassembly of section .debug_loc:

00000000 <.debug_loc>:
   0:	00000000 	andeq	r0, r0, r0
   4:	00000004 	andeq	r0, r0, r4
   8:	007d0002 	rsbseq	r0, sp, r2
   c:	00000004 	andeq	r0, r0, r4
  10:	00000040 	andeq	r0, r0, r0, asr #32
  14:	087d0002 	ldmdaeq	sp!, {r1}^
	...
  20:	00000040 	andeq	r0, r0, r0, asr #32
  24:	00000044 	andeq	r0, r0, r4, asr #32
  28:	007d0002 	rsbseq	r0, sp, r2
  2c:	00000044 	andeq	r0, r0, r4, asr #32
  30:	0000005c 	andeq	r0, r0, ip, asr r0
  34:	087d0002 	ldmdaeq	sp!, {r1}^
	...
  40:	0000005c 	andeq	r0, r0, ip, asr r0
  44:	00000060 	andeq	r0, r0, r0, rrx
  48:	007d0002 	rsbseq	r0, sp, r2
  4c:	00000060 	andeq	r0, r0, r0, rrx
  50:	0000006c 	andeq	r0, r0, ip, rrx
  54:	087d0002 	ldmdaeq	sp!, {r1}^
	...
  64:	00000004 	andeq	r0, r0, r4
  68:	007d0002 	rsbseq	r0, sp, r2
  6c:	00000004 	andeq	r0, r0, r4
  70:	00000008 	andeq	r0, r0, r8
  74:	087d0002 	ldmdaeq	sp!, {r1}^
  78:	00000008 	andeq	r0, r0, r8
  7c:	000000b4 	strheq	r0, [r0], -r4
  80:	107d0002 	rsbsne	r0, sp, r2
	...
  8c:	000000b4 	strheq	r0, [r0], -r4
  90:	000000b8 	strheq	r0, [r0], -r8
  94:	007d0002 	rsbseq	r0, sp, r2
  98:	000000b8 	strheq	r0, [r0], -r8
  9c:	000000bc 	strheq	r0, [r0], -ip
  a0:	047d0002 	ldrbteq	r0, [sp], #-2
  a4:	000000bc 	strheq	r0, [r0], -ip
  a8:	000000fc 	strdeq	r0, [r0], -ip
  ac:	107d0002 	rsbsne	r0, sp, r2
	...
  b8:	000000fc 	strdeq	r0, [r0], -ip
  bc:	00000100 	andeq	r0, r0, r0, lsl #2
  c0:	007d0002 	rsbseq	r0, sp, r2
  c4:	00000100 	andeq	r0, r0, r0, lsl #2
  c8:	00000138 	andeq	r0, r0, r8, lsr r1
  cc:	087d0002 	ldmdaeq	sp!, {r1}^
	...
  dc:	00000004 	andeq	r0, r0, r4
  e0:	007d0002 	rsbseq	r0, sp, r2
  e4:	00000004 	andeq	r0, r0, r4
  e8:	00000008 	andeq	r0, r0, r8
  ec:	047d0002 	ldrbteq	r0, [sp], #-2
  f0:	00000008 	andeq	r0, r0, r8
  f4:	0000004c 	andeq	r0, r0, ip, asr #32
  f8:	107d0002 	rsbsne	r0, sp, r2
	...
 104:	0000004c 	andeq	r0, r0, ip, asr #32
 108:	00000050 	andeq	r0, r0, r0, asr r0
 10c:	007d0002 	rsbseq	r0, sp, r2
 110:	00000050 	andeq	r0, r0, r0, asr r0
 114:	00000064 	andeq	r0, r0, r4, rrx
 118:	087d0002 	ldmdaeq	sp!, {r1}^
	...
 124:	00000064 	andeq	r0, r0, r4, rrx
 128:	00000068 	andeq	r0, r0, r8, rrx
 12c:	007d0002 	rsbseq	r0, sp, r2
 130:	00000068 	andeq	r0, r0, r8, rrx
 134:	0000007c 	andeq	r0, r0, ip, ror r0
 138:	087d0002 	ldmdaeq	sp!, {r1}^
	...
 144:	0000007c 	andeq	r0, r0, ip, ror r0
 148:	00000080 	andeq	r0, r0, r0, lsl #1
 14c:	007d0002 	rsbseq	r0, sp, r2
 150:	00000080 	andeq	r0, r0, r0, lsl #1
 154:	00000084 	andeq	r0, r0, r4, lsl #1
 158:	047d0002 	ldrbteq	r0, [sp], #-2
 15c:	00000084 	andeq	r0, r0, r4, lsl #1
 160:	0000013c 	andeq	r0, r0, ip, lsr r1
 164:	107d0002 	rsbsne	r0, sp, r2
	...
 174:	00000004 	andeq	r0, r0, r4
 178:	007d0002 	rsbseq	r0, sp, r2
 17c:	00000004 	andeq	r0, r0, r4
 180:	00000008 	andeq	r0, r0, r8
 184:	047d0002 	ldrbteq	r0, [sp], #-2
 188:	00000008 	andeq	r0, r0, r8
 18c:	00000054 	andeq	r0, r0, r4, asr r0
 190:	187d0002 	ldmdane	sp!, {r1}^
	...
 19c:	00000054 	andeq	r0, r0, r4, asr r0
 1a0:	00000058 	andeq	r0, r0, r8, asr r0
 1a4:	007d0002 	rsbseq	r0, sp, r2
 1a8:	00000058 	andeq	r0, r0, r8, asr r0
 1ac:	0000005c 	andeq	r0, r0, ip, asr r0
 1b0:	047d0002 	ldrbteq	r0, [sp], #-2
 1b4:	0000005c 	andeq	r0, r0, ip, asr r0
 1b8:	000000c0 	andeq	r0, r0, r0, asr #1
 1bc:	207d0002 	rsbscs	r0, sp, r2
	...
 1c8:	000000c0 	andeq	r0, r0, r0, asr #1
 1cc:	000000c4 	andeq	r0, r0, r4, asr #1
 1d0:	007d0002 	rsbseq	r0, sp, r2
 1d4:	000000c4 	andeq	r0, r0, r4, asr #1
 1d8:	000000c8 	andeq	r0, r0, r8, asr #1
 1dc:	047d0002 	ldrbteq	r0, [sp], #-2
 1e0:	000000c8 	andeq	r0, r0, r8, asr #1
 1e4:	000001a8 	andeq	r0, r0, r8, lsr #3
 1e8:	207d0002 	rsbscs	r0, sp, r2
	...
 1f4:	000001a8 	andeq	r0, r0, r8, lsr #3
 1f8:	000001ac 	andeq	r0, r0, ip, lsr #3
 1fc:	007d0002 	rsbseq	r0, sp, r2
 200:	000001ac 	andeq	r0, r0, ip, lsr #3
 204:	00000210 	andeq	r0, r0, r0, lsl r2
 208:	087d0002 	ldmdaeq	sp!, {r1}^
	...
 214:	00000210 	andeq	r0, r0, r0, lsl r2
 218:	00000214 	andeq	r0, r0, r4, lsl r2
 21c:	007d0002 	rsbseq	r0, sp, r2
 220:	00000214 	andeq	r0, r0, r4, lsl r2
 224:	00000218 	andeq	r0, r0, r8, lsl r2
 228:	047d0002 	ldrbteq	r0, [sp], #-2
 22c:	00000218 	andeq	r0, r0, r8, lsl r2
 230:	00000304 	andeq	r0, r0, r4, lsl #6
 234:	107d0002 	rsbsne	r0, sp, r2
	...
 240:	00000320 	andeq	r0, r0, r0, lsr #6
 244:	00000324 	andeq	r0, r0, r4, lsr #6
 248:	007d0002 	rsbseq	r0, sp, r2
 24c:	00000324 	andeq	r0, r0, r4, lsr #6
 250:	00000358 	andeq	r0, r0, r8, asr r3
 254:	087d0002 	ldmdaeq	sp!, {r1}^
	...
 260:	00000358 	andeq	r0, r0, r8, asr r3
 264:	0000035c 	andeq	r0, r0, ip, asr r3
 268:	007d0002 	rsbseq	r0, sp, r2
 26c:	0000035c 	andeq	r0, r0, ip, asr r3
 270:	00000360 	andeq	r0, r0, r0, ror #6
 274:	047d0002 	ldrbteq	r0, [sp], #-2
 278:	00000360 	andeq	r0, r0, r0, ror #6
 27c:	000004dc 	ldrdeq	r0, [r0], -ip
 280:	107d0002 	rsbsne	r0, sp, r2
	...
 290:	00000004 	andeq	r0, r0, r4
 294:	007d0002 	rsbseq	r0, sp, r2
 298:	00000004 	andeq	r0, r0, r4
 29c:	00000014 	andeq	r0, r0, r4, lsl r0
 2a0:	047d0002 	ldrbteq	r0, [sp], #-2
	...
 2ac:	00000014 	andeq	r0, r0, r4, lsl r0
 2b0:	00000018 	andeq	r0, r0, r8, lsl r0
 2b4:	007d0002 	rsbseq	r0, sp, r2
 2b8:	00000018 	andeq	r0, r0, r8, lsl r0
 2bc:	0000001c 	andeq	r0, r0, ip, lsl r0
 2c0:	047d0002 	ldrbteq	r0, [sp], #-2
 2c4:	0000001c 	andeq	r0, r0, ip, lsl r0
 2c8:	0000003c 	andeq	r0, r0, ip, lsr r0
 2cc:	107d0002 	rsbsne	r0, sp, r2
	...
 2d8:	00000040 	andeq	r0, r0, r0, asr #32
 2dc:	00000044 	andeq	r0, r0, r4, asr #32
 2e0:	007d0002 	rsbseq	r0, sp, r2
 2e4:	00000044 	andeq	r0, r0, r4, asr #32
 2e8:	00000048 	andeq	r0, r0, r8, asr #32
 2ec:	047d0002 	ldrbteq	r0, [sp], #-2
 2f0:	00000048 	andeq	r0, r0, r8, asr #32
 2f4:	00000070 	andeq	r0, r0, r0, ror r0
 2f8:	107d0002 	rsbsne	r0, sp, r2
	...
 304:	00000070 	andeq	r0, r0, r0, ror r0
 308:	00000074 	andeq	r0, r0, r4, ror r0
 30c:	007d0002 	rsbseq	r0, sp, r2
 310:	00000074 	andeq	r0, r0, r4, ror r0
 314:	00000078 	andeq	r0, r0, r8, ror r0
 318:	087d0002 	ldmdaeq	sp!, {r1}^
 31c:	00000078 	andeq	r0, r0, r8, ror r0
 320:	000000b8 	strheq	r0, [r0], -r8
 324:	107d0002 	rsbsne	r0, sp, r2
	...
 334:	00000004 	andeq	r0, r0, r4
 338:	007d0002 	rsbseq	r0, sp, r2
 33c:	00000004 	andeq	r0, r0, r4
 340:	00000088 	andeq	r0, r0, r8, lsl #1
 344:	107d0002 	rsbsne	r0, sp, r2
	...
 350:	00000088 	andeq	r0, r0, r8, lsl #1
 354:	0000008c 	andeq	r0, r0, ip, lsl #1
 358:	007d0002 	rsbseq	r0, sp, r2
 35c:	0000008c 	andeq	r0, r0, ip, lsl #1
 360:	00000090 	muleq	r0, r0, r0
 364:	047d0002 	ldrbteq	r0, [sp], #-2
 368:	00000090 	muleq	r0, r0, r0
 36c:	00000114 	andeq	r0, r0, r4, lsl r1
 370:	107d0002 	rsbsne	r0, sp, r2
	...

Disassembly of section .debug_str:

00000000 <.debug_str>:
   0:	5f626370 	svcpl	0x00626370
   4:	73677261 	cmnvc	r7, #268435462	; 0x10000006
   8:	616d6b00 	cmnvs	sp, r0, lsl #22
   c:	63006e69 	movwvs	r6, #3689	; 0xe69
  10:	00427470 	subeq	r7, r2, r0, ror r4
  14:	7478656e 	ldrbtvc	r6, [r8], #-1390	; 0x56e
  18:	6263705f 	rsbvs	r7, r3, #95	; 0x5f
  1c:	6e756600 	cdpvs	6, 7, cr6, cr5, cr0, {0}
  20:	745f7463 	ldrbvc	r7, [pc], #-1123	; 28 <_start-0x7fd8>
  24:	554e4700 	strbpl	r4, [lr, #-1792]	; 0x700
  28:	34204320 	strtcc	r4, [r0], #-800	; 0x320
  2c:	312e372e 	teqcc	lr, lr, lsr #14
  30:	49415700 	stmdbmi	r1, {r8, r9, sl, ip, lr}^
  34:	474e4954 	smlsldmi	r4, lr, r4, r9
  38:	74706300 	ldrbtvc	r6, [r0], #-768	; 0x300
  3c:	69660041 	stmdbvs	r6!, {r0, r6}^
  40:	5f747372 	svcpl	0x00747372
  44:	00626370 	rsbeq	r6, r2, r0, ror r3
  48:	5f626370 	svcpl	0x00626370
  4c:	75660066 	strbvc	r0, [r6, #-102]!	; 0x66
  50:	0041636e 	subeq	r6, r1, lr, ror #6
  54:	72646461 	rsbvc	r6, r4, #1627389952	; 0x61000000
  58:	00737365 	rsbseq	r7, r3, r5, ror #6
  5c:	69616863 	stmdbvs	r1!, {r0, r1, r5, r6, fp, sp, lr}^
  60:	5f64656e 	svcpl	0x0064656e
  64:	7473696c 	ldrbtvc	r6, [r3], #-2412	; 0x96c
  68:	52455400 	subpl	r5, r5, #0
  6c:	414e494d 	cmpmi	lr, sp, asr #18
  70:	00444554 	subeq	r4, r4, r4, asr r5
  74:	74696e69 	strbtvc	r6, [r9], #-3689	; 0xe69
  78:	72656b5f 	rsbvc	r6, r5, #97280	; 0x17c00
  7c:	72745f6e 	rsbsvc	r5, r4, #440	; 0x1b8
  80:	6c736e61 	ldclvs	14, cr6, [r3], #-388	; 0xfffffe7c
  84:	6f697461 	svcvs	0x00697461
  88:	61745f6e 	cmnvs	r4, lr, ror #30
  8c:	00656c62 	rsbeq	r6, r5, r2, ror #24
  90:	7473616c 	ldrbtvc	r6, [r3], #-364	; 0x16c
  94:	6263705f 	rsbvs	r7, r3, #95	; 0x5f
  98:	6e756600 	cdpvs	6, 7, cr6, cr5, cr0, {0}
  9c:	63004263 	movwvs	r4, #611	; 0x263
  a0:	735f7874 	cmpvc	pc, #7602176	; 0x740000
  a4:	4e555200 	cdpmi	2, 5, cr5, cr5, cr0, {0}
  a8:	474e494e 	strbmi	r4, [lr, -lr, asr #18]
  ac:	6f682f00 	svcvs	0x00682f00
  b0:	722f656d 	eorvc	r6, pc, #457179136	; 0x1b400000
  b4:	6f63696e 	svcvs	0x0063696e
  b8:	2f74656c 	svccs	0x0074656c
  bc:	30313448 	eorscc	r3, r1, r8, asr #8
  c0:	534f2f34 	movtpl	r2, #65332	; 0xff34
  c4:	2d734f2f 	ldclcs	15, cr4, [r3, #-188]!	; 0xffffff44
  c8:	70736152 	rsbsvc	r6, r3, r2, asr r1
  cc:	72656265 	rsbvc	r6, r5, #1342177286	; 0x50000006
  d0:	6b007972 	blvs	1e6a0 <__bss_end+0x15b10>
  d4:	656e7265 	strbvs	r7, [lr, #-613]!	; 0x265
  d8:	00632e6c 	rsbeq	r2, r3, ip, ror #28
  dc:	74617473 	strbtvc	r7, [r1], #-1139	; 0x473
  e0:	65740065 	ldrbvs	r0, [r4, #-101]!	; 0x65
  e4:	4173706d 	cmnmi	r3, sp, rrx
  e8:	6e657474 	mcrvs	4, 3, r7, cr5, cr4, {3}
  ec:	70006574 	andvc	r6, r0, r4, ror r5
  f0:	735f6263 	cmpvc	pc, #805306374	; 0x30000006
  f4:	696e6900 	stmdbvs	lr!, {r8, fp, sp, lr}^
  f8:	70735f74 	rsbsvc	r5, r3, r4, ror pc
  fc:	61745300 	cmnvs	r4, r0, lsl #6
 100:	70006574 	andvc	r6, r0, r4, ror r5
 104:	635f6263 	cmpvs	pc, #805306374	; 0x30000006
 108:	70007874 	andvc	r7, r0, r4, ror r8
 10c:	6c417968 	mcrrvs	9, 6, r7, r1, cr8
 110:	2e636f6c 	cdpcs	15, 6, cr6, cr3, cr12, {3}
 114:	72700063 	rsbsvc	r0, r0, #99	; 0x63
 118:	66007665 	strvs	r7, [r0], -r5, ror #12
 11c:	6c656572 	cfstr64vs	mvdx6, [r5], #-456	; 0xfffffe38
 120:	00747369 	rsbseq	r7, r4, r9, ror #6
 124:	41796870 	cmnmi	r9, r0, ror r8
 128:	636f6c6c 	cmnvs	pc, #27648	; 0x6c00
 12c:	6572665f 	ldrbvs	r6, [r2, #-1631]!	; 0x65f
 130:	682f0065 	stmdavs	pc!, {r0, r2, r5, r6}	; <UNPREDICTABLE>
 134:	2f656d6f 	svccs	0x00656d6f
 138:	6d6f6376 	stclvs	3, cr6, [pc, #-472]!	; ffffff68 <__bss_end+0xffff73d8>
 13c:	442f6574 	strtmi	r6, [pc], #-1396	; 144 <_start-0x7ebc>
 140:	6d75636f 	ldclvs	3, cr6, [r5, #-444]!	; 0xfffffe44
 144:	73746e65 	cmnvc	r4, #1616	; 0x650
 148:	2d70542f 	cfldrdcs	mvd5, [r0, #-188]!	; 0xffffff44
 14c:	70736152 	rsbsvc	r6, r3, r2, asr r1
 150:	72726562 	rsbsvc	r6, r2, #411041792	; 0x18800000
 154:	736f2f79 	cmnvc	pc, #484	; 0x1e4
 158:	2d656970 	stclcs	9, cr6, [r5, #-448]!	; 0xfffffe40
 15c:	72617473 	rsbvc	r7, r1, #1929379840	; 0x73000000
 160:	65680074 	strbvs	r0, [r8, #-116]!	; 0x74
 164:	6c5f7061 	mrrcvs	0, 6, r7, pc, cr1	; <UNPREDICTABLE>
 168:	74696d69 	strbtvc	r6, [r9], #-3433	; 0xd69
 16c:	61656800 	cmnvs	r5, r0, lsl #16
 170:	74735f70 	ldrbtvc	r5, [r3], #-3952	; 0xf70
 174:	00747261 	rsbseq	r7, r4, r1, ror #4
 178:	7478656e 	ldrbtvc	r6, [r8], #-1390	; 0x56e
 17c:	79687000 	stmdbvc	r8!, {ip, sp, lr}^
 180:	6f6c6c41 	svcvs	0x006c6c41
 184:	6c615f63 	stclvs	15, cr5, [r1], #-396	; 0xfffffe74
 188:	00636f6c 	rsbeq	r6, r3, ip, ror #30
 18c:	41796870 	cmnmi	r9, r0, ror r8
 190:	636f6c6c 	cmnvs	pc, #27648	; 0x6c00
 194:	696e695f 	stmdbvs	lr!, {r0, r1, r2, r3, r4, r6, r8, fp, sp, lr}^
 198:	65680074 	strbvs	r0, [r8, #-116]!	; 0x74
 19c:	735f7061 	cmpvc	pc, #97	; 0x61
 1a0:	00657a69 	rsbeq	r7, r5, r9, ror #20
 1a4:	69736e75 	ldmdbvs	r3!, {r0, r2, r4, r5, r6, r9, sl, fp, sp, lr}^
 1a8:	64656e67 	strbtvs	r6, [r5], #-3687	; 0xe67
 1ac:	61686320 	cmnvs	r8, r0, lsr #6
 1b0:	77680072 			; <UNDEFINED> instruction: 0x77680072
 1b4:	7300632e 	movwvc	r6, #814	; 0x32e
 1b8:	745f7465 	ldrbvc	r7, [pc], #-1125	; 1c0 <_start-0x7e40>
 1bc:	5f6b6369 	svcpl	0x006b6369
 1c0:	5f646e61 	svcpl	0x00646e61
 1c4:	62616e65 	rsbvs	r6, r1, #1616	; 0x650
 1c8:	745f656c 	ldrbvc	r6, [pc], #-1388	; 1d0 <_start-0x7e30>
 1cc:	72656d69 	rsbvc	r6, r5, #6720	; 0x1a40
 1d0:	64656c00 	strbtvs	r6, [r5], #-3072	; 0xc00
 1d4:	006e6f5f 	rsbeq	r6, lr, pc, asr pc
 1d8:	726f6873 	rsbvc	r6, pc, #7536640	; 0x730000
 1dc:	6e752074 	mrcvs	0, 3, r2, cr5, cr4, {3}
 1e0:	6e676973 	mcrvs	9, 3, r6, cr7, cr3, {3}
 1e4:	69206465 	stmdbvs	r0!, {r0, r2, r5, r6, sl, sp, lr}
 1e8:	6900746e 	stmdbvs	r0, {r1, r2, r3, r5, r6, sl, ip, sp, lr}
 1ec:	5f74696e 	svcpl	0x0074696e
 1f0:	6c007768 	stcvs	7, cr7, [r0], {104}	; 0x68
 1f4:	6f5f6465 	svcvs	0x005f6465
 1f8:	63006666 	movwvs	r6, #1638	; 0x666
 1fc:	735f7874 	cmpvc	pc, #7602176	; 0x740000
 200:	63746977 	cmnvs	r4, #1949696	; 0x1dc000
 204:	72665f68 	rsbvc	r5, r6, #416	; 0x1a0
 208:	695f6d6f 	ldmdbvs	pc, {r0, r1, r2, r3, r5, r6, r8, sl, fp, sp, lr}^	; <UNPREDICTABLE>
 20c:	73007172 	movwvc	r7, #370	; 0x172
 210:	64656863 	strbtvs	r6, [r5], #-2147	; 0x863
 214:	6300632e 	movwvs	r6, #814	; 0x32e
 218:	74616572 	strbtvc	r6, [r1], #-1394	; 0x572
 21c:	72705f65 	rsbsvc	r5, r0, #404	; 0x194
 220:	7365636f 	cmnvc	r5, #-1140850687	; 0xbc000001
 224:	65740073 	ldrbvs	r0, [r4, #-115]!	; 0x73
 228:	6e696d72 	mcrvs	13, 3, r6, cr9, cr2, {3}
 22c:	5f657461 	svcpl	0x00657461
 230:	636f7270 	cmnvs	pc, #7
 234:	00737365 	rsbseq	r7, r3, r5, ror #6
 238:	746e6f63 	strbtvc	r6, [lr], #-3939	; 0xf63
 23c:	00747865 	rsbseq	r7, r4, r5, ror #16
 240:	63617473 	cmnvs	r1, #1929379840	; 0x73000000
 244:	69735f6b 	ldmdbvs	r3!, {r0, r1, r3, r5, r6, r8, r9, sl, fp, ip, lr}^
 248:	7300657a 	movwvc	r6, #1402	; 0x57a
 24c:	74726174 	ldrbtvc	r6, [r2], #-372	; 0x174
 250:	6863735f 	stmdavs	r3!, {r0, r1, r2, r3, r4, r6, r8, r9, ip, sp, lr}^
 254:	70006465 	andvc	r6, r0, r5, ror #8
 258:	00636f72 	rsbeq	r6, r3, r2, ror pc
 25c:	5f787463 	svcpl	0x00787463
 260:	74697773 	strbtvc	r7, [r9], #-1907	; 0x773
 264:	73006863 	movwvc	r6, #2147	; 0x863
 268:	74726174 	ldrbtvc	r6, [r2], #-372	; 0x174
 26c:	7275635f 	rsbsvc	r6, r5, #2080374785	; 0x7c000001
 270:	746e6572 	strbtvc	r6, [lr], #-1394	; 0x572
 274:	6f72705f 	svcvs	0x0072705f
 278:	73736563 	cmnvc	r3, #415236096	; 0x18c00000
 27c:	77656e00 	strbvc	r6, [r5, -r0, lsl #28]!
 280:	6263705f 	rsbvs	r7, r3, #95	; 0x5f
 284:	696e6900 	stmdbvs	lr!, {r8, fp, sp, lr}^
 288:	63705f74 	cmnvs	r0, #464	; 0x1d0
 28c:	6e690062 	cdpvs	0, 6, cr0, cr9, cr2, {3}
 290:	635f7469 	cmpvs	pc, #1761607680	; 0x69000000
 294:	65007874 	strvs	r7, [r0, #-2164]	; 0x874
 298:	7463656c 	strbtvc	r6, [r3], #-1388	; 0x56c
 29c:	73797300 	cmnvc	r9, #0
 2a0:	6961775f 	stmdbvs	r1!, {r0, r1, r2, r3, r4, r6, r8, r9, sl, ip, sp, lr}^
 2a4:	6f640074 	svcvs	0x00640074
 2a8:	43737953 	cmnmi	r3, #1359872	; 0x14c000
 2ac:	576c6c61 	strbpl	r6, [ip, -r1, ror #24]!
 2b0:	00746961 	rsbseq	r6, r4, r1, ror #18
 2b4:	79536f64 	ldmdbvc	r3, {r2, r5, r6, r8, r9, sl, fp, sp, lr}^
 2b8:	6c614373 	stclvs	3, cr4, [r1], #-460	; 0xfffffe34
 2bc:	6265526c 	rsbvs	r5, r5, #-1073741818	; 0xc0000006
 2c0:	00746f6f 	rsbseq	r6, r4, pc, ror #30
 2c4:	5f737973 	svcpl	0x00737973
 2c8:	6f626572 	svcvs	0x00626572
 2cc:	5300746f 	movwpl	r7, #1135	; 0x46f
 2d0:	61484957 	cmpvs	r8, r7, asr r9
 2d4:	656c646e 	strbvs	r6, [ip, #-1134]!	; 0x46e
 2d8:	626e0072 	rsbvs	r0, lr, #114	; 0x72
 2dc:	6e617551 	mcrvs	5, 3, r7, cr1, cr1, {2}
 2e0:	736d7574 	cmnvc	sp, #486539264	; 0x1d000000
 2e4:	6d756e00 	ldclvs	14, cr6, [r5, #-0]
 2e8:	43737953 	cmnmi	r3, #1359872	; 0x14c000
 2ec:	006c6c61 	rsbeq	r6, ip, r1, ror #24
 2f0:	63737973 	cmnvs	r3, #1884160	; 0x1cc000
 2f4:	2e6c6c61 	cdpcs	12, 6, cr6, cr12, cr1, {3}
 2f8:	69750063 	ldmdbvs	r5!, {r0, r1, r5, r6}^
 2fc:	3233746e 	eorscc	r7, r3, #1845493760	; 0x6e000000
 300:	72696600 	rsbvc	r6, r9, #0
 304:	6c5f7473 	cfldrdvs	mvd7, [pc], {115}	; 0x73
 308:	6c657665 	stclvs	6, cr7, [r5], #-404	; 0xfffffe6c
 30c:	7365645f 	cmnvc	r5, #1593835520	; 0x5f000000
 310:	70697263 	rsbvc	r7, r9, r3, ror #4
 314:	00726f74 	rsbseq	r6, r2, r4, ror pc
 318:	73726966 	cmnvc	r2, #1671168	; 0x198000
 31c:	656c5f74 	strbvs	r5, [ip, #-3956]!	; 0xf74
 320:	5f6c6576 	svcpl	0x006c6576
 324:	72746e65 	rsbsvc	r6, r4, #1616	; 0x650
 328:	00736569 	rsbseq	r6, r3, r9, ror #10
 32c:	6e72656b 	cdpvs	5, 7, cr6, cr2, cr11, {3}
 330:	665f6c65 	ldrbvs	r6, [pc], -r5, ror #24
 334:	7367616c 	cmnvc	r7, #27
 338:	6e697500 	cdpvs	5, 6, cr7, cr9, cr0, {0}
 33c:	5f323374 	svcpl	0x00323374
 340:	65730074 	ldrbvs	r0, [r3, #-116]!	; 0x74
 344:	6c665f63 	stclvs	15, cr5, [r6], #-396	; 0xfffffe74
 348:	73006761 	movwvc	r6, #1889	; 0x761
 34c:	6e6f6365 	cdpvs	3, 6, cr6, cr15, cr5, {3}
 350:	656c5f64 	strbvs	r5, [ip, #-3940]!	; 0xf64
 354:	5f6c6576 	svcpl	0x006c6576
 358:	63736564 	cmnvs	r3, #419430400	; 0x19000000
 35c:	74706972 	ldrbtvc	r6, [r0], #-2418	; 0x972
 360:	6400726f 	strvs	r7, [r0], #-623	; 0x26f
 364:	63697665 	cmnvs	r9, #105906176	; 0x6500000
 368:	6c665f65 	stclvs	15, cr5, [r6], #-404	; 0xfffffe6c
 36c:	00736761 	rsbseq	r6, r3, r1, ror #14
 370:	74696e69 	strbtvc	r6, [r9], #-3689	; 0xe69
 374:	6761705f 			; <UNDEFINED> instruction: 0x6761705f
 378:	6f6e5f65 	svcvs	0x006e5f65
 37c:	6172745f 	cmnvs	r2, pc, asr r4
 380:	616c736e 	cmnvs	ip, lr, ror #6
 384:	6e6f6974 	mcrvs	9, 3, r6, cr15, cr4, {3}
 388:	656d7600 	strbvs	r7, [sp, #-1536]!	; 0x600
 38c:	6d762f6d 	ldclvs	15, cr2, [r6, #-436]!	; 0xfffffe4c
 390:	632e6d65 	teqvs	lr, #6464	; 0x1940
	...

Disassembly of section .debug_frame:

00000000 <.debug_frame>:
   0:	0000000c 	andeq	r0, r0, ip
   4:	ffffffff 			; <UNDEFINED> instruction: 0xffffffff
   8:	7c020001 	stcvc	0, cr0, [r2], {1}
   c:	000d0c0e 	andeq	r0, sp, lr, lsl #24
  10:	00000010 	andeq	r0, r0, r0, lsl r0
  14:	00000000 	andeq	r0, r0, r0
  18:	000080d0 	ldrdeq	r8, [r0], -r0
  1c:	00000040 	andeq	r0, r0, r0, asr #32
  20:	00080e42 	andeq	r0, r8, r2, asr #28
  24:	00000010 	andeq	r0, r0, r0, lsl r0
  28:	00000000 	andeq	r0, r0, r0
  2c:	00008110 	andeq	r8, r0, r0, lsl r1
  30:	0000001c 	andeq	r0, r0, ip, lsl r0
  34:	00080e42 	andeq	r0, r8, r2, asr #28
  38:	00000014 	andeq	r0, r0, r4, lsl r0
  3c:	00000000 	andeq	r0, r0, r0
  40:	0000812c 	andeq	r8, r0, ip, lsr #2
  44:	00000010 	andeq	r0, r0, r0, lsl r0
  48:	83080e42 	movwhi	r0, #36418	; 0x8e42
  4c:	00018e02 	andeq	r8, r1, r2, lsl #28
  50:	0000000c 	andeq	r0, r0, ip
  54:	ffffffff 			; <UNDEFINED> instruction: 0xffffffff
  58:	7c020001 	stcvc	0, cr0, [r2], {1}
  5c:	000d0c0e 	andeq	r0, sp, lr, lsl #24
  60:	00000018 	andeq	r0, r0, r8, lsl r0
  64:	00000050 	andeq	r0, r0, r0, asr r0
  68:	0000813c 	andeq	r8, r0, ip, lsr r1
  6c:	000000b4 	strheq	r0, [r0], -r4
  70:	84080e42 	strhi	r0, [r8], #-3650	; 0xe42
  74:	42018502 	andmi	r8, r1, #8388608	; 0x800000
  78:	0000100e 	andeq	r1, r0, lr
  7c:	00000014 	andeq	r0, r0, r4, lsl r0
  80:	00000050 	andeq	r0, r0, r0, asr r0
  84:	000081f0 	strdeq	r8, [r0], -r0
  88:	00000048 	andeq	r0, r0, r8, asr #32
  8c:	84040e42 	strhi	r0, [r4], #-3650	; 0xe42
  90:	100e4201 	andne	r4, lr, r1, lsl #4
  94:	00000010 	andeq	r0, r0, r0, lsl r0
  98:	00000050 	andeq	r0, r0, r0, asr r0
  9c:	00008238 	andeq	r8, r0, r8, lsr r2
  a0:	0000003c 	andeq	r0, r0, ip, lsr r0
  a4:	00080e42 	andeq	r0, r8, r2, asr #28
  a8:	0000000c 	andeq	r0, r0, ip
  ac:	ffffffff 			; <UNDEFINED> instruction: 0xffffffff
  b0:	7c020001 	stcvc	0, cr0, [r2], {1}
  b4:	000d0c0e 	andeq	r0, sp, lr, lsl #24
  b8:	00000014 	andeq	r0, r0, r4, lsl r0
  bc:	000000a8 	andeq	r0, r0, r8, lsr #1
  c0:	00008274 	andeq	r8, r0, r4, ror r2
  c4:	0000004c 	andeq	r0, r0, ip, asr #32
  c8:	8e040e42 	cdphi	14, 0, cr0, cr4, cr2, {2}
  cc:	100e4201 	andne	r4, lr, r1, lsl #4
  d0:	00000014 	andeq	r0, r0, r4, lsl r0
  d4:	000000a8 	andeq	r0, r0, r8, lsr #1
  d8:	000082c0 	andeq	r8, r0, r0, asr #5
  dc:	00000018 	andeq	r0, r0, r8, lsl r0
  e0:	83080e42 	movwhi	r0, #36418	; 0x8e42
  e4:	00018e02 	andeq	r8, r1, r2, lsl #28
  e8:	00000014 	andeq	r0, r0, r4, lsl r0
  ec:	000000a8 	andeq	r0, r0, r8, lsr #1
  f0:	000082d8 	ldrdeq	r8, [r0], -r8	; <UNPREDICTABLE>
  f4:	00000018 	andeq	r0, r0, r8, lsl r0
  f8:	83080e42 	movwhi	r0, #36418	; 0x8e42
  fc:	00018e02 	andeq	r8, r1, r2, lsl #28
 100:	00000014 	andeq	r0, r0, r4, lsl r0
 104:	000000a8 	andeq	r0, r0, r8, lsr #1
 108:	000082f0 	strdeq	r8, [r0], -r0
 10c:	000000c0 	andeq	r0, r0, r0, asr #1
 110:	8e040e42 	cdphi	14, 0, cr0, cr4, cr2, {2}
 114:	100e4201 	andne	r4, lr, r1, lsl #4
 118:	0000000c 	andeq	r0, r0, ip
 11c:	ffffffff 			; <UNDEFINED> instruction: 0xffffffff
 120:	7c020001 	stcvc	0, cr0, [r2], {1}
 124:	000d0c0e 	andeq	r0, sp, lr, lsl #24
 128:	00000014 	andeq	r0, r0, r4, lsl r0
 12c:	00000118 	andeq	r0, r0, r8, lsl r1
 130:	000083b0 			; <UNDEFINED> instruction: 0x000083b0
 134:	00000054 	andeq	r0, r0, r4, asr r0
 138:	8e040e42 	cdphi	14, 0, cr0, cr4, cr2, {2}
 13c:	180e4201 	stmdane	lr, {r0, r9, lr}
 140:	00000014 	andeq	r0, r0, r4, lsl r0
 144:	00000118 	andeq	r0, r0, r8, lsl r1
 148:	00008404 	andeq	r8, r0, r4, lsl #8
 14c:	0000006c 	andeq	r0, r0, ip, rrx
 150:	8e040e42 	cdphi	14, 0, cr0, cr4, cr2, {2}
 154:	200e4201 	andcs	r4, lr, r1, lsl #4
 158:	00000014 	andeq	r0, r0, r4, lsl r0
 15c:	00000118 	andeq	r0, r0, r8, lsl r1
 160:	00008470 	andeq	r8, r0, r0, ror r4
 164:	000000e8 	andeq	r0, r0, r8, ror #1
 168:	8e040e42 	cdphi	14, 0, cr0, cr4, cr2, {2}
 16c:	200e4201 	andcs	r4, lr, r1, lsl #4
 170:	00000014 	andeq	r0, r0, r4, lsl r0
 174:	00000118 	andeq	r0, r0, r8, lsl r1
 178:	00008558 	andeq	r8, r0, r8, asr r5
 17c:	00000068 	andeq	r0, r0, r8, rrx
 180:	83080e42 	movwhi	r0, #36418	; 0x8e42
 184:	00018e02 	andeq	r8, r1, r2, lsl #28
 188:	00000014 	andeq	r0, r0, r4, lsl r0
 18c:	00000118 	andeq	r0, r0, r8, lsl r1
 190:	000085c0 	andeq	r8, r0, r0, asr #11
 194:	000000f4 	strdeq	r0, [r0], -r4
 198:	8e040e42 	cdphi	14, 0, cr0, cr4, cr2, {2}
 19c:	100e4201 	andne	r4, lr, r1, lsl #4
 1a0:	0000000c 	andeq	r0, r0, ip
 1a4:	00000118 	andeq	r0, r0, r8, lsl r1
 1a8:	000086b4 			; <UNDEFINED> instruction: 0x000086b4
 1ac:	0000001c 	andeq	r0, r0, ip, lsl r0
 1b0:	00000014 	andeq	r0, r0, r4, lsl r0
 1b4:	00000118 	andeq	r0, r0, r8, lsl r1
 1b8:	000086d0 	ldrdeq	r8, [r0], -r0
 1bc:	00000038 	andeq	r0, r0, r8, lsr r0
 1c0:	83080e42 	movwhi	r0, #36418	; 0x8e42
 1c4:	00018e02 	andeq	r8, r1, r2, lsl #28
 1c8:	00000014 	andeq	r0, r0, r4, lsl r0
 1cc:	00000118 	andeq	r0, r0, r8, lsl r1
 1d0:	00008708 	andeq	r8, r0, r8, lsl #14
 1d4:	00000184 	andeq	r0, r0, r4, lsl #3
 1d8:	8e040e42 	cdphi	14, 0, cr0, cr4, cr2, {2}
 1dc:	100e4201 	andne	r4, lr, r1, lsl #4
 1e0:	0000000c 	andeq	r0, r0, ip
 1e4:	00000118 	andeq	r0, r0, r8, lsl r1
 1e8:	0000888c 	andeq	r8, r0, ip, lsl #17
 1ec:	00000114 	andeq	r0, r0, r4, lsl r1
 1f0:	0000000c 	andeq	r0, r0, ip
 1f4:	ffffffff 			; <UNDEFINED> instruction: 0xffffffff
 1f8:	7c020001 	stcvc	0, cr0, [r2], {1}
 1fc:	000d0c0e 	andeq	r0, sp, lr, lsl #24
 200:	00000014 	andeq	r0, r0, r4, lsl r0
 204:	000001f0 	strdeq	r0, [r0], -r0	; <UNPREDICTABLE>
 208:	000089a0 	andeq	r8, r0, r0, lsr #19
 20c:	00000014 	andeq	r0, r0, r4, lsl r0
 210:	8e040e42 	cdphi	14, 0, cr0, cr4, cr2, {2}
 214:	00000001 	andeq	r0, r0, r1
 218:	00000014 	andeq	r0, r0, r4, lsl r0
 21c:	000001f0 	strdeq	r0, [r0], -r0	; <UNPREDICTABLE>
 220:	000089b4 			; <UNDEFINED> instruction: 0x000089b4
 224:	00000028 	andeq	r0, r0, r8, lsr #32
 228:	8e040e42 	cdphi	14, 0, cr0, cr4, cr2, {2}
 22c:	100e4201 	andne	r4, lr, r1, lsl #4
 230:	0000000c 	andeq	r0, r0, ip
 234:	000001f0 	strdeq	r0, [r0], -r0	; <UNPREDICTABLE>
 238:	000089dc 	ldrdeq	r8, [r0], -ip
 23c:	00000004 	andeq	r0, r0, r4
 240:	00000014 	andeq	r0, r0, r4, lsl r0
 244:	000001f0 	strdeq	r0, [r0], -r0	; <UNPREDICTABLE>
 248:	000089e0 	andeq	r8, r0, r0, ror #19
 24c:	00000030 	andeq	r0, r0, r0, lsr r0
 250:	84040e42 	strhi	r0, [r4], #-3650	; 0xe42
 254:	100e4201 	andne	r4, lr, r1, lsl #4
 258:	00000018 	andeq	r0, r0, r8, lsl r0
 25c:	000001f0 	strdeq	r0, [r0], -r0	; <UNPREDICTABLE>
 260:	00008a10 	andeq	r8, r0, r0, lsl sl
 264:	00000048 	andeq	r0, r0, r8, asr #32
 268:	84080e42 	strhi	r0, [r8], #-3650	; 0xe42
 26c:	42018e02 	andmi	r8, r1, #32
 270:	0000100e 	andeq	r1, r0, lr
 274:	0000000c 	andeq	r0, r0, ip
 278:	ffffffff 			; <UNDEFINED> instruction: 0xffffffff
 27c:	7c020001 	stcvc	0, cr0, [r2], {1}
 280:	000d0c0e 	andeq	r0, sp, lr, lsl #24
 284:	00000010 	andeq	r0, r0, r0, lsl r0
 288:	00000274 	andeq	r0, r0, r4, ror r2
 28c:	00008a58 	andeq	r8, r0, r8, asr sl
 290:	00000088 	andeq	r0, r0, r8, lsl #1
 294:	00100e42 	andseq	r0, r0, r2, asr #28
 298:	00000014 	andeq	r0, r0, r4, lsl r0
 29c:	00000274 	andeq	r0, r0, r4, ror r2
 2a0:	00008ae0 	andeq	r8, r0, r0, ror #21
 2a4:	0000008c 	andeq	r0, r0, ip, lsl #1
 2a8:	8e040e42 	cdphi	14, 0, cr0, cr4, cr2, {2}
 2ac:	100e4201 	andne	r4, lr, r1, lsl #4
