
kernel.elf:     file format elf32-littlearm


Disassembly of section .text:

00008000 <_start>:
    8000:	e59ff018 	ldr	pc, [pc, #24]	; 8020 <reset_handler>
    8004:	e59ff018 	ldr	pc, [pc, #24]	; 8024 <undefined_handler>
    8008:	e59ff018 	ldr	pc, [pc, #24]	; 8028 <swi_handler>
    800c:	e59ff018 	ldr	pc, [pc, #24]	; 802c <prefetch_handler>
    8010:	e59ff018 	ldr	pc, [pc, #24]	; 8030 <data_handler>
    8014:	e59ff018 	ldr	pc, [pc, #24]	; 8034 <unused_handler>
    8018:	e59ff018 	ldr	pc, [pc, #24]	; 8038 <irq_handler>
    801c:	e59ff018 	ldr	pc, [pc, #24]	; 803c <fiq_handler>

00008020 <reset_handler>:
    8020:	00008040 	andeq	r8, r0, r0, asr #32

00008024 <undefined_handler>:
    8024:	00008084 	andeq	r8, r0, r4, lsl #1

00008028 <swi_handler>:
    8028:	000080cc 	andeq	r8, r0, ip, asr #1

0000802c <prefetch_handler>:
    802c:	00008088 	andeq	r8, r0, r8, lsl #1

00008030 <data_handler>:
    8030:	0000808c 	andeq	r8, r0, ip, lsl #1

00008034 <unused_handler>:
    8034:	00008090 	muleq	r0, r0, r0

00008038 <irq_handler>:
    8038:	000080c8 	andeq	r8, r0, r8, asr #1

0000803c <fiq_handler>:
    803c:	00008094 	muleq	r0, r4, r0

00008040 <reset>:
    8040:	e3a00902 	mov	r0, #32768	; 0x8000
    8044:	e3a01000 	mov	r1, #0
    8048:	e8b003fc 	ldm	r0!, {r2, r3, r4, r5, r6, r7, r8, r9}
    804c:	e8a103fc 	stmia	r1!, {r2, r3, r4, r5, r6, r7, r8, r9}
    8050:	e8b003fc 	ldm	r0!, {r2, r3, r4, r5, r6, r7, r8, r9}
    8054:	e8a103fc 	stmia	r1!, {r2, r3, r4, r5, r6, r7, r8, r9}
    8058:	e3a000d1 	mov	r0, #209	; 0xd1
    805c:	e121f000 	msr	CPSR_c, r0
    8060:	e3a0d90e 	mov	sp, #229376	; 0x38000
    8064:	e3a000d2 	mov	r0, #210	; 0xd2
    8068:	e121f000 	msr	CPSR_c, r0
    806c:	e3a0d701 	mov	sp, #262144	; 0x40000
    8070:	e3a000d3 	mov	r0, #211	; 0xd3
    8074:	e121f000 	msr	CPSR_c, r0
    8078:	e3a0d912 	mov	sp, #294912	; 0x48000
    807c:	eb00002a 	bl	812c <kmain>

00008080 <hang>:
    8080:	eafffffe 	b	8080 <hang>

00008084 <undefined>:
    8084:	eafffffe 	b	8084 <undefined>

00008088 <prefetch>:
    8088:	eafffffe 	b	8088 <prefetch>

0000808c <data>:
    808c:	eafffffe 	b	808c <data>

00008090 <unused>:
    8090:	eafffffe 	b	8090 <unused>

00008094 <fiq>:
    8094:	eafffffe 	b	8094 <fiq>

00008098 <PUT32>:
    8098:	e5801000 	str	r1, [r0]
    809c:	e12fff1e 	bx	lr

000080a0 <PUT16>:
    80a0:	e1c010b0 	strh	r1, [r0]
    80a4:	e12fff1e 	bx	lr

000080a8 <PUT8>:
    80a8:	e5c01000 	strb	r1, [r0]
    80ac:	e12fff1e 	bx	lr

000080b0 <GET32>:
    80b0:	e5900000 	ldr	r0, [r0]
    80b4:	e12fff1e 	bx	lr

000080b8 <GETPC>:
    80b8:	e1a0000e 	mov	r0, lr
    80bc:	e12fff1e 	bx	lr

000080c0 <BRANCHTO>:
    80c0:	e12fff10 	bx	r0

000080c4 <dummy>:
    80c4:	e12fff1e 	bx	lr

000080c8 <irq>:
    80c8:	ea0001b4 	b	87a0 <ctx_switch_from_irq>

000080cc <swi>:
    80cc:	ea000275 	b	8aa8 <SWIHandler>

000080d0 <funcA>:
    80d0:	e24dd008 	sub	sp, sp, #8
    80d4:	e3a03000 	mov	r3, #0
    80d8:	e58d3004 	str	r3, [sp, #4]
    80dc:	ea000000 	b	80e4 <funcA+0x14>
    80e0:	e1a00000 	nop			; (mov r0, r0)
    80e4:	e59d3004 	ldr	r3, [sp, #4]
    80e8:	e2833001 	add	r3, r3, #1
    80ec:	e58d3004 	str	r3, [sp, #4]
    80f0:	e59d2004 	ldr	r2, [sp, #4]
    80f4:	e59f3010 	ldr	r3, [pc, #16]	; 810c <funcA+0x3c>
    80f8:	e1520003 	cmp	r2, r3
    80fc:	dafffff7 	ble	80e0 <funcA+0x10>
    8100:	e3a03000 	mov	r3, #0
    8104:	e58d3004 	str	r3, [sp, #4]
    8108:	eafffff4 	b	80e0 <funcA+0x10>
    810c:	0016e360 	andseq	lr, r6, r0, ror #6

00008110 <funcB>:
    8110:	e24dd008 	sub	sp, sp, #8
    8114:	e3a03001 	mov	r3, #1
    8118:	e58d3004 	str	r3, [sp, #4]
    811c:	e59d3004 	ldr	r3, [sp, #4]
    8120:	e2833002 	add	r3, r3, #2
    8124:	e58d3004 	str	r3, [sp, #4]
    8128:	eafffffb 	b	811c <funcB+0xc>

0000812c <kmain>:
    812c:	e52de004 	push	{lr}		; (str lr, [sp, #-4]!)
    8130:	e24dd00c 	sub	sp, sp, #12
    8134:	eb00008a 	bl	8364 <init_hw>
    8138:	eb00026c 	bl	8af0 <init_kern_translation_table>
    813c:	eb0003db 	bl	90b0 <configure_mmu_C>
    8140:	eb0003ce 	bl	9080 <start_mmu_C>
    8144:	e3a00001 	mov	r0, #1
    8148:	eb00041d 	bl	91c4 <vMem_Alloc>
    814c:	e58d0004 	str	r0, [sp, #4]
    8150:	e59d3004 	ldr	r3, [sp, #4]
    8154:	e2833eff 	add	r3, r3, #4080	; 0xff0
    8158:	e283300c 	add	r3, r3, #12
    815c:	e3a0202a 	mov	r2, #42	; 0x2a
    8160:	e5832000 	str	r2, [r3]
    8164:	e59d0004 	ldr	r0, [sp, #4]
    8168:	e3a01001 	mov	r1, #1
    816c:	eb00046c 	bl	9324 <vMem_Free>
    8170:	e3a00001 	mov	r0, #1
    8174:	eb000412 	bl	91c4 <vMem_Alloc>
    8178:	e58d0004 	str	r0, [sp, #4]
    817c:	e59d3004 	ldr	r3, [sp, #4]
    8180:	e3a02032 	mov	r2, #50	; 0x32
    8184:	e5832000 	str	r2, [r3]
    8188:	e59d0004 	ldr	r0, [sp, #4]
    818c:	e3a01001 	mov	r1, #1
    8190:	eb000463 	bl	9324 <vMem_Free>
    8194:	e59d3004 	ldr	r3, [sp, #4]
    8198:	e3a02030 	mov	r2, #48	; 0x30
    819c:	e5832000 	str	r2, [r3]
    81a0:	e3a00001 	mov	r0, #1
    81a4:	eb000406 	bl	91c4 <vMem_Alloc>
    81a8:	e58d0000 	str	r0, [sp]
    81ac:	eafffffe 	b	81ac <kmain+0x80>

000081b0 <phyAlloc_alloc>:
    81b0:	e92d0030 	push	{r4, r5}
    81b4:	e24dd008 	sub	sp, sp, #8
    81b8:	e58d0004 	str	r0, [sp, #4]
    81bc:	e59f3094 	ldr	r3, [pc, #148]	; 8258 <phyAlloc_alloc+0xa8>
    81c0:	e5934000 	ldr	r4, [r3]
    81c4:	e59f508c 	ldr	r5, [pc, #140]	; 8258 <phyAlloc_alloc+0xa8>
    81c8:	ea000001 	b	81d4 <phyAlloc_alloc+0x24>
    81cc:	e1a05004 	mov	r5, r4
    81d0:	e5944000 	ldr	r4, [r4]
    81d4:	e3540000 	cmp	r4, #0
    81d8:	0a000003 	beq	81ec <phyAlloc_alloc+0x3c>
    81dc:	e5942004 	ldr	r2, [r4, #4]
    81e0:	e59d3004 	ldr	r3, [sp, #4]
    81e4:	e1520003 	cmp	r2, r3
    81e8:	3afffff7 	bcc	81cc <phyAlloc_alloc+0x1c>
    81ec:	e3540000 	cmp	r4, #0
    81f0:	1a000011 	bne	823c <phyAlloc_alloc+0x8c>
    81f4:	e59f3060 	ldr	r3, [pc, #96]	; 825c <phyAlloc_alloc+0xac>
    81f8:	e5934000 	ldr	r4, [r3]
    81fc:	e59f3058 	ldr	r3, [pc, #88]	; 825c <phyAlloc_alloc+0xac>
    8200:	e5932000 	ldr	r2, [r3]
    8204:	e59d3004 	ldr	r3, [sp, #4]
    8208:	e2833003 	add	r3, r3, #3
    820c:	e3c33003 	bic	r3, r3, #3
    8210:	e0822003 	add	r2, r2, r3
    8214:	e59f3040 	ldr	r3, [pc, #64]	; 825c <phyAlloc_alloc+0xac>
    8218:	e5832000 	str	r2, [r3]
    821c:	e59f3038 	ldr	r3, [pc, #56]	; 825c <phyAlloc_alloc+0xac>
    8220:	e5932000 	ldr	r2, [r3]
    8224:	e59f3034 	ldr	r3, [pc, #52]	; 8260 <phyAlloc_alloc+0xb0>
    8228:	e5933000 	ldr	r3, [r3]
    822c:	e1520003 	cmp	r2, r3
    8230:	9a000003 	bls	8244 <phyAlloc_alloc+0x94>
    8234:	e3a03000 	mov	r3, #0
    8238:	ea000002 	b	8248 <phyAlloc_alloc+0x98>
    823c:	e5943000 	ldr	r3, [r4]
    8240:	e5853000 	str	r3, [r5]
    8244:	e1a03004 	mov	r3, r4
    8248:	e1a00003 	mov	r0, r3
    824c:	e28dd008 	add	sp, sp, #8
    8250:	e8bd0030 	pop	{r4, r5}
    8254:	e12fff1e 	bx	lr
    8258:	0000949c 	muleq	r0, ip, r4
    825c:	000094a0 	andeq	r9, r0, r0, lsr #9
    8260:	000094a4 	andeq	r9, r0, r4, lsr #9

00008264 <phyAlloc_free>:
    8264:	e52d4004 	push	{r4}		; (str r4, [sp, #-4]!)
    8268:	e24dd00c 	sub	sp, sp, #12
    826c:	e58d0004 	str	r0, [sp, #4]
    8270:	e58d1000 	str	r1, [sp]
    8274:	e59d4004 	ldr	r4, [sp, #4]
    8278:	e59d3000 	ldr	r3, [sp]
    827c:	e2833003 	add	r3, r3, #3
    8280:	e3c33003 	bic	r3, r3, #3
    8284:	e5843004 	str	r3, [r4, #4]
    8288:	e59f3018 	ldr	r3, [pc, #24]	; 82a8 <phyAlloc_free+0x44>
    828c:	e5933000 	ldr	r3, [r3]
    8290:	e5843000 	str	r3, [r4]
    8294:	e59f300c 	ldr	r3, [pc, #12]	; 82a8 <phyAlloc_free+0x44>
    8298:	e5834000 	str	r4, [r3]
    829c:	e28dd00c 	add	sp, sp, #12
    82a0:	e8bd0010 	pop	{r4}
    82a4:	e12fff1e 	bx	lr
    82a8:	0000949c 	muleq	r0, ip, r4

000082ac <phyAlloc_init>:
    82ac:	e24dd008 	sub	sp, sp, #8
    82b0:	e58d0004 	str	r0, [sp, #4]
    82b4:	e58d1000 	str	r1, [sp]
    82b8:	e59f3020 	ldr	r3, [pc, #32]	; 82e0 <phyAlloc_init+0x34>
    82bc:	e59d2004 	ldr	r2, [sp, #4]
    82c0:	e5832000 	str	r2, [r3]
    82c4:	e59d2004 	ldr	r2, [sp, #4]
    82c8:	e59d3000 	ldr	r3, [sp]
    82cc:	e0822003 	add	r2, r2, r3
    82d0:	e59f300c 	ldr	r3, [pc, #12]	; 82e4 <phyAlloc_init+0x38>
    82d4:	e5832000 	str	r2, [r3]
    82d8:	e28dd008 	add	sp, sp, #8
    82dc:	e12fff1e 	bx	lr
    82e0:	000094a0 	andeq	r9, r0, r0, lsr #9
    82e4:	000094a4 	andeq	r9, r0, r4, lsr #9

000082e8 <set_tick_and_enable_timer>:
    82e8:	e52de004 	push	{lr}		; (str lr, [sp, #-4]!)
    82ec:	e24dd00c 	sub	sp, sp, #12
    82f0:	e59f0030 	ldr	r0, [pc, #48]	; 8328 <set_tick_and_enable_timer+0x40>
    82f4:	ebffff6d 	bl	80b0 <GET32>
    82f8:	e58d0004 	str	r0, [sp, #4]
    82fc:	e59d3004 	ldr	r3, [sp, #4]
    8300:	e2833702 	add	r3, r3, #524288	; 0x80000
    8304:	e58d3004 	str	r3, [sp, #4]
    8308:	e59f001c 	ldr	r0, [pc, #28]	; 832c <set_tick_and_enable_timer+0x44>
    830c:	e59d1004 	ldr	r1, [sp, #4]
    8310:	ebffff60 	bl	8098 <PUT32>
    8314:	e59f0014 	ldr	r0, [pc, #20]	; 8330 <set_tick_and_enable_timer+0x48>
    8318:	e3a01002 	mov	r1, #2
    831c:	ebffff5d 	bl	8098 <PUT32>
    8320:	e28dd00c 	add	sp, sp, #12
    8324:	e8bd8000 	pop	{pc}
    8328:	20003004 	andcs	r3, r0, r4
    832c:	20003010 	andcs	r3, r0, r0, lsl r0
    8330:	20003000 	andcs	r3, r0, r0

00008334 <led_off>:
    8334:	e92d4008 	push	{r3, lr}
    8338:	e59f0008 	ldr	r0, [pc, #8]	; 8348 <led_off+0x14>
    833c:	e3a01801 	mov	r1, #65536	; 0x10000
    8340:	ebffff54 	bl	8098 <PUT32>
    8344:	e8bd8008 	pop	{r3, pc}
    8348:	2020001c 	eorcs	r0, r0, ip, lsl r0

0000834c <led_on>:
    834c:	e92d4008 	push	{r3, lr}
    8350:	e59f0008 	ldr	r0, [pc, #8]	; 8360 <led_on+0x14>
    8354:	e3a01801 	mov	r1, #65536	; 0x10000
    8358:	ebffff4e 	bl	8098 <PUT32>
    835c:	e8bd8008 	pop	{r3, pc}
    8360:	20200028 	eorcs	r0, r0, r8, lsr #32

00008364 <init_hw>:
    8364:	e52de004 	push	{lr}		; (str lr, [sp, #-4]!)
    8368:	e24dd00c 	sub	sp, sp, #12
    836c:	e59f0098 	ldr	r0, [pc, #152]	; 840c <init_hw+0xa8>
    8370:	ebffff4e 	bl	80b0 <GET32>
    8374:	e58d0004 	str	r0, [sp, #4]
    8378:	e59d3004 	ldr	r3, [sp, #4]
    837c:	e3c33707 	bic	r3, r3, #1835008	; 0x1c0000
    8380:	e58d3004 	str	r3, [sp, #4]
    8384:	e59d3004 	ldr	r3, [sp, #4]
    8388:	e3833701 	orr	r3, r3, #262144	; 0x40000
    838c:	e58d3004 	str	r3, [sp, #4]
    8390:	e59f0074 	ldr	r0, [pc, #116]	; 840c <init_hw+0xa8>
    8394:	e59d1004 	ldr	r1, [sp, #4]
    8398:	ebffff3e 	bl	8098 <PUT32>
    839c:	e59f006c 	ldr	r0, [pc, #108]	; 8410 <init_hw+0xac>
    83a0:	e3a01801 	mov	r1, #65536	; 0x10000
    83a4:	ebffff3b 	bl	8098 <PUT32>
    83a8:	e59f0064 	ldr	r0, [pc, #100]	; 8414 <init_hw+0xb0>
    83ac:	ebffff3f 	bl	80b0 <GET32>
    83b0:	e58d0000 	str	r0, [sp]
    83b4:	e59d3000 	ldr	r3, [sp]
    83b8:	e2833702 	add	r3, r3, #524288	; 0x80000
    83bc:	e58d3000 	str	r3, [sp]
    83c0:	e59f0050 	ldr	r0, [pc, #80]	; 8418 <init_hw+0xb4>
    83c4:	e59d1000 	ldr	r1, [sp]
    83c8:	ebffff32 	bl	8098 <PUT32>
    83cc:	e59f0048 	ldr	r0, [pc, #72]	; 841c <init_hw+0xb8>
    83d0:	e3a01002 	mov	r1, #2
    83d4:	ebffff2f 	bl	8098 <PUT32>
    83d8:	e59f0040 	ldr	r0, [pc, #64]	; 8420 <init_hw+0xbc>
    83dc:	e3a01002 	mov	r1, #2
    83e0:	ebffff2c 	bl	8098 <PUT32>
    83e4:	e92d0001 	push	{r0}
    83e8:	e10f0000 	mrs	r0, CPSR
    83ec:	e3800080 	orr	r0, r0, #128	; 0x80
    83f0:	e121f000 	msr	CPSR_c, r0
    83f4:	e8bd0001 	pop	{r0}
    83f8:	e3a00805 	mov	r0, #327680	; 0x50000
    83fc:	e3a01a32 	mov	r1, #204800	; 0x32000
    8400:	ebffffa9 	bl	82ac <phyAlloc_init>
    8404:	e28dd00c 	add	sp, sp, #12
    8408:	e8bd8000 	pop	{pc}
    840c:	20200004 	eorcs	r0, r0, r4
    8410:	2020001c 	eorcs	r0, r0, ip, lsl r0
    8414:	20003004 	andcs	r3, r0, r4
    8418:	20003010 	andcs	r3, r0, r0, lsl r0
    841c:	20003000 	andcs	r3, r0, r0
    8420:	2000b210 	andcs	fp, r0, r0, lsl r2

00008424 <init_ctx>:
    8424:	e52de004 	push	{lr}		; (str lr, [sp, #-4]!)
    8428:	e24dd014 	sub	sp, sp, #20
    842c:	e58d000c 	str	r0, [sp, #12]
    8430:	e58d1008 	str	r1, [sp, #8]
    8434:	e58d2004 	str	r2, [sp, #4]
    8438:	e59d0004 	ldr	r0, [sp, #4]
    843c:	ebffff5b 	bl	81b0 <phyAlloc_alloc>
    8440:	e1a02000 	mov	r2, r0
    8444:	e59d300c 	ldr	r3, [sp, #12]
    8448:	e5832008 	str	r2, [r3, #8]
    844c:	e59d300c 	ldr	r3, [sp, #12]
    8450:	e5933008 	ldr	r3, [r3, #8]
    8454:	e2833e7f 	add	r3, r3, #2032	; 0x7f0
    8458:	e283300c 	add	r3, r3, #12
    845c:	e59d200c 	ldr	r2, [sp, #12]
    8460:	e5823000 	str	r3, [r2]
    8464:	e59d300c 	ldr	r3, [sp, #12]
    8468:	e59d2008 	ldr	r2, [sp, #8]
    846c:	e5832004 	str	r2, [r3, #4]
    8470:	e28dd014 	add	sp, sp, #20
    8474:	e8bd8000 	pop	{pc}

00008478 <init_pcb>:
    8478:	e52de004 	push	{lr}		; (str lr, [sp, #-4]!)
    847c:	e24dd01c 	sub	sp, sp, #28
    8480:	e58d000c 	str	r0, [sp, #12]
    8484:	e58d1008 	str	r1, [sp, #8]
    8488:	e58d2004 	str	r2, [sp, #4]
    848c:	e58d3000 	str	r3, [sp]
    8490:	e59d300c 	ldr	r3, [sp, #12]
    8494:	e59d2008 	ldr	r2, [sp, #8]
    8498:	e583200c 	str	r2, [r3, #12]
    849c:	e59d300c 	ldr	r3, [sp, #12]
    84a0:	e59d2000 	ldr	r2, [sp]
    84a4:	e5832004 	str	r2, [r3, #4]
    84a8:	e59d300c 	ldr	r3, [sp, #12]
    84ac:	e3a02000 	mov	r2, #0
    84b0:	e5832008 	str	r2, [r3, #8]
    84b4:	e3a0000c 	mov	r0, #12
    84b8:	ebffff3c 	bl	81b0 <phyAlloc_alloc>
    84bc:	e58d0014 	str	r0, [sp, #20]
    84c0:	e59d0014 	ldr	r0, [sp, #20]
    84c4:	e59d1008 	ldr	r1, [sp, #8]
    84c8:	e59d2004 	ldr	r2, [sp, #4]
    84cc:	ebffffd4 	bl	8424 <init_ctx>
    84d0:	e59d300c 	ldr	r3, [sp, #12]
    84d4:	e59d2014 	ldr	r2, [sp, #20]
    84d8:	e5832010 	str	r2, [r3, #16]
    84dc:	e59d300c 	ldr	r3, [sp, #12]
    84e0:	e3a02000 	mov	r2, #0
    84e4:	e5832014 	str	r2, [r3, #20]
    84e8:	e28dd01c 	add	sp, sp, #28
    84ec:	e8bd8000 	pop	{pc}

000084f0 <create_process>:
    84f0:	e52de004 	push	{lr}		; (str lr, [sp, #-4]!)
    84f4:	e24dd01c 	sub	sp, sp, #28
    84f8:	e58d000c 	str	r0, [sp, #12]
    84fc:	e58d1008 	str	r1, [sp, #8]
    8500:	e58d2004 	str	r2, [sp, #4]
    8504:	e3a0001c 	mov	r0, #28
    8508:	ebffff28 	bl	81b0 <phyAlloc_alloc>
    850c:	e58d0014 	str	r0, [sp, #20]
    8510:	e59d0014 	ldr	r0, [sp, #20]
    8514:	e59d100c 	ldr	r1, [sp, #12]
    8518:	e59d2004 	ldr	r2, [sp, #4]
    851c:	e59d3008 	ldr	r3, [sp, #8]
    8520:	ebffffd4 	bl	8478 <init_pcb>
    8524:	e59f30a8 	ldr	r3, [pc, #168]	; 85d4 <create_process+0xe4>
    8528:	e5933000 	ldr	r3, [r3]
    852c:	e5933014 	ldr	r3, [r3, #20]
    8530:	e3530000 	cmp	r3, #0
    8534:	0a000018 	beq	859c <create_process+0xac>
    8538:	e59f3094 	ldr	r3, [pc, #148]	; 85d4 <create_process+0xe4>
    853c:	e5933000 	ldr	r3, [r3]
    8540:	e5933014 	ldr	r3, [r3, #20]
    8544:	e3530001 	cmp	r3, #1
    8548:	0a000013 	beq	859c <create_process+0xac>
    854c:	e59f3080 	ldr	r3, [pc, #128]	; 85d4 <create_process+0xe4>
    8550:	e5933000 	ldr	r3, [r3]
    8554:	e5933014 	ldr	r3, [r3, #20]
    8558:	e3530003 	cmp	r3, #3
    855c:	0a00000e 	beq	859c <create_process+0xac>
    8560:	e59f306c 	ldr	r3, [pc, #108]	; 85d4 <create_process+0xe4>
    8564:	e5933000 	ldr	r3, [r3]
    8568:	e5933014 	ldr	r3, [r3, #20]
    856c:	e3530002 	cmp	r3, #2
    8570:	0a000009 	beq	859c <create_process+0xac>
    8574:	e59f3058 	ldr	r3, [pc, #88]	; 85d4 <create_process+0xe4>
    8578:	e59d2014 	ldr	r2, [sp, #20]
    857c:	e5832000 	str	r2, [r3]
    8580:	e59f304c 	ldr	r3, [pc, #76]	; 85d4 <create_process+0xe4>
    8584:	e59d2014 	ldr	r2, [sp, #20]
    8588:	e5832000 	str	r2, [r3]
    858c:	e59f3040 	ldr	r3, [pc, #64]	; 85d4 <create_process+0xe4>
    8590:	e59d2014 	ldr	r2, [sp, #20]
    8594:	e5832004 	str	r2, [r3, #4]
    8598:	ea00000b 	b	85cc <create_process+0xdc>
    859c:	e59f3030 	ldr	r3, [pc, #48]	; 85d4 <create_process+0xe4>
    85a0:	e5933004 	ldr	r3, [r3, #4]
    85a4:	e59d2014 	ldr	r2, [sp, #20]
    85a8:	e5832000 	str	r2, [r3]
    85ac:	e59f3020 	ldr	r3, [pc, #32]	; 85d4 <create_process+0xe4>
    85b0:	e59d2014 	ldr	r2, [sp, #20]
    85b4:	e5832004 	str	r2, [r3, #4]
    85b8:	e59f3014 	ldr	r3, [pc, #20]	; 85d4 <create_process+0xe4>
    85bc:	e5933004 	ldr	r3, [r3, #4]
    85c0:	e59f200c 	ldr	r2, [pc, #12]	; 85d4 <create_process+0xe4>
    85c4:	e5922000 	ldr	r2, [r2]
    85c8:	e5832000 	str	r2, [r3]
    85cc:	e28dd01c 	add	sp, sp, #28
    85d0:	e8bd8000 	pop	{pc}
    85d4:	000094c4 	andeq	r9, r0, r4, asr #9

000085d8 <start_current_process>:
    85d8:	e92d4008 	push	{r3, lr}
    85dc:	e92d0001 	push	{r0}
    85e0:	e10f0000 	mrs	r0, CPSR
    85e4:	e3c00080 	bic	r0, r0, #128	; 0x80
    85e8:	e121f000 	msr	CPSR_c, r0
    85ec:	e8bd0001 	pop	{r0}
    85f0:	ebffff3c 	bl	82e8 <set_tick_and_enable_timer>
    85f4:	e59f3040 	ldr	r3, [pc, #64]	; 863c <start_current_process+0x64>
    85f8:	e5933000 	ldr	r3, [r3]
    85fc:	e3a02002 	mov	r2, #2
    8600:	e5832014 	str	r2, [r3, #20]
    8604:	e59f3030 	ldr	r3, [pc, #48]	; 863c <start_current_process+0x64>
    8608:	e5933000 	ldr	r3, [r3]
    860c:	e593300c 	ldr	r3, [r3, #12]
    8610:	e12fff33 	blx	r3
    8614:	e92d0001 	push	{r0}
    8618:	e10f0000 	mrs	r0, CPSR
    861c:	e3800080 	orr	r0, r0, #128	; 0x80
    8620:	e121f000 	msr	CPSR_c, r0
    8624:	e8bd0001 	pop	{r0}
    8628:	e59f300c 	ldr	r3, [pc, #12]	; 863c <start_current_process+0x64>
    862c:	e5933000 	ldr	r3, [r3]
    8630:	e3a02003 	mov	r2, #3
    8634:	e5832014 	str	r2, [r3, #20]
    8638:	e8bd8008 	pop	{r3, pc}
    863c:	000094cc 	andeq	r9, r0, ip, asr #9

00008640 <terminate_process>:
    8640:	e52de004 	push	{lr}		; (str lr, [sp, #-4]!)
    8644:	e24dd00c 	sub	sp, sp, #12
    8648:	e59f30e0 	ldr	r3, [pc, #224]	; 8730 <terminate_process+0xf0>
    864c:	e5933000 	ldr	r3, [r3]
    8650:	e58d3004 	str	r3, [sp, #4]
    8654:	ea00002d 	b	8710 <terminate_process+0xd0>
    8658:	e59d3004 	ldr	r3, [sp, #4]
    865c:	e5933000 	ldr	r3, [r3]
    8660:	e58d3004 	str	r3, [sp, #4]
    8664:	ea000000 	b	866c <terminate_process+0x2c>
    8668:	e1a00000 	nop			; (mov r0, r0)
    866c:	e59d3004 	ldr	r3, [sp, #4]
    8670:	e5933000 	ldr	r3, [r3]
    8674:	e5933014 	ldr	r3, [r3, #20]
    8678:	e3530003 	cmp	r3, #3
    867c:	0a000005 	beq	8698 <terminate_process+0x58>
    8680:	e59d3004 	ldr	r3, [sp, #4]
    8684:	e5932000 	ldr	r2, [r3]
    8688:	e59f30a0 	ldr	r3, [pc, #160]	; 8730 <terminate_process+0xf0>
    868c:	e5933000 	ldr	r3, [r3]
    8690:	e1520003 	cmp	r2, r3
    8694:	1affffef 	bne	8658 <terminate_process+0x18>
    8698:	e59d3004 	ldr	r3, [sp, #4]
    869c:	e5933000 	ldr	r3, [r3]
    86a0:	e5933014 	ldr	r3, [r3, #20]
    86a4:	e3530003 	cmp	r3, #3
    86a8:	1a000018 	bne	8710 <terminate_process+0xd0>
    86ac:	e59d3004 	ldr	r3, [sp, #4]
    86b0:	e5933000 	ldr	r3, [r3]
    86b4:	e5933000 	ldr	r3, [r3]
    86b8:	e58d3000 	str	r3, [sp]
    86bc:	e59d3004 	ldr	r3, [sp, #4]
    86c0:	e5933000 	ldr	r3, [r3]
    86c4:	e5933010 	ldr	r3, [r3, #16]
    86c8:	e5933008 	ldr	r3, [r3, #8]
    86cc:	e1a00003 	mov	r0, r3
    86d0:	e3a01b02 	mov	r1, #2048	; 0x800
    86d4:	ebfffee2 	bl	8264 <phyAlloc_free>
    86d8:	e59d3004 	ldr	r3, [sp, #4]
    86dc:	e5933000 	ldr	r3, [r3]
    86e0:	e5933010 	ldr	r3, [r3, #16]
    86e4:	e1a00003 	mov	r0, r3
    86e8:	e3a0100c 	mov	r1, #12
    86ec:	ebfffedc 	bl	8264 <phyAlloc_free>
    86f0:	e59d3004 	ldr	r3, [sp, #4]
    86f4:	e5933000 	ldr	r3, [r3]
    86f8:	e1a00003 	mov	r0, r3
    86fc:	e3a0101c 	mov	r1, #28
    8700:	ebfffed7 	bl	8264 <phyAlloc_free>
    8704:	e59d3004 	ldr	r3, [sp, #4]
    8708:	e59d2000 	ldr	r2, [sp]
    870c:	e5832000 	str	r2, [r3]
    8710:	e59d3004 	ldr	r3, [sp, #4]
    8714:	e5932000 	ldr	r2, [r3]
    8718:	e59f3010 	ldr	r3, [pc, #16]	; 8730 <terminate_process+0xf0>
    871c:	e5933000 	ldr	r3, [r3]
    8720:	e1520003 	cmp	r2, r3
    8724:	1affffcf 	bne	8668 <terminate_process+0x28>
    8728:	e28dd00c 	add	sp, sp, #12
    872c:	e8bd8000 	pop	{pc}
    8730:	000094c4 	andeq	r9, r0, r4, asr #9

00008734 <elect>:
    8734:	ea000004 	b	874c <elect+0x18>
    8738:	e59f3024 	ldr	r3, [pc, #36]	; 8764 <elect+0x30>
    873c:	e5933000 	ldr	r3, [r3]
    8740:	e5932000 	ldr	r2, [r3]
    8744:	e59f3018 	ldr	r3, [pc, #24]	; 8764 <elect+0x30>
    8748:	e5832000 	str	r2, [r3]
    874c:	e59f3010 	ldr	r3, [pc, #16]	; 8764 <elect+0x30>
    8750:	e5933000 	ldr	r3, [r3]
    8754:	e5933008 	ldr	r3, [r3, #8]
    8758:	e3530000 	cmp	r3, #0
    875c:	1afffff5 	bne	8738 <elect+0x4>
    8760:	e12fff1e 	bx	lr
    8764:	000094cc 	andeq	r9, r0, ip, asr #9

00008768 <start_sched>:
    8768:	e92d4008 	push	{r3, lr}
    876c:	e92d0001 	push	{r0}
    8770:	e10f0000 	mrs	r0, CPSR
    8774:	e3c00080 	bic	r0, r0, #128	; 0x80
    8778:	e121f000 	msr	CPSR_c, r0
    877c:	e8bd0001 	pop	{r0}
    8780:	ebfffed8 	bl	82e8 <set_tick_and_enable_timer>
    8784:	e59f300c 	ldr	r3, [pc, #12]	; 8798 <start_sched+0x30>
    8788:	e5932000 	ldr	r2, [r3]
    878c:	e59f3008 	ldr	r3, [pc, #8]	; 879c <start_sched+0x34>
    8790:	e5832000 	str	r2, [r3]
    8794:	e8bd8008 	pop	{r3, pc}
    8798:	000094c4 	andeq	r9, r0, r4, asr #9
    879c:	000094cc 	andeq	r9, r0, ip, asr #9

000087a0 <ctx_switch_from_irq>:
    87a0:	e52de004 	push	{lr}		; (str lr, [sp, #-4]!)
    87a4:	e24dd00c 	sub	sp, sp, #12
    87a8:	e92d0001 	push	{r0}
    87ac:	e10f0000 	mrs	r0, CPSR
    87b0:	e3800080 	orr	r0, r0, #128	; 0x80
    87b4:	e121f000 	msr	CPSR_c, r0
    87b8:	e8bd0001 	pop	{r0}
    87bc:	e24ee004 	sub	lr, lr, #4
    87c0:	f96d0513 	srsdb	sp!, #19
    87c4:	f1020013 	cps	#19
    87c8:	e59f3150 	ldr	r3, [pc, #336]	; 8920 <ctx_switch_from_irq+0x180>
    87cc:	e5933000 	ldr	r3, [r3]
    87d0:	e3530000 	cmp	r3, #0
    87d4:	0a000013 	beq	8828 <ctx_switch_from_irq+0x88>
    87d8:	e59f3140 	ldr	r3, [pc, #320]	; 8920 <ctx_switch_from_irq+0x180>
    87dc:	e5933000 	ldr	r3, [r3]
    87e0:	e5933014 	ldr	r3, [r3, #20]
    87e4:	e3530000 	cmp	r3, #0
    87e8:	0a00000e 	beq	8828 <ctx_switch_from_irq+0x88>
    87ec:	e92d1fff 	push	{r0, r1, r2, r3, r4, r5, r6, r7, r8, r9, sl, fp, ip}
    87f0:	e59f3128 	ldr	r3, [pc, #296]	; 8920 <ctx_switch_from_irq+0x180>
    87f4:	e5933000 	ldr	r3, [r3]
    87f8:	e5933010 	ldr	r3, [r3, #16]
    87fc:	e1a0200d 	mov	r2, sp
    8800:	e5832000 	str	r2, [r3]
    8804:	e59f3114 	ldr	r3, [pc, #276]	; 8920 <ctx_switch_from_irq+0x180>
    8808:	e5933000 	ldr	r3, [r3]
    880c:	e5933010 	ldr	r3, [r3, #16]
    8810:	e1a0200e 	mov	r2, lr
    8814:	e5832004 	str	r2, [r3, #4]
    8818:	e59f3100 	ldr	r3, [pc, #256]	; 8920 <ctx_switch_from_irq+0x180>
    881c:	e5933000 	ldr	r3, [r3]
    8820:	e3a02001 	mov	r2, #1
    8824:	e5832014 	str	r2, [r3, #20]
    8828:	ebffffc1 	bl	8734 <elect>
    882c:	e59f30ec 	ldr	r3, [pc, #236]	; 8920 <ctx_switch_from_irq+0x180>
    8830:	e5933000 	ldr	r3, [r3]
    8834:	e5933014 	ldr	r3, [r3, #20]
    8838:	e3530003 	cmp	r3, #3
    883c:	1a000014 	bne	8894 <ctx_switch_from_irq+0xf4>
    8840:	e59f30d8 	ldr	r3, [pc, #216]	; 8920 <ctx_switch_from_irq+0x180>
    8844:	e5933000 	ldr	r3, [r3]
    8848:	e58d3004 	str	r3, [sp, #4]
    884c:	ea000002 	b	885c <ctx_switch_from_irq+0xbc>
    8850:	e59d3004 	ldr	r3, [sp, #4]
    8854:	e5933000 	ldr	r3, [r3]
    8858:	e58d3004 	str	r3, [sp, #4]
    885c:	e59d3004 	ldr	r3, [sp, #4]
    8860:	e5933000 	ldr	r3, [r3]
    8864:	e5933014 	ldr	r3, [r3, #20]
    8868:	e3530003 	cmp	r3, #3
    886c:	0afffff7 	beq	8850 <ctx_switch_from_irq+0xb0>
    8870:	e59d3004 	ldr	r3, [sp, #4]
    8874:	e5932000 	ldr	r2, [r3]
    8878:	e59f30a0 	ldr	r3, [pc, #160]	; 8920 <ctx_switch_from_irq+0x180>
    887c:	e5832000 	str	r2, [r3]
    8880:	ebffff6e 	bl	8640 <terminate_process>
    8884:	ea000002 	b	8894 <ctx_switch_from_irq+0xf4>
    8888:	ebffff52 	bl	85d8 <start_current_process>
    888c:	ebffffa8 	bl	8734 <elect>
    8890:	ea000000 	b	8898 <ctx_switch_from_irq+0xf8>
    8894:	e1a00000 	nop			; (mov r0, r0)
    8898:	e59f3080 	ldr	r3, [pc, #128]	; 8920 <ctx_switch_from_irq+0x180>
    889c:	e5933000 	ldr	r3, [r3]
    88a0:	e5933014 	ldr	r3, [r3, #20]
    88a4:	e3530000 	cmp	r3, #0
    88a8:	0afffff6 	beq	8888 <ctx_switch_from_irq+0xe8>
    88ac:	e59f306c 	ldr	r3, [pc, #108]	; 8920 <ctx_switch_from_irq+0x180>
    88b0:	e5933000 	ldr	r3, [r3]
    88b4:	e5933014 	ldr	r3, [r3, #20]
    88b8:	e3530001 	cmp	r3, #1
    88bc:	1a000003 	bne	88d0 <ctx_switch_from_irq+0x130>
    88c0:	e59f3058 	ldr	r3, [pc, #88]	; 8920 <ctx_switch_from_irq+0x180>
    88c4:	e5933000 	ldr	r3, [r3]
    88c8:	e3a02002 	mov	r2, #2
    88cc:	e5832014 	str	r2, [r3, #20]
    88d0:	e59f3048 	ldr	r3, [pc, #72]	; 8920 <ctx_switch_from_irq+0x180>
    88d4:	e5933000 	ldr	r3, [r3]
    88d8:	e5933010 	ldr	r3, [r3, #16]
    88dc:	e5933000 	ldr	r3, [r3]
    88e0:	e1a0d003 	mov	sp, r3
    88e4:	e59f3034 	ldr	r3, [pc, #52]	; 8920 <ctx_switch_from_irq+0x180>
    88e8:	e5933000 	ldr	r3, [r3]
    88ec:	e5933010 	ldr	r3, [r3, #16]
    88f0:	e5933004 	ldr	r3, [r3, #4]
    88f4:	e1a0e003 	mov	lr, r3
    88f8:	e8bd1fff 	pop	{r0, r1, r2, r3, r4, r5, r6, r7, r8, r9, sl, fp, ip}
    88fc:	e92d0001 	push	{r0}
    8900:	e10f0000 	mrs	r0, CPSR
    8904:	e3c00080 	bic	r0, r0, #128	; 0x80
    8908:	e121f000 	msr	CPSR_c, r0
    890c:	e8bd0001 	pop	{r0}
    8910:	ebfffe74 	bl	82e8 <set_tick_and_enable_timer>
    8914:	f8bd0a00 	rfeia	sp!
    8918:	e28dd00c 	add	sp, sp, #12
    891c:	e8bd8000 	pop	{pc}
    8920:	000094cc 	andeq	r9, r0, ip, asr #9

00008924 <ctx_switch>:
    8924:	e59f3108 	ldr	r3, [pc, #264]	; 8a34 <ctx_switch+0x110>
    8928:	e5933000 	ldr	r3, [r3]
    892c:	e5933014 	ldr	r3, [r3, #20]
    8930:	e3530000 	cmp	r3, #0
    8934:	1a000001 	bne	8940 <ctx_switch+0x1c>
    8938:	ebffff26 	bl	85d8 <start_current_process>
    893c:	ea000021 	b	89c8 <ctx_switch+0xa4>
    8940:	e59f30ec 	ldr	r3, [pc, #236]	; 8a34 <ctx_switch+0x110>
    8944:	e5933000 	ldr	r3, [r3]
    8948:	e5933014 	ldr	r3, [r3, #20]
    894c:	e3530003 	cmp	r3, #3
    8950:	1a00000c 	bne	8988 <ctx_switch+0x64>
    8954:	e59f30d8 	ldr	r3, [pc, #216]	; 8a34 <ctx_switch+0x110>
    8958:	e5934000 	ldr	r4, [r3]
    895c:	ea000000 	b	8964 <ctx_switch+0x40>
    8960:	e5944000 	ldr	r4, [r4]
    8964:	e5943000 	ldr	r3, [r4]
    8968:	e5933014 	ldr	r3, [r3, #20]
    896c:	e3530003 	cmp	r3, #3
    8970:	0afffffa 	beq	8960 <ctx_switch+0x3c>
    8974:	e5942000 	ldr	r2, [r4]
    8978:	e59f30b4 	ldr	r3, [pc, #180]	; 8a34 <ctx_switch+0x110>
    897c:	e5832000 	str	r2, [r3]
    8980:	ebffff2e 	bl	8640 <terminate_process>
    8984:	ea00000f 	b	89c8 <ctx_switch+0xa4>
    8988:	e92d1fff 	push	{r0, r1, r2, r3, r4, r5, r6, r7, r8, r9, sl, fp, ip}
    898c:	e59f30a0 	ldr	r3, [pc, #160]	; 8a34 <ctx_switch+0x110>
    8990:	e5933000 	ldr	r3, [r3]
    8994:	e5933010 	ldr	r3, [r3, #16]
    8998:	e1a0200d 	mov	r2, sp
    899c:	e5832000 	str	r2, [r3]
    89a0:	e59f308c 	ldr	r3, [pc, #140]	; 8a34 <ctx_switch+0x110>
    89a4:	e5933000 	ldr	r3, [r3]
    89a8:	e5933010 	ldr	r3, [r3, #16]
    89ac:	e1a0200e 	mov	r2, lr
    89b0:	e5832004 	str	r2, [r3, #4]
    89b4:	e59f3078 	ldr	r3, [pc, #120]	; 8a34 <ctx_switch+0x110>
    89b8:	e5933000 	ldr	r3, [r3]
    89bc:	e3a02001 	mov	r2, #1
    89c0:	e5832014 	str	r2, [r3, #20]
    89c4:	ebffff5a 	bl	8734 <elect>
    89c8:	e59f3064 	ldr	r3, [pc, #100]	; 8a34 <ctx_switch+0x110>
    89cc:	e5933000 	ldr	r3, [r3]
    89d0:	e5933014 	ldr	r3, [r3, #20]
    89d4:	e3530000 	cmp	r3, #0
    89d8:	1a000000 	bne	89e0 <ctx_switch+0xbc>
    89dc:	ebfffefd 	bl	85d8 <start_current_process>
    89e0:	e59f304c 	ldr	r3, [pc, #76]	; 8a34 <ctx_switch+0x110>
    89e4:	e5933000 	ldr	r3, [r3]
    89e8:	e5933014 	ldr	r3, [r3, #20]
    89ec:	e3530001 	cmp	r3, #1
    89f0:	1a00000f 	bne	8a34 <ctx_switch+0x110>
    89f4:	e59f3038 	ldr	r3, [pc, #56]	; 8a34 <ctx_switch+0x110>
    89f8:	e5933000 	ldr	r3, [r3]
    89fc:	e3a02002 	mov	r2, #2
    8a00:	e5832014 	str	r2, [r3, #20]
    8a04:	e59f3028 	ldr	r3, [pc, #40]	; 8a34 <ctx_switch+0x110>
    8a08:	e5933000 	ldr	r3, [r3]
    8a0c:	e5933010 	ldr	r3, [r3, #16]
    8a10:	e5933000 	ldr	r3, [r3]
    8a14:	e1a0d003 	mov	sp, r3
    8a18:	e59f3014 	ldr	r3, [pc, #20]	; 8a34 <ctx_switch+0x110>
    8a1c:	e5933000 	ldr	r3, [r3]
    8a20:	e5933010 	ldr	r3, [r3, #16]
    8a24:	e5933004 	ldr	r3, [r3, #4]
    8a28:	e1a0e003 	mov	lr, r3
    8a2c:	e8bd1fff 	pop	{r0, r1, r2, r3, r4, r5, r6, r7, r8, r9, sl, fp, ip}
    8a30:	e12fff1e 	bx	lr
    8a34:	000094cc 	andeq	r9, r0, ip, asr #9

00008a38 <sys_reboot>:
    8a38:	e52de004 	push	{lr}		; (str lr, [sp, #-4]!)
    8a3c:	e3a03001 	mov	r3, #1
    8a40:	e1a00003 	mov	r0, r3
    8a44:	ef000000 	svc	0x00000000
    8a48:	e49df004 	pop	{pc}		; (ldr pc, [sp], #4)

00008a4c <sys_wait>:
    8a4c:	e52de004 	push	{lr}		; (str lr, [sp, #-4]!)
    8a50:	e24dd00c 	sub	sp, sp, #12
    8a54:	e58d0004 	str	r0, [sp, #4]
    8a58:	e3a03001 	mov	r3, #1
    8a5c:	e1a00003 	mov	r0, r3
    8a60:	e59d3004 	ldr	r3, [sp, #4]
    8a64:	e1a01003 	mov	r1, r3
    8a68:	ef000000 	svc	0x00000000
    8a6c:	e28dd00c 	add	sp, sp, #12
    8a70:	e8bd8000 	pop	{pc}

00008a74 <doSysCallReboot>:
    8a74:	e12fff1e 	bx	lr

00008a78 <doSysCallWait>:
    8a78:	e52d4004 	push	{r4}		; (str r4, [sp, #-4]!)
    8a7c:	e24dd00c 	sub	sp, sp, #12
    8a80:	e1a04001 	mov	r4, r1
    8a84:	e58d4004 	str	r4, [sp, #4]
    8a88:	e59f3014 	ldr	r3, [pc, #20]	; 8aa4 <doSysCallWait+0x2c>
    8a8c:	e5933000 	ldr	r3, [r3]
    8a90:	e59d2004 	ldr	r2, [sp, #4]
    8a94:	e5832008 	str	r2, [r3, #8]
    8a98:	e28dd00c 	add	sp, sp, #12
    8a9c:	e8bd0010 	pop	{r4}
    8aa0:	e12fff1e 	bx	lr
    8aa4:	000094cc 	andeq	r9, r0, ip, asr #9

00008aa8 <SWIHandler>:
    8aa8:	e92d4010 	push	{r4, lr}
    8aac:	e24dd008 	sub	sp, sp, #8
    8ab0:	e3a03000 	mov	r3, #0
    8ab4:	e58d3004 	str	r3, [sp, #4]
    8ab8:	e1a04000 	mov	r4, r0
    8abc:	e58d4004 	str	r4, [sp, #4]
    8ac0:	e59d3004 	ldr	r3, [sp, #4]
    8ac4:	e3530001 	cmp	r3, #1
    8ac8:	0a000002 	beq	8ad8 <SWIHandler+0x30>
    8acc:	e3530002 	cmp	r3, #2
    8ad0:	0a000002 	beq	8ae0 <SWIHandler+0x38>
    8ad4:	ea000003 	b	8ae8 <SWIHandler+0x40>
    8ad8:	ebffffe5 	bl	8a74 <doSysCallReboot>
    8adc:	ea000001 	b	8ae8 <SWIHandler+0x40>
    8ae0:	ebffffe4 	bl	8a78 <doSysCallWait>
    8ae4:	e1a00000 	nop			; (mov r0, r0)
    8ae8:	e28dd008 	add	sp, sp, #8
    8aec:	e8bd8010 	pop	{r4, pc}

00008af0 <init_kern_translation_table>:
    8af0:	e52de004 	push	{lr}		; (str lr, [sp, #-4]!)
    8af4:	e24dd00c 	sub	sp, sp, #12
    8af8:	e59f3118 	ldr	r3, [pc, #280]	; 8c18 <init_kern_translation_table+0x128>
    8afc:	e3a02912 	mov	r2, #294912	; 0x48000
    8b00:	e5832000 	str	r2, [r3]
    8b04:	e3a03000 	mov	r3, #0
    8b08:	e58d3004 	str	r3, [sp, #4]
    8b0c:	ea000008 	b	8b34 <init_kern_translation_table+0x44>
    8b10:	e59f3100 	ldr	r3, [pc, #256]	; 8c18 <init_kern_translation_table+0x128>
    8b14:	e5932000 	ldr	r2, [r3]
    8b18:	e59d3004 	ldr	r3, [sp, #4]
    8b1c:	e0823003 	add	r3, r2, r3
    8b20:	e3a02000 	mov	r2, #0
    8b24:	e5c32000 	strb	r2, [r3]
    8b28:	e59d3004 	ldr	r3, [sp, #4]
    8b2c:	e2833001 	add	r3, r3, #1
    8b30:	e58d3004 	str	r3, [sp, #4]
    8b34:	e59d2004 	ldr	r2, [sp, #4]
    8b38:	e59f30dc 	ldr	r3, [pc, #220]	; 8c1c <init_kern_translation_table+0x12c>
    8b3c:	e1520003 	cmp	r2, r3
    8b40:	dafffff2 	ble	8b10 <init_kern_translation_table+0x20>
    8b44:	e59f30d4 	ldr	r3, [pc, #212]	; 8c20 <init_kern_translation_table+0x130>
    8b48:	e3a02805 	mov	r2, #327680	; 0x50000
    8b4c:	e5832000 	str	r2, [r3]
    8b50:	e3a03000 	mov	r3, #0
    8b54:	e58d3004 	str	r3, [sp, #4]
    8b58:	ea000008 	b	8b80 <init_kern_translation_table+0x90>
    8b5c:	e59f30bc 	ldr	r3, [pc, #188]	; 8c20 <init_kern_translation_table+0x130>
    8b60:	e5932000 	ldr	r2, [r3]
    8b64:	e59d3004 	ldr	r3, [sp, #4]
    8b68:	e0823003 	add	r3, r2, r3
    8b6c:	e3a02000 	mov	r2, #0
    8b70:	e5c32000 	strb	r2, [r3]
    8b74:	e59d3004 	ldr	r3, [sp, #4]
    8b78:	e2833001 	add	r3, r3, #1
    8b7c:	e58d3004 	str	r3, [sp, #4]
    8b80:	e59d2004 	ldr	r2, [sp, #4]
    8b84:	e59f3098 	ldr	r3, [pc, #152]	; 8c24 <init_kern_translation_table+0x134>
    8b88:	e1520003 	cmp	r2, r3
    8b8c:	dafffff2 	ble	8b5c <init_kern_translation_table+0x6c>
    8b90:	e3a03601 	mov	r3, #1048576	; 0x100000
    8b94:	e58d3000 	str	r3, [sp]
    8b98:	e3a03000 	mov	r3, #0
    8b9c:	e58d3004 	str	r3, [sp, #4]
    8ba0:	ea000008 	b	8bc8 <init_kern_translation_table+0xd8>
    8ba4:	e59d3004 	ldr	r3, [sp, #4]
    8ba8:	e1a03103 	lsl	r3, r3, #2
    8bac:	e59d2000 	ldr	r2, [sp]
    8bb0:	e0823003 	add	r3, r2, r3
    8bb4:	e3a02000 	mov	r2, #0
    8bb8:	e5832000 	str	r2, [r3]
    8bbc:	e59d3004 	ldr	r3, [sp, #4]
    8bc0:	e2833001 	add	r3, r3, #1
    8bc4:	e58d3004 	str	r3, [sp, #4]
    8bc8:	e59d2004 	ldr	r2, [sp, #4]
    8bcc:	e59f3054 	ldr	r3, [pc, #84]	; 8c28 <init_kern_translation_table+0x138>
    8bd0:	e1520003 	cmp	r2, r3
    8bd4:	dafffff2 	ble	8ba4 <init_kern_translation_table+0xb4>
    8bd8:	eb00007a 	bl	8dc8 <new_first_table>
    8bdc:	e1a02000 	mov	r2, r0
    8be0:	e59f3044 	ldr	r3, [pc, #68]	; 8c2c <init_kern_translation_table+0x13c>
    8be4:	e5832000 	str	r2, [r3]
    8be8:	e59f303c 	ldr	r3, [pc, #60]	; 8c2c <init_kern_translation_table+0x13c>
    8bec:	e5932000 	ldr	r2, [r3]
    8bf0:	e59f3038 	ldr	r3, [pc, #56]	; 8c30 <init_kern_translation_table+0x140>
    8bf4:	e5832000 	str	r2, [r3]
    8bf8:	e59f302c 	ldr	r3, [pc, #44]	; 8c2c <init_kern_translation_table+0x13c>
    8bfc:	e5933000 	ldr	r3, [r3]
    8c00:	e1a00003 	mov	r0, r3
    8c04:	eb00000a 	bl	8c34 <init_no_translation_pages>
    8c08:	e3a03000 	mov	r3, #0
    8c0c:	e1a00003 	mov	r0, r3
    8c10:	e28dd00c 	add	sp, sp, #12
    8c14:	e8bd8000 	pop	{pc}
    8c18:	000094ac 	andeq	r9, r0, ip, lsr #9
    8c1c:	00001fff 	strdeq	r1, [r0], -pc	; <UNPREDICTABLE>
    8c20:	000094a8 	andeq	r9, r0, r8, lsr #9
    8c24:	00020fff 	strdeq	r0, [r2], -pc	; <UNPREDICTABLE>
    8c28:	000003ff 	strdeq	r0, [r0], -pc	; <UNPREDICTABLE>
    8c2c:	000094b0 			; <UNDEFINED> instruction: 0x000094b0
    8c30:	000094d4 	ldrdeq	r9, [r0], -r4

00008c34 <init_no_translation_pages>:
    8c34:	e52de004 	push	{lr}		; (str lr, [sp, #-4]!)
    8c38:	e24dd024 	sub	sp, sp, #36	; 0x24
    8c3c:	e58d0004 	str	r0, [sp, #4]
    8c40:	e3a03000 	mov	r3, #0
    8c44:	e58d301c 	str	r3, [sp, #28]
    8c48:	ea000025 	b	8ce4 <init_no_translation_pages+0xb0>
    8c4c:	eb0000ca 	bl	8f7c <new_second_table>
    8c50:	e58d0010 	str	r0, [sp, #16]
    8c54:	e59d301c 	ldr	r3, [sp, #28]
    8c58:	e1a03103 	lsl	r3, r3, #2
    8c5c:	e59d2004 	ldr	r2, [sp, #4]
    8c60:	e0822003 	add	r2, r2, r3
    8c64:	e59d3010 	ldr	r3, [sp, #16]
    8c68:	e3c33fff 	bic	r3, r3, #1020	; 0x3fc
    8c6c:	e3c33003 	bic	r3, r3, #3
    8c70:	e3833001 	orr	r3, r3, #1
    8c74:	e5823000 	str	r3, [r2]
    8c78:	e3a03000 	mov	r3, #0
    8c7c:	e58d3018 	str	r3, [sp, #24]
    8c80:	ea000011 	b	8ccc <init_no_translation_pages+0x98>
    8c84:	e59d3018 	ldr	r3, [sp, #24]
    8c88:	e1a03103 	lsl	r3, r3, #2
    8c8c:	e59d2010 	ldr	r2, [sp, #16]
    8c90:	e0822003 	add	r2, r2, r3
    8c94:	e59d301c 	ldr	r3, [sp, #28]
    8c98:	e1a01a03 	lsl	r1, r3, #20
    8c9c:	e59d3018 	ldr	r3, [sp, #24]
    8ca0:	e1a03603 	lsl	r3, r3, #12
    8ca4:	e0813003 	add	r3, r1, r3
    8ca8:	e3c33eff 	bic	r3, r3, #4080	; 0xff0
    8cac:	e3c3300f 	bic	r3, r3, #15
    8cb0:	e59f1108 	ldr	r1, [pc, #264]	; 8dc0 <init_no_translation_pages+0x18c>
    8cb4:	e5911000 	ldr	r1, [r1]
    8cb8:	e1833001 	orr	r3, r3, r1
    8cbc:	e5823000 	str	r3, [r2]
    8cc0:	e59d3018 	ldr	r3, [sp, #24]
    8cc4:	e2833001 	add	r3, r3, #1
    8cc8:	e58d3018 	str	r3, [sp, #24]
    8ccc:	e59d3018 	ldr	r3, [sp, #24]
    8cd0:	e35300ff 	cmp	r3, #255	; 0xff
    8cd4:	daffffea 	ble	8c84 <init_no_translation_pages+0x50>
    8cd8:	e59d301c 	ldr	r3, [sp, #28]
    8cdc:	e2833001 	add	r3, r3, #1
    8ce0:	e58d301c 	str	r3, [sp, #28]
    8ce4:	e59d301c 	ldr	r3, [sp, #28]
    8ce8:	e3530004 	cmp	r3, #4
    8cec:	daffffd6 	ble	8c4c <init_no_translation_pages+0x18>
    8cf0:	e3a03c02 	mov	r3, #512	; 0x200
    8cf4:	e58d300c 	str	r3, [sp, #12]
    8cf8:	e3a03000 	mov	r3, #0
    8cfc:	e58d301c 	str	r3, [sp, #28]
    8d00:	ea000029 	b	8dac <init_no_translation_pages+0x178>
    8d04:	eb00009c 	bl	8f7c <new_second_table>
    8d08:	e58d0008 	str	r0, [sp, #8]
    8d0c:	e59d200c 	ldr	r2, [sp, #12]
    8d10:	e59d301c 	ldr	r3, [sp, #28]
    8d14:	e0823003 	add	r3, r2, r3
    8d18:	e1a03103 	lsl	r3, r3, #2
    8d1c:	e59d2004 	ldr	r2, [sp, #4]
    8d20:	e0822003 	add	r2, r2, r3
    8d24:	e59d3008 	ldr	r3, [sp, #8]
    8d28:	e3c33fff 	bic	r3, r3, #1020	; 0x3fc
    8d2c:	e3c33003 	bic	r3, r3, #3
    8d30:	e3833001 	orr	r3, r3, #1
    8d34:	e5823000 	str	r3, [r2]
    8d38:	e3a03000 	mov	r3, #0
    8d3c:	e58d3014 	str	r3, [sp, #20]
    8d40:	ea000013 	b	8d94 <init_no_translation_pages+0x160>
    8d44:	e59d3014 	ldr	r3, [sp, #20]
    8d48:	e1a03103 	lsl	r3, r3, #2
    8d4c:	e59d2008 	ldr	r2, [sp, #8]
    8d50:	e0822003 	add	r2, r2, r3
    8d54:	e59d301c 	ldr	r3, [sp, #28]
    8d58:	e1a03a03 	lsl	r3, r3, #20
    8d5c:	e1a01003 	mov	r1, r3
    8d60:	e59d3014 	ldr	r3, [sp, #20]
    8d64:	e1a03603 	lsl	r3, r3, #12
    8d68:	e0813003 	add	r3, r1, r3
    8d6c:	e2833202 	add	r3, r3, #536870912	; 0x20000000
    8d70:	e3c33eff 	bic	r3, r3, #4080	; 0xff0
    8d74:	e3c3300f 	bic	r3, r3, #15
    8d78:	e59f1044 	ldr	r1, [pc, #68]	; 8dc4 <init_no_translation_pages+0x190>
    8d7c:	e5911000 	ldr	r1, [r1]
    8d80:	e1833001 	orr	r3, r3, r1
    8d84:	e5823000 	str	r3, [r2]
    8d88:	e59d3014 	ldr	r3, [sp, #20]
    8d8c:	e2833001 	add	r3, r3, #1
    8d90:	e58d3014 	str	r3, [sp, #20]
    8d94:	e59d3014 	ldr	r3, [sp, #20]
    8d98:	e35300ff 	cmp	r3, #255	; 0xff
    8d9c:	daffffe8 	ble	8d44 <init_no_translation_pages+0x110>
    8da0:	e59d301c 	ldr	r3, [sp, #28]
    8da4:	e2833001 	add	r3, r3, #1
    8da8:	e58d301c 	str	r3, [sp, #28]
    8dac:	e59d301c 	ldr	r3, [sp, #28]
    8db0:	e353000f 	cmp	r3, #15
    8db4:	daffffd2 	ble	8d04 <init_no_translation_pages+0xd0>
    8db8:	e28dd024 	add	sp, sp, #36	; 0x24
    8dbc:	e8bd8000 	pop	{pc}
    8dc0:	000094b8 			; <UNDEFINED> instruction: 0x000094b8
    8dc4:	000094b4 			; <UNDEFINED> instruction: 0x000094b4

00008dc8 <new_first_table>:
    8dc8:	e24dd010 	sub	sp, sp, #16
    8dcc:	e3a03000 	mov	r3, #0
    8dd0:	e58d300c 	str	r3, [sp, #12]
    8dd4:	ea000032 	b	8ea4 <new_first_table+0xdc>
    8dd8:	e59d300c 	ldr	r3, [sp, #12]
    8ddc:	e58d3008 	str	r3, [sp, #8]
    8de0:	ea000027 	b	8e84 <new_first_table+0xbc>
    8de4:	e59f30d8 	ldr	r3, [pc, #216]	; 8ec4 <new_first_table+0xfc>
    8de8:	e5932000 	ldr	r2, [r3]
    8dec:	e59d3008 	ldr	r3, [sp, #8]
    8df0:	e0823003 	add	r3, r2, r3
    8df4:	e5d33000 	ldrb	r3, [r3]
    8df8:	e3530000 	cmp	r3, #0
    8dfc:	0a000003 	beq	8e10 <new_first_table+0x48>
    8e00:	e59d3008 	ldr	r3, [sp, #8]
    8e04:	e2833001 	add	r3, r3, #1
    8e08:	e58d300c 	str	r3, [sp, #12]
    8e0c:	ea000021 	b	8e98 <new_first_table+0xd0>
    8e10:	e59d300c 	ldr	r3, [sp, #12]
    8e14:	e283200f 	add	r2, r3, #15
    8e18:	e59d3008 	ldr	r3, [sp, #8]
    8e1c:	e1520003 	cmp	r2, r3
    8e20:	1a000014 	bne	8e78 <new_first_table+0xb0>
    8e24:	e3a03000 	mov	r3, #0
    8e28:	e58d3004 	str	r3, [sp, #4]
    8e2c:	ea00000a 	b	8e5c <new_first_table+0x94>
    8e30:	e59f308c 	ldr	r3, [pc, #140]	; 8ec4 <new_first_table+0xfc>
    8e34:	e5932000 	ldr	r2, [r3]
    8e38:	e59d100c 	ldr	r1, [sp, #12]
    8e3c:	e59d3004 	ldr	r3, [sp, #4]
    8e40:	e0813003 	add	r3, r1, r3
    8e44:	e0823003 	add	r3, r2, r3
    8e48:	e3a02001 	mov	r2, #1
    8e4c:	e5c32000 	strb	r2, [r3]
    8e50:	e59d3004 	ldr	r3, [sp, #4]
    8e54:	e2833001 	add	r3, r3, #1
    8e58:	e58d3004 	str	r3, [sp, #4]
    8e5c:	e59d3004 	ldr	r3, [sp, #4]
    8e60:	e353000f 	cmp	r3, #15
    8e64:	dafffff1 	ble	8e30 <new_first_table+0x68>
    8e68:	e59d300c 	ldr	r3, [sp, #12]
    8e6c:	e2833b01 	add	r3, r3, #1024	; 0x400
    8e70:	e1a03503 	lsl	r3, r3, #10
    8e74:	ea00000f 	b	8eb8 <new_first_table+0xf0>
    8e78:	e59d3008 	ldr	r3, [sp, #8]
    8e7c:	e2833001 	add	r3, r3, #1
    8e80:	e58d3008 	str	r3, [sp, #8]
    8e84:	e59d300c 	ldr	r3, [sp, #12]
    8e88:	e2832010 	add	r2, r3, #16
    8e8c:	e59d3008 	ldr	r3, [sp, #8]
    8e90:	e1520003 	cmp	r2, r3
    8e94:	caffffd2 	bgt	8de4 <new_first_table+0x1c>
    8e98:	e59d300c 	ldr	r3, [sp, #12]
    8e9c:	e2833001 	add	r3, r3, #1
    8ea0:	e58d300c 	str	r3, [sp, #12]
    8ea4:	e59d200c 	ldr	r2, [sp, #12]
    8ea8:	e59f3018 	ldr	r3, [pc, #24]	; 8ec8 <new_first_table+0x100>
    8eac:	e1520003 	cmp	r2, r3
    8eb0:	daffffc8 	ble	8dd8 <new_first_table+0x10>
    8eb4:	e3a03000 	mov	r3, #0
    8eb8:	e1a00003 	mov	r0, r3
    8ebc:	e28dd010 	add	sp, sp, #16
    8ec0:	e12fff1e 	bx	lr
    8ec4:	000094ac 	andeq	r9, r0, ip, lsr #9
    8ec8:	00001fff 	strdeq	r1, [r0], -pc	; <UNPREDICTABLE>

00008ecc <delete_first_table>:
    8ecc:	e24dd010 	sub	sp, sp, #16
    8ed0:	e58d0004 	str	r0, [sp, #4]
    8ed4:	e59d3004 	ldr	r3, [sp, #4]
    8ed8:	e2433601 	sub	r3, r3, #1048576	; 0x100000
    8edc:	e1a03523 	lsr	r3, r3, #10
    8ee0:	e58d300c 	str	r3, [sp, #12]
    8ee4:	e3a03000 	mov	r3, #0
    8ee8:	e58d3008 	str	r3, [sp, #8]
    8eec:	ea00000a 	b	8f1c <delete_first_table+0x50>
    8ef0:	e59f307c 	ldr	r3, [pc, #124]	; 8f74 <delete_first_table+0xa8>
    8ef4:	e5932000 	ldr	r2, [r3]
    8ef8:	e59d100c 	ldr	r1, [sp, #12]
    8efc:	e59d3008 	ldr	r3, [sp, #8]
    8f00:	e0813003 	add	r3, r1, r3
    8f04:	e0823003 	add	r3, r2, r3
    8f08:	e3a02000 	mov	r2, #0
    8f0c:	e5c32000 	strb	r2, [r3]
    8f10:	e59d3008 	ldr	r3, [sp, #8]
    8f14:	e2833001 	add	r3, r3, #1
    8f18:	e58d3008 	str	r3, [sp, #8]
    8f1c:	e59d3008 	ldr	r3, [sp, #8]
    8f20:	e353000f 	cmp	r3, #15
    8f24:	dafffff1 	ble	8ef0 <delete_first_table+0x24>
    8f28:	e3a03000 	mov	r3, #0
    8f2c:	e58d300c 	str	r3, [sp, #12]
    8f30:	ea000008 	b	8f58 <delete_first_table+0x8c>
    8f34:	e59d300c 	ldr	r3, [sp, #12]
    8f38:	e1a03103 	lsl	r3, r3, #2
    8f3c:	e59d2004 	ldr	r2, [sp, #4]
    8f40:	e0823003 	add	r3, r2, r3
    8f44:	e3a02000 	mov	r2, #0
    8f48:	e5832000 	str	r2, [r3]
    8f4c:	e59d300c 	ldr	r3, [sp, #12]
    8f50:	e2833001 	add	r3, r3, #1
    8f54:	e58d300c 	str	r3, [sp, #12]
    8f58:	e59d200c 	ldr	r2, [sp, #12]
    8f5c:	e59f3014 	ldr	r3, [pc, #20]	; 8f78 <delete_first_table+0xac>
    8f60:	e1520003 	cmp	r2, r3
    8f64:	dafffff2 	ble	8f34 <delete_first_table+0x68>
    8f68:	e1a00000 	nop			; (mov r0, r0)
    8f6c:	e28dd010 	add	sp, sp, #16
    8f70:	e12fff1e 	bx	lr
    8f74:	000094ac 	andeq	r9, r0, ip, lsr #9
    8f78:	00000fff 	strdeq	r0, [r0], -pc	; <UNPREDICTABLE>

00008f7c <new_second_table>:
    8f7c:	e24dd008 	sub	sp, sp, #8
    8f80:	e3a03000 	mov	r3, #0
    8f84:	e58d3004 	str	r3, [sp, #4]
    8f88:	ea000013 	b	8fdc <new_second_table+0x60>
    8f8c:	e59f3068 	ldr	r3, [pc, #104]	; 8ffc <new_second_table+0x80>
    8f90:	e5932000 	ldr	r2, [r3]
    8f94:	e59d3004 	ldr	r3, [sp, #4]
    8f98:	e0823003 	add	r3, r2, r3
    8f9c:	e5d33000 	ldrb	r3, [r3]
    8fa0:	e3530000 	cmp	r3, #0
    8fa4:	1a000009 	bne	8fd0 <new_second_table+0x54>
    8fa8:	e59f304c 	ldr	r3, [pc, #76]	; 8ffc <new_second_table+0x80>
    8fac:	e5932000 	ldr	r2, [r3]
    8fb0:	e59d3004 	ldr	r3, [sp, #4]
    8fb4:	e0823003 	add	r3, r2, r3
    8fb8:	e3a02001 	mov	r2, #1
    8fbc:	e5c32000 	strb	r2, [r3]
    8fc0:	e59d3004 	ldr	r3, [sp, #4]
    8fc4:	e2833b01 	add	r3, r3, #1024	; 0x400
    8fc8:	e1a03503 	lsl	r3, r3, #10
    8fcc:	ea000007 	b	8ff0 <new_second_table+0x74>
    8fd0:	e59d3004 	ldr	r3, [sp, #4]
    8fd4:	e2833001 	add	r3, r3, #1
    8fd8:	e58d3004 	str	r3, [sp, #4]
    8fdc:	e59d2004 	ldr	r2, [sp, #4]
    8fe0:	e59f3018 	ldr	r3, [pc, #24]	; 9000 <new_second_table+0x84>
    8fe4:	e1520003 	cmp	r2, r3
    8fe8:	daffffe7 	ble	8f8c <new_second_table+0x10>
    8fec:	e3a03000 	mov	r3, #0
    8ff0:	e1a00003 	mov	r0, r3
    8ff4:	e28dd008 	add	sp, sp, #8
    8ff8:	e12fff1e 	bx	lr
    8ffc:	000094ac 	andeq	r9, r0, ip, lsr #9
    9000:	00001fff 	strdeq	r1, [r0], -pc	; <UNPREDICTABLE>

00009004 <delete_second_table>:
    9004:	e24dd010 	sub	sp, sp, #16
    9008:	e58d0004 	str	r0, [sp, #4]
    900c:	e59d3004 	ldr	r3, [sp, #4]
    9010:	e2433601 	sub	r3, r3, #1048576	; 0x100000
    9014:	e1a03523 	lsr	r3, r3, #10
    9018:	e58d300c 	str	r3, [sp, #12]
    901c:	e59f3058 	ldr	r3, [pc, #88]	; 907c <delete_second_table+0x78>
    9020:	e5932000 	ldr	r2, [r3]
    9024:	e59d300c 	ldr	r3, [sp, #12]
    9028:	e0823003 	add	r3, r2, r3
    902c:	e3a02000 	mov	r2, #0
    9030:	e5c32000 	strb	r2, [r3]
    9034:	e3a03000 	mov	r3, #0
    9038:	e58d300c 	str	r3, [sp, #12]
    903c:	ea000008 	b	9064 <delete_second_table+0x60>
    9040:	e59d300c 	ldr	r3, [sp, #12]
    9044:	e1a03103 	lsl	r3, r3, #2
    9048:	e59d2004 	ldr	r2, [sp, #4]
    904c:	e0823003 	add	r3, r2, r3
    9050:	e3a02000 	mov	r2, #0
    9054:	e5832000 	str	r2, [r3]
    9058:	e59d300c 	ldr	r3, [sp, #12]
    905c:	e2833001 	add	r3, r3, #1
    9060:	e58d300c 	str	r3, [sp, #12]
    9064:	e59d300c 	ldr	r3, [sp, #12]
    9068:	e35300ff 	cmp	r3, #255	; 0xff
    906c:	dafffff3 	ble	9040 <delete_second_table+0x3c>
    9070:	e1a00000 	nop			; (mov r0, r0)
    9074:	e28dd010 	add	sp, sp, #16
    9078:	e12fff1e 	bx	lr
    907c:	000094ac 	andeq	r9, r0, ip, lsr #9

00009080 <start_mmu_C>:
    9080:	e52d4004 	push	{r4}		; (str r4, [sp, #-4]!)
    9084:	e3a03000 	mov	r3, #0
    9088:	ee013f10 	mcr	15, 0, r3, cr1, cr0, {0}
    908c:	ee070f17 	mcr	15, 0, r0, cr7, cr7, {0}
    9090:	ee080f17 	mcr	15, 0, r0, cr8, cr7, {0}
    9094:	e59f4010 	ldr	r4, [pc, #16]	; 90ac <start_mmu_C+0x2c>
    9098:	e3a03000 	mov	r3, #0
    909c:	ee083f17 	mcr	15, 0, r3, cr8, cr7, {0}
    90a0:	ee014f10 	mcr	15, 0, r4, cr1, cr0, {0}
    90a4:	e8bd0010 	pop	{r4}
    90a8:	e12fff1e 	bx	lr
    90ac:	00808011 	addeq	r8, r0, r1, lsl r0

000090b0 <configure_mmu_C>:
    90b0:	e52d4004 	push	{r4}		; (str r4, [sp, #-4]!)
    90b4:	e59f3038 	ldr	r3, [pc, #56]	; 90f4 <configure_mmu_C+0x44>
    90b8:	e5933000 	ldr	r3, [r3]
    90bc:	e1a04003 	mov	r4, r3
    90c0:	e59f3030 	ldr	r3, [pc, #48]	; 90f8 <configure_mmu_C+0x48>
    90c4:	e5933000 	ldr	r3, [r3]
    90c8:	e2832001 	add	r2, r3, #1
    90cc:	e59f3024 	ldr	r3, [pc, #36]	; 90f8 <configure_mmu_C+0x48>
    90d0:	e5832000 	str	r2, [r3]
    90d4:	ee024f10 	mcr	15, 0, r4, cr2, cr0, {0}
    90d8:	ee024f30 	mcr	15, 0, r4, cr2, cr0, {1}
    90dc:	e3a03000 	mov	r3, #0
    90e0:	ee023f50 	mcr	15, 0, r3, cr2, cr0, {2}
    90e4:	e3a03003 	mov	r3, #3
    90e8:	ee033f10 	mcr	15, 0, r3, cr3, cr0, {0}
    90ec:	e8bd0010 	pop	{r4}
    90f0:	e12fff1e 	bx	lr
    90f4:	000094b0 			; <UNDEFINED> instruction: 0x000094b0
    90f8:	000094d0 	ldrdeq	r9, [r0], -r0

000090fc <new_frame>:
    90fc:	e24dd008 	sub	sp, sp, #8
    9100:	e3a03000 	mov	r3, #0
    9104:	e58d3004 	str	r3, [sp, #4]
    9108:	ea000013 	b	915c <new_frame+0x60>
    910c:	e59f3068 	ldr	r3, [pc, #104]	; 917c <new_frame+0x80>
    9110:	e5932000 	ldr	r2, [r3]
    9114:	e59d3004 	ldr	r3, [sp, #4]
    9118:	e0823003 	add	r3, r2, r3
    911c:	e5d33000 	ldrb	r3, [r3]
    9120:	e3530000 	cmp	r3, #0
    9124:	1a000009 	bne	9150 <new_frame+0x54>
    9128:	e59f304c 	ldr	r3, [pc, #76]	; 917c <new_frame+0x80>
    912c:	e5932000 	ldr	r2, [r3]
    9130:	e59d3004 	ldr	r3, [sp, #4]
    9134:	e0823003 	add	r3, r2, r3
    9138:	e3a02001 	mov	r2, #1
    913c:	e5c32000 	strb	r2, [r3]
    9140:	e59d3004 	ldr	r3, [sp, #4]
    9144:	e2833c05 	add	r3, r3, #1280	; 0x500
    9148:	e1a03603 	lsl	r3, r3, #12
    914c:	ea000007 	b	9170 <new_frame+0x74>
    9150:	e59d3004 	ldr	r3, [sp, #4]
    9154:	e2833001 	add	r3, r3, #1
    9158:	e58d3004 	str	r3, [sp, #4]
    915c:	e59d2004 	ldr	r2, [sp, #4]
    9160:	e59f3018 	ldr	r3, [pc, #24]	; 9180 <new_frame+0x84>
    9164:	e1520003 	cmp	r2, r3
    9168:	daffffe7 	ble	910c <new_frame+0x10>
    916c:	e3a03000 	mov	r3, #0
    9170:	e1a00003 	mov	r0, r3
    9174:	e28dd008 	add	sp, sp, #8
    9178:	e12fff1e 	bx	lr
    917c:	000094a8 	andeq	r9, r0, r8, lsr #9
    9180:	00020fff 	strdeq	r0, [r2], -pc	; <UNPREDICTABLE>

00009184 <delete_frame>:
    9184:	e24dd010 	sub	sp, sp, #16
    9188:	e58d0004 	str	r0, [sp, #4]
    918c:	e59d3004 	ldr	r3, [sp, #4]
    9190:	e2433605 	sub	r3, r3, #5242880	; 0x500000
    9194:	e1a03623 	lsr	r3, r3, #12
    9198:	e58d300c 	str	r3, [sp, #12]
    919c:	e59f301c 	ldr	r3, [pc, #28]	; 91c0 <delete_frame+0x3c>
    91a0:	e5932000 	ldr	r2, [r3]
    91a4:	e59d300c 	ldr	r3, [sp, #12]
    91a8:	e0823003 	add	r3, r2, r3
    91ac:	e3a02000 	mov	r2, #0
    91b0:	e5c32000 	strb	r2, [r3]
    91b4:	e1a00000 	nop			; (mov r0, r0)
    91b8:	e28dd010 	add	sp, sp, #16
    91bc:	e12fff1e 	bx	lr
    91c0:	000094a8 	andeq	r9, r0, r8, lsr #9

000091c4 <vMem_Alloc>:
    91c4:	e92d4010 	push	{r4, lr}
    91c8:	e24dd020 	sub	sp, sp, #32
    91cc:	e58d0004 	str	r0, [sp, #4]
    91d0:	e3a03000 	mov	r3, #0
    91d4:	e58d301c 	str	r3, [sp, #28]
    91d8:	ea00003c 	b	92d0 <vMem_Alloc+0x10c>
    91dc:	e59d301c 	ldr	r3, [sp, #28]
    91e0:	e1a03603 	lsl	r3, r3, #12
    91e4:	e1a02003 	mov	r2, r3
    91e8:	e59f3128 	ldr	r3, [pc, #296]	; 9318 <vMem_Alloc+0x154>
    91ec:	e5933000 	ldr	r3, [r3]
    91f0:	e0823003 	add	r3, r2, r3
    91f4:	e58d3014 	str	r3, [sp, #20]
    91f8:	e59d3014 	ldr	r3, [sp, #20]
    91fc:	e1a03a23 	lsr	r3, r3, #20
    9200:	e58d3010 	str	r3, [sp, #16]
    9204:	e3a03000 	mov	r3, #0
    9208:	e58d3018 	str	r3, [sp, #24]
    920c:	e59f3108 	ldr	r3, [pc, #264]	; 931c <vMem_Alloc+0x158>
    9210:	e5932000 	ldr	r2, [r3]
    9214:	e59d3010 	ldr	r3, [sp, #16]
    9218:	e1a03103 	lsl	r3, r3, #2
    921c:	e0823003 	add	r3, r2, r3
    9220:	e5933000 	ldr	r3, [r3]
    9224:	e3530000 	cmp	r3, #0
    9228:	1a00000c 	bne	9260 <vMem_Alloc+0x9c>
    922c:	ebffff52 	bl	8f7c <new_second_table>
    9230:	e58d0018 	str	r0, [sp, #24]
    9234:	e59f30e0 	ldr	r3, [pc, #224]	; 931c <vMem_Alloc+0x158>
    9238:	e5932000 	ldr	r2, [r3]
    923c:	e59d3010 	ldr	r3, [sp, #16]
    9240:	e1a03103 	lsl	r3, r3, #2
    9244:	e0822003 	add	r2, r2, r3
    9248:	e59d3018 	ldr	r3, [sp, #24]
    924c:	e3c33fff 	bic	r3, r3, #1020	; 0x3fc
    9250:	e3c33003 	bic	r3, r3, #3
    9254:	e3833001 	orr	r3, r3, #1
    9258:	e5823000 	str	r3, [r2]
    925c:	ea000008 	b	9284 <vMem_Alloc+0xc0>
    9260:	e59f30b4 	ldr	r3, [pc, #180]	; 931c <vMem_Alloc+0x158>
    9264:	e5932000 	ldr	r2, [r3]
    9268:	e59d3010 	ldr	r3, [sp, #16]
    926c:	e1a03103 	lsl	r3, r3, #2
    9270:	e0823003 	add	r3, r2, r3
    9274:	e5933000 	ldr	r3, [r3]
    9278:	e3c33fff 	bic	r3, r3, #1020	; 0x3fc
    927c:	e3c33003 	bic	r3, r3, #3
    9280:	e58d3018 	str	r3, [sp, #24]
    9284:	e59d3014 	ldr	r3, [sp, #20]
    9288:	e1a03623 	lsr	r3, r3, #12
    928c:	e6ef3073 	uxtb	r3, r3
    9290:	e58d300c 	str	r3, [sp, #12]
    9294:	e59d300c 	ldr	r3, [sp, #12]
    9298:	e1a03103 	lsl	r3, r3, #2
    929c:	e59d2018 	ldr	r2, [sp, #24]
    92a0:	e0824003 	add	r4, r2, r3
    92a4:	ebffff94 	bl	90fc <new_frame>
    92a8:	e1a03000 	mov	r3, r0
    92ac:	e3c33eff 	bic	r3, r3, #4080	; 0xff0
    92b0:	e3c3300f 	bic	r3, r3, #15
    92b4:	e59f2064 	ldr	r2, [pc, #100]	; 9320 <vMem_Alloc+0x15c>
    92b8:	e5922000 	ldr	r2, [r2]
    92bc:	e1833002 	orr	r3, r3, r2
    92c0:	e5843000 	str	r3, [r4]
    92c4:	e59d301c 	ldr	r3, [sp, #28]
    92c8:	e2833001 	add	r3, r3, #1
    92cc:	e58d301c 	str	r3, [sp, #28]
    92d0:	e59d201c 	ldr	r2, [sp, #28]
    92d4:	e59d3004 	ldr	r3, [sp, #4]
    92d8:	e1520003 	cmp	r2, r3
    92dc:	3affffbe 	bcc	91dc <vMem_Alloc+0x18>
    92e0:	e59f3030 	ldr	r3, [pc, #48]	; 9318 <vMem_Alloc+0x154>
    92e4:	e5933000 	ldr	r3, [r3]
    92e8:	e58d3008 	str	r3, [sp, #8]
    92ec:	e59f3024 	ldr	r3, [pc, #36]	; 9318 <vMem_Alloc+0x154>
    92f0:	e5932000 	ldr	r2, [r3]
    92f4:	e59d3004 	ldr	r3, [sp, #4]
    92f8:	e1a03603 	lsl	r3, r3, #12
    92fc:	e0822003 	add	r2, r2, r3
    9300:	e59f3010 	ldr	r3, [pc, #16]	; 9318 <vMem_Alloc+0x154>
    9304:	e5832000 	str	r2, [r3]
    9308:	e59d3008 	ldr	r3, [sp, #8]
    930c:	e1a00003 	mov	r0, r3
    9310:	e28dd020 	add	sp, sp, #32
    9314:	e8bd8010 	pop	{r4, pc}
    9318:	000094c0 	andeq	r9, r0, r0, asr #9
    931c:	000094d4 	ldrdeq	r9, [r0], -r4
    9320:	000094bc 			; <UNDEFINED> instruction: 0x000094bc

00009324 <vMem_Free>:
    9324:	e52de004 	push	{lr}		; (str lr, [sp, #-4]!)
    9328:	e24dd02c 	sub	sp, sp, #44	; 0x2c
    932c:	e58d0004 	str	r0, [sp, #4]
    9330:	e58d1000 	str	r1, [sp]
    9334:	e3a03000 	mov	r3, #0
    9338:	e58d3024 	str	r3, [sp, #36]	; 0x24
    933c:	ea00004e 	b	947c <vMem_Free+0x158>
    9340:	e59d3024 	ldr	r3, [sp, #36]	; 0x24
    9344:	e1a03603 	lsl	r3, r3, #12
    9348:	e1a02003 	mov	r2, r3
    934c:	e59d3004 	ldr	r3, [sp, #4]
    9350:	e0823003 	add	r3, r2, r3
    9354:	e58d301c 	str	r3, [sp, #28]
    9358:	e59d301c 	ldr	r3, [sp, #28]
    935c:	e1a03a23 	lsr	r3, r3, #20
    9360:	e58d3018 	str	r3, [sp, #24]
    9364:	e59f312c 	ldr	r3, [pc, #300]	; 9498 <vMem_Free+0x174>
    9368:	e5932000 	ldr	r2, [r3]
    936c:	e59d3018 	ldr	r3, [sp, #24]
    9370:	e1a03103 	lsl	r3, r3, #2
    9374:	e0823003 	add	r3, r2, r3
    9378:	e5933000 	ldr	r3, [r3]
    937c:	e3530000 	cmp	r3, #0
    9380:	0a00003a 	beq	9470 <vMem_Free+0x14c>
    9384:	e59f310c 	ldr	r3, [pc, #268]	; 9498 <vMem_Free+0x174>
    9388:	e5932000 	ldr	r2, [r3]
    938c:	e59d3018 	ldr	r3, [sp, #24]
    9390:	e1a03103 	lsl	r3, r3, #2
    9394:	e0823003 	add	r3, r2, r3
    9398:	e5933000 	ldr	r3, [r3]
    939c:	e3c33fff 	bic	r3, r3, #1020	; 0x3fc
    93a0:	e3c33003 	bic	r3, r3, #3
    93a4:	e58d3014 	str	r3, [sp, #20]
    93a8:	e59d301c 	ldr	r3, [sp, #28]
    93ac:	e1a03623 	lsr	r3, r3, #12
    93b0:	e6ef3073 	uxtb	r3, r3
    93b4:	e58d3010 	str	r3, [sp, #16]
    93b8:	e59d3010 	ldr	r3, [sp, #16]
    93bc:	e1a03103 	lsl	r3, r3, #2
    93c0:	e59d2014 	ldr	r2, [sp, #20]
    93c4:	e0823003 	add	r3, r2, r3
    93c8:	e5933000 	ldr	r3, [r3]
    93cc:	e3c33eff 	bic	r3, r3, #4080	; 0xff0
    93d0:	e3c3300f 	bic	r3, r3, #15
    93d4:	e58d300c 	str	r3, [sp, #12]
    93d8:	e59d000c 	ldr	r0, [sp, #12]
    93dc:	ebffff68 	bl	9184 <delete_frame>
    93e0:	e59d3010 	ldr	r3, [sp, #16]
    93e4:	e1a03103 	lsl	r3, r3, #2
    93e8:	e59d2014 	ldr	r2, [sp, #20]
    93ec:	e0823003 	add	r3, r2, r3
    93f0:	e3a02000 	mov	r2, #0
    93f4:	e5832000 	str	r2, [r3]
    93f8:	e3a03000 	mov	r3, #0
    93fc:	e58d3020 	str	r3, [sp, #32]
    9400:	ea000009 	b	942c <vMem_Free+0x108>
    9404:	e59d3020 	ldr	r3, [sp, #32]
    9408:	e1a03103 	lsl	r3, r3, #2
    940c:	e59d2014 	ldr	r2, [sp, #20]
    9410:	e0823003 	add	r3, r2, r3
    9414:	e5933000 	ldr	r3, [r3]
    9418:	e3530000 	cmp	r3, #0
    941c:	1a000006 	bne	943c <vMem_Free+0x118>
    9420:	e59d3020 	ldr	r3, [sp, #32]
    9424:	e2833001 	add	r3, r3, #1
    9428:	e58d3020 	str	r3, [sp, #32]
    942c:	e59d3020 	ldr	r3, [sp, #32]
    9430:	e35300ff 	cmp	r3, #255	; 0xff
    9434:	dafffff2 	ble	9404 <vMem_Free+0xe0>
    9438:	ea000000 	b	9440 <vMem_Free+0x11c>
    943c:	e1a00000 	nop			; (mov r0, r0)
    9440:	e59d3020 	ldr	r3, [sp, #32]
    9444:	e3530c01 	cmp	r3, #256	; 0x100
    9448:	1a000008 	bne	9470 <vMem_Free+0x14c>
    944c:	e59d0014 	ldr	r0, [sp, #20]
    9450:	ebfffeeb 	bl	9004 <delete_second_table>
    9454:	e59f303c 	ldr	r3, [pc, #60]	; 9498 <vMem_Free+0x174>
    9458:	e5932000 	ldr	r2, [r3]
    945c:	e59d3018 	ldr	r3, [sp, #24]
    9460:	e1a03103 	lsl	r3, r3, #2
    9464:	e0823003 	add	r3, r2, r3
    9468:	e3a02000 	mov	r2, #0
    946c:	e5832000 	str	r2, [r3]
    9470:	e59d3024 	ldr	r3, [sp, #36]	; 0x24
    9474:	e2833001 	add	r3, r3, #1
    9478:	e58d3024 	str	r3, [sp, #36]	; 0x24
    947c:	e59d2024 	ldr	r2, [sp, #36]	; 0x24
    9480:	e59d3000 	ldr	r3, [sp]
    9484:	e1520003 	cmp	r2, r3
    9488:	3affffac 	bcc	9340 <vMem_Free+0x1c>
    948c:	ee080f17 	mcr	15, 0, r0, cr8, cr7, {0}
    9490:	e28dd02c 	add	sp, sp, #44	; 0x2c
    9494:	e8bd8000 	pop	{pc}
    9498:	000094d4 	ldrdeq	r9, [r0], -r4

Disassembly of section .bss:

0000949c <freelist>:
    949c:	00000000 	andeq	r0, r0, r0

000094a0 <top>:
    94a0:	00000000 	andeq	r0, r0, r0

000094a4 <heap_limit>:
    94a4:	00000000 	andeq	r0, r0, r0

000094a8 <occupation_table>:
    94a8:	00000000 	andeq	r0, r0, r0

000094ac <mini_table>:
    94ac:	00000000 	andeq	r0, r0, r0

000094b0 <kernel_tt_address>:
    94b0:	00000000 	andeq	r0, r0, r0

000094b4 <device_flags>:
    94b4:	00000437 	andeq	r0, r0, r7, lsr r4

000094b8 <kernel_flags>:
    94b8:	00000472 	andeq	r0, r0, r2, ror r4

000094bc <process_flags>:
    94bc:	00000872 	andeq	r0, r0, r2, ror r8

000094c0 <last_virtual_address>:
    94c0:	00500000 	subseq	r0, r0, r0

000094c4 <CL>:
	...

000094cc <current_process>:
    94cc:	00000000 	andeq	r0, r0, r0

000094d0 <total>:
    94d0:	00000000 	andeq	r0, r0, r0

000094d4 <current_first_table>:
    94d4:	00000000 	andeq	r0, r0, r0

Disassembly of section .ARM.attributes:

00000000 <.ARM.attributes>:
   0:	00003141 	andeq	r3, r0, r1, asr #2
   4:	61656100 	cmnvs	r5, r0, lsl #2
   8:	01006962 	tsteq	r0, r2, ror #18
   c:	00000027 	andeq	r0, r0, r7, lsr #32
  10:	005a3605 	subseq	r3, sl, r5, lsl #12
  14:	01080706 	tsteq	r8, r6, lsl #14
  18:	020a0109 	andeq	r0, sl, #1073741826	; 0x40000002
  1c:	01140412 	tsteq	r4, r2, lsl r4
  20:	03170115 	tsteq	r7, #1073741829	; 0x40000005
  24:	011a0118 	tsteq	sl, r8, lsl r1
  28:	011c031b 	tsteq	ip, fp, lsl r3
  2c:	012c0122 	teqeq	ip, r2, lsr #2
  30:	Address 0x0000000000000030 is out of bounds.


Disassembly of section .comment:

00000000 <.comment>:
   0:	3a434347 	bcc	10d0d24 <__bss_end+0x10c784c>
   4:	4e472820 	cdpmi	8, 4, cr2, cr7, cr0, {1}
   8:	34202955 	strtcc	r2, [r0], #-2389	; 0x955
   c:	312e372e 	teqcc	lr, lr, lsr #14
	...

Disassembly of section .debug_line:

00000000 <.debug_line>:
   0:	00000061 	andeq	r0, r0, r1, rrx
   4:	00200002 	eoreq	r0, r0, r2
   8:	01020000 	mrseq	r0, (UNDEF: 2)
   c:	000d0efb 	strdeq	r0, [sp], -fp
  10:	01010101 	tsteq	r1, r1, lsl #2
  14:	01000000 	mrseq	r0, (UNDEF: 0)
  18:	00010000 	andeq	r0, r1, r0
  1c:	74636576 	strbtvc	r6, [r3], #-1398	; 0x576
  20:	2e73726f 	cdpcs	2, 7, cr7, cr3, cr15, {3}
  24:	00000073 	andeq	r0, r0, r3, ror r0
  28:	05000000 	streq	r0, [r0, #-0]
  2c:	00800002 	addeq	r0, r0, r2
  30:	2f2f1900 	svccs	0x002f1900
  34:	2f2f2f2f 	svccs	0x002f2f2f
  38:	080b032f 	stmdaeq	fp, {r0, r1, r2, r3, r5, r8, r9}
  3c:	2f2f2f20 	svccs	0x002f2f20
  40:	2f322f2f 	svccs	0x00322f2f
  44:	2f2f322f 	svccs	0x002f322f
  48:	302f2f31 	eorcc	r2, pc, r1, lsr pc	; <UNPREDICTABLE>
  4c:	2f2f2f30 	svccs	0x002f2f30
  50:	2f322f2f 	svccs	0x00322f2f
  54:	2f322f32 	svccs	0x00322f32
  58:	2f322f32 	svccs	0x00322f32
  5c:	31303232 	teqcc	r0, r2, lsr r2
  60:	01000202 	tsteq	r0, r2, lsl #4
  64:	00008301 	andeq	r8, r0, r1, lsl #6
  68:	4c000200 	sfmmi	f0, 4, [r0], {-0}
  6c:	02000000 	andeq	r0, r0, #0
  70:	0d0efb01 	vstreq	d15, [lr, #-4]
  74:	01010100 	mrseq	r0, (UNDEF: 17)
  78:	00000001 	andeq	r0, r0, r1
  7c:	01000001 	tsteq	r0, r1
  80:	6d656d76 	stclvs	13, cr6, [r5, #-472]!	; 0xfffffe28
  84:	002e2e2f 	eoreq	r2, lr, pc, lsr #28
  88:	6d656d76 	stclvs	13, cr6, [r5, #-472]!	; 0xfffffe28
  8c:	656b0000 	strbvs	r0, [fp, #-0]!
  90:	6c656e72 	stclvs	14, cr6, [r5], #-456	; 0xfffffe38
  94:	0000632e 	andeq	r6, r0, lr, lsr #6
  98:	63730000 	cmnvs	r3, #0
  9c:	2e646568 	cdpcs	5, 6, cr6, cr4, cr8, {3}
  a0:	00000068 	andeq	r0, r0, r8, rrx
  a4:	70797400 	rsbsvc	r7, r9, r0, lsl #8
  a8:	682e7365 	stmdavs	lr!, {r0, r2, r5, r6, r8, r9, ip, sp, lr}
  ac:	00000100 	andeq	r0, r0, r0, lsl #2
  b0:	6d656d76 	stclvs	13, cr6, [r5, #-472]!	; 0xfffffe28
  b4:	0200682e 	andeq	r6, r0, #3014656	; 0x2e0000
  b8:	00000000 	andeq	r0, r0, r0
  bc:	80d00205 	sbcshi	r0, r0, r5, lsl #4
  c0:	2f180000 	svccs	0x00180000
  c4:	83672a6c 	cmnhi	r7, #442368	; 0x6c000
  c8:	002f4c4c 	eoreq	r4, pc, ip, asr #24
  cc:	4c010402 	cfstrsmi	mvf0, [r1], {2}
  d0:	01040200 	mrseq	r0, R12_usr
  d4:	2f4b3167 	svccs	0x004b3167
  d8:	6a302f30 	bvs	c0bda0 <__bss_end+0xc028c8>
  dc:	686868a0 	stmdavs	r8!, {r5, r7, fp, sp, lr}^
  e0:	02006868 	andeq	r6, r0, #6815744	; 0x680000
  e4:	026b0104 	rsbeq	r0, fp, #1
  e8:	01010002 	tsteq	r1, r2
  ec:	00000059 	andeq	r0, r0, r9, asr r0
  f0:	00210002 	eoreq	r0, r1, r2
  f4:	01020000 	mrseq	r0, (UNDEF: 2)
  f8:	000d0efb 	strdeq	r0, [sp], -fp
  fc:	01010101 	tsteq	r1, r1, lsl #2
 100:	01000000 	mrseq	r0, (UNDEF: 0)
 104:	00010000 	andeq	r0, r1, r0
 108:	41796870 	cmnmi	r9, r0, ror r8
 10c:	636f6c6c 	cmnvs	pc, #27648	; 0x6c00
 110:	0000632e 	andeq	r6, r0, lr, lsr #6
 114:	00000000 	andeq	r0, r0, r0
 118:	81b00205 	lslshi	r0, r5, #4
 11c:	0c030000 	stceq	0, cr0, [r3], {-0}
 120:	2f4c6701 	svccs	0x004c6701
 124:	02002f2f 	andeq	r2, r0, #188	; 0xbc
 128:	002c0104 	eoreq	r0, ip, r4, lsl #2
 12c:	06020402 	streq	r0, [r2], -r2, lsl #8
 130:	4b86064a 	blmi	fe181a60 <__bss_end+0xfe178588>
 134:	4cbbf44b 	cfldrsmi	mvf15, [fp], #300	; 0x12c
 138:	83da2f4c 	bicshi	r2, sl, #304	; 0x130
 13c:	4b678330 	blmi	19e0e04 <__bss_end+0x19d792c>
 140:	9f676786 	svcls	0x00676786
 144:	01000802 	tsteq	r0, r2, lsl #16
 148:	00004b01 	andeq	r4, r0, r1, lsl #22
 14c:	1b000200 	blne	954 <_start-0x76ac>
 150:	02000000 	andeq	r0, r0, #0
 154:	0d0efb01 	vstreq	d15, [lr, #-4]
 158:	01010100 	mrseq	r0, (UNDEF: 17)
 15c:	00000001 	andeq	r0, r0, r1
 160:	01000001 	tsteq	r0, r1
 164:	2e776800 	cdpcs	8, 7, cr6, cr7, cr0, {0}
 168:	00000063 	andeq	r0, r0, r3, rrx
 16c:	05000000 	streq	r0, [r0, #-0]
 170:	0082e802 	addeq	lr, r2, r2, lsl #16
 174:	011c0300 	tsteq	ip, r0, lsl #6
 178:	6867674b 	stmdavs	r7!, {r0, r1, r3, r6, r8, r9, sl, sp, lr}^
 17c:	9e090367 	cdpls	3, 0, cr0, cr9, cr7, {3}
 180:	2f4e672f 	svccs	0x004e672f
 184:	674f5167 	strbvs	r5, [pc, -r7, ror #2]
 188:	69696767 	stmdbvs	r9!, {r0, r1, r2, r5, r6, r8, r9, sl, sp, lr}^
 18c:	696a6767 	stmdbvs	sl!, {r0, r1, r2, r5, r6, r8, r9, sl, sp, lr}^
 190:	0267a068 	rsbeq	sl, r7, #104	; 0x68
 194:	01010010 	tsteq	r1, r0, lsl r0
 198:	000000e1 	andeq	r0, r0, r1, ror #1
 19c:	00290002 	eoreq	r0, r9, r2
 1a0:	01020000 	mrseq	r0, (UNDEF: 2)
 1a4:	000d0efb 	strdeq	r0, [sp], -fp
 1a8:	01010101 	tsteq	r1, r1, lsl #2
 1ac:	01000000 	mrseq	r0, (UNDEF: 0)
 1b0:	00010000 	andeq	r0, r1, r0
 1b4:	65686373 	strbvs	r6, [r8, #-883]!	; 0x373
 1b8:	00632e64 	rsbeq	r2, r3, r4, ror #28
 1bc:	73000000 	movwvc	r0, #0
 1c0:	64656863 	strbtvs	r6, [r5], #-2147	; 0x863
 1c4:	0000682e 	andeq	r6, r0, lr, lsr #16
 1c8:	00000000 	andeq	r0, r0, r0
 1cc:	84240205 	strthi	r0, [r4], #-517	; 0x205
 1d0:	9f170000 	svcls	0x00170000
 1d4:	0367bb9f 	cmneq	r7, #162816	; 0x27c00
 1d8:	67bb4a0f 	ldrvs	r4, [fp, pc, lsl #20]!
 1dc:	83676767 	cmnhi	r7, #27000832	; 0x19c0000
 1e0:	a04c6767 	subge	r6, ip, r7, ror #14
 1e4:	0200a067 	andeq	sl, r0, #103	; 0x67
 1e8:	9e060104 	adflss	f0, f6, f4
 1ec:	67c90806 	strbvs	r0, [r9, r6, lsl #16]
 1f0:	67838567 	strvs	r8, [r3, r7, ror #10]
 1f4:	9f2f68a0 	svcls	0x002f68a0
 1f8:	9f83832f 	svcls	0x0083832f
 1fc:	694b4c83 	stmdbvs	fp, {r0, r1, r7, sl, fp, lr}^
 200:	02008130 	andeq	r8, r0, #12
 204:	2e060104 	adfcss	f0, f6, f4
 208:	02040200 	andeq	r0, r4, #0
 20c:	9fbd069e 	svcls	0x00bd069e
 210:	9fbbd783 	svcls	0x00bbd783
 214:	01040200 	mrseq	r0, R12_usr
 218:	03667703 	cmneq	r6, #786432	; 0xc0000
 21c:	1368ba18 	cmnne	r8, #98304	; 0x18000
 220:	0402002f 	streq	r0, [r2], #-47	; 0x2f
 224:	4ca19d01 	stcmi	13, cr9, [r1], #4
 228:	832f9f2f 	teqhi	pc, #188	; 0xbc
 22c:	2f9f4b68 	svccs	0x009f4b68
 230:	0200302f 	andeq	r3, r0, #47	; 0x2f
 234:	82060104 	andhi	r0, r6, #1
 238:	9f2f9f06 	svcls	0x002f9f06
 23c:	9f2f849f 	svcls	0x002f849f
 240:	02002f67 	andeq	r2, r0, #412	; 0x19c
 244:	a1650104 	cmnge	r5, r4, lsl #2
 248:	2f303083 	svccs	0x00303083
 24c:	04020047 	streq	r0, [r2], #-71	; 0x47
 250:	062e0601 	strteq	r0, [lr], -r1, lsl #12
 254:	9f849fa3 	svcls	0x00849fa3
 258:	2f9f309f 	svccs	0x009f309f
 25c:	a014692f 	andsge	r6, r4, pc, lsr #18
 260:	2f4b9f4b 	svccs	0x004b9f4b
 264:	01040200 	mrseq	r0, R12_usr
 268:	4c67852d 	cfstr64mi	mvdx8, [r7], #-180	; 0xffffff4c
 26c:	849f9f2f 	ldrhi	r9, [pc], #3887	; 274 <_start-0x7d8c>
 270:	9f30a030 	svcls	0x0030a030
 274:	2f9f9f83 	svccs	0x009f9f83
 278:	01000402 	tsteq	r0, r2, lsl #8
 27c:	00005501 	andeq	r5, r0, r1, lsl #10
 280:	2b000200 	blcs	a88 <_start-0x7578>
 284:	02000000 	andeq	r0, r0, #0
 288:	0d0efb01 	vstreq	d15, [lr, #-4]
 28c:	01010100 	mrseq	r0, (UNDEF: 17)
 290:	00000001 	andeq	r0, r0, r1
 294:	01000001 	tsteq	r0, r1
 298:	73797300 	cmnvc	r9, #0
 29c:	6c6c6163 	stfvse	f6, [ip], #-396	; 0xfffffe74
 2a0:	0000632e 	andeq	r6, r0, lr, lsr #6
 2a4:	63730000 	cmnvs	r3, #0
 2a8:	2e646568 	cdpcs	5, 6, cr6, cr4, cr8, {3}
 2ac:	00000068 	andeq	r0, r0, r8, rrx
 2b0:	05000000 	streq	r0, [r0, #-0]
 2b4:	008a3802 	addeq	r3, sl, r2, lsl #16
 2b8:	4b2f1500 	blmi	bc56c0 <__bss_end+0xbbc1e8>
 2bc:	4b67302f 	blmi	19cc380 <__bss_end+0x19c2ea8>
 2c0:	014c2f4b 	cmpeq	ip, fp, asr #30
 2c4:	834c4c30 	movthi	r4, #52272	; 0xcc30
 2c8:	4b4b4b84 	blmi	12d30e0 <__bss_end+0x12c9c08>
 2cc:	2f302fbc 	svccs	0x00302fbc
 2d0:	00040230 	andeq	r0, r4, r0, lsr r2
 2d4:	01c40101 	biceq	r0, r4, r1, lsl #2
 2d8:	00020000 	andeq	r0, r2, r0
 2dc:	0000003f 	andeq	r0, r0, pc, lsr r0
 2e0:	0efb0102 	cdpeq	1, 15, cr0, cr11, cr2, {0}
 2e4:	0101000d 	tsteq	r1, sp
 2e8:	00000101 	andeq	r0, r0, r1, lsl #2
 2ec:	00000100 	andeq	r0, r0, r0, lsl #2
 2f0:	656d7601 	strbvs	r7, [sp, #-1537]!	; 0x601
 2f4:	6d76006d 	ldclvs	0, cr0, [r6, #-436]!	; 0xfffffe4c
 2f8:	2e2f6d65 	cdpcs	13, 2, cr6, cr15, cr5, {3}
 2fc:	7600002e 	strvc	r0, [r0], -lr, lsr #32
 300:	2e6d656d 	cdpcs	5, 6, cr6, cr13, cr13, {3}
 304:	00010063 	andeq	r0, r1, r3, rrx
 308:	70797400 	rsbsvc	r7, r9, r0, lsl #8
 30c:	682e7365 	stmdavs	lr!, {r0, r2, r5, r6, r8, r9, ip, sp, lr}
 310:	00000200 	andeq	r0, r0, r0, lsl #4
 314:	6d656d76 	stclvs	13, cr6, [r5, #-472]!	; 0xfffffe28
 318:	0100682e 	tsteq	r0, lr, lsr #16
 31c:	00000000 	andeq	r0, r0, r0
 320:	8af00205 	bhi	ffc00b3c <__bss_end+0xffbf7664>
 324:	27030000 	strcs	r0, [r3, -r0]
 328:	00684d01 	rsbeq	r4, r8, r1, lsl #26
 32c:	67020402 	strvs	r0, [r2, -r2, lsl #8]
 330:	02040200 	andeq	r0, r4, #0
 334:	040200b9 	streq	r0, [r2], #-185	; 0xb9
 338:	06660601 	strbteq	r0, [r6], -r1, lsl #12
 33c:	02006886 	andeq	r6, r0, #8781824	; 0x860000
 340:	00670204 	rsbeq	r0, r7, r4, lsl #4
 344:	b9020402 	stmdblt	r2, {r1, sl}
 348:	01040200 	mrseq	r0, R12_usr
 34c:	86066606 	strhi	r6, [r6], -r6, lsl #12
 350:	0402004b 	streq	r0, [r2], #-75	; 0x4b
 354:	02006702 	andeq	r6, r0, #524288	; 0x80000
 358:	00b90204 	adcseq	r0, r9, r4, lsl #4
 35c:	06010402 	streq	r0, [r1], -r2, lsl #8
 360:	f3860666 	vmlsl.u<illegal width 8>	q0, d6, d2[5]
 364:	42082f85 	andmi	r2, r8, #532	; 0x214
 368:	084b6868 	stmdaeq	fp, {r3, r5, r6, fp, sp, lr}^
 36c:	04020023 	streq	r0, [r2], #-35	; 0x23
 370:	02006802 	andeq	r6, r0, #131072	; 0x20000
 374:	c6080204 	strgt	r0, [r8], -r4, lsl #4
 378:	01040200 	mrseq	r0, R12_usr
 37c:	03066606 	movweq	r6, #26118	; 0x6606
 380:	0200667a 	andeq	r6, r0, #127926272	; 0x7a00000
 384:	66060104 	strvs	r0, [r6], -r4, lsl #2
 388:	660b0306 	strvs	r0, [fp], -r6, lsl #6
 38c:	084b684b 	stmdaeq	fp, {r0, r1, r3, r6, fp, sp, lr}^
 390:	0402005a 	streq	r0, [r2], #-90	; 0x5a
 394:	02006802 	andeq	r6, r0, #131072	; 0x20000
 398:	fe080204 	cdp2	2, 0, cr0, cr8, cr4, {0}
 39c:	01040200 	mrseq	r0, R12_usr
 3a0:	61066606 	tstvs	r6, r6, lsl #12
 3a4:	01040200 	mrseq	r0, R12_usr
 3a8:	03066606 	movweq	r6, #26118	; 0x6606
 3ac:	3185660a 	orrcc	r6, r5, sl, lsl #12
 3b0:	67d86868 	ldrbvs	r6, [r8, r8, ror #16]
 3b4:	0200a130 	andeq	sl, r0, #12
 3b8:	00680204 	rsbeq	r0, r8, r4, lsl #4
 3bc:	f0020402 			; <UNDEFINED> instruction: 0xf0020402
 3c0:	01040200 	mrseq	r0, R12_usr
 3c4:	6a066606 	bvs	199be4 <__bss_end+0x19070c>
 3c8:	00827203 	addeq	r7, r2, r3, lsl #4
 3cc:	06010402 	streq	r0, [r1], -r2, lsl #8
 3d0:	009c0666 	addseq	r0, ip, r6, ror #12
 3d4:	06010402 	streq	r0, [r1], -r2, lsl #8
 3d8:	16030666 	strne	r0, [r3], -r6, ror #12
 3dc:	4ba12f82 	blmi	fe84c1ec <__bss_end+0xfe842d14>
 3e0:	04020084 	streq	r0, [r2], #-132	; 0x84
 3e4:	02006802 	andeq	r6, r0, #131072	; 0x20000
 3e8:	00f00204 	rscseq	r0, r0, r4, lsl #4
 3ec:	06010402 	streq	r0, [r1], -r2, lsl #8
 3f0:	006a0666 	rsbeq	r0, sl, r6, ror #12
 3f4:	68020402 	stmdavs	r2, {r1, sl}
 3f8:	02040200 	andeq	r0, r4, #0
 3fc:	040200b8 	streq	r0, [r2], #-184	; 0xb8
 400:	06660601 	strbteq	r0, [r6], -r1, lsl #12
 404:	30852f86 	addcc	r2, r5, r6, lsl #31
 408:	7dbbd868 	ldcvc	8, cr13, [fp, #416]!	; 0x1a0
 40c:	01040200 	mrseq	r0, R12_usr
 410:	03066606 	movweq	r6, #26118	; 0x6606
 414:	a12f8209 	teqge	pc, r9, lsl #4
 418:	00bb834b 	adcseq	r8, fp, fp, asr #6
 41c:	68020402 	stmdavs	r2, {r1, sl}
 420:	02040200 	andeq	r0, r4, #0
 424:	040200b8 	streq	r0, [r2], #-184	; 0xb8
 428:	06660601 	strbteq	r0, [r6], -r1, lsl #12
 42c:	30692f6a 	rsbcc	r2, r9, sl, ror #30
 430:	30302f4b 	eorscc	r2, r0, fp, asr #30
 434:	2f69304c 	svccs	0x0069304c
 438:	3030a067 	eorscc	sl, r0, r7, rrx
 43c:	30874b4e 	addcc	r4, r7, lr, asr #22
 440:	7dbbd868 	ldcvc	8, cr13, [fp, #416]!	; 0x1a0
 444:	01040200 	mrseq	r0, R12_usr
 448:	03066606 	movweq	r6, #26118	; 0x6606
 44c:	a12f820a 	teqge	pc, sl, lsl #4
 450:	2fbb834b 	svccs	0x00bb834b
 454:	d8696869 	stmdale	r9!, {r0, r3, r5, r6, fp, sp, lr}^
 458:	4bf44b67 	blmi	ffd131fc <__bss_end+0xffd09d24>
 45c:	22085a08 	andcs	r5, r8, #32768	; 0x8000
 460:	08700384 	ldmdaeq	r0!, {r2, r7, r8, r9}^
 464:	04020074 	streq	r0, [r2], #-116	; 0x74
 468:	06660601 	strbteq	r0, [r6], -r1, lsl #12
 46c:	67821203 	strvs	r1, [r2, r3, lsl #4]
 470:	84bd2fd7 	ldrthi	r2, [sp], #4055	; 0xfd7
 474:	f467bb68 			; <UNDEFINED> instruction: 0xf467bb68
 478:	f3852208 	vsubl.u8	q1, d5, d8
 47c:	d468bd4b 	strbtle	fp, [r8], #-3403	; 0xd4b
 480:	01040200 	mrseq	r0, R12_usr
 484:	87066606 	strhi	r6, [r6, -r6, lsl #12]
 488:	034b6931 	movteq	r6, #47409	; 0xb931
 48c:	0200d664 	andeq	sp, r0, #104857600	; 0x6400000
 490:	66060104 	strvs	r0, [r6], -r4, lsl #2
 494:	82200306 	eorhi	r0, r0, #402653184	; 0x18000000
 498:	0006022f 	andeq	r0, r6, pc, lsr #4
 49c:	Address 0x000000000000049c is out of bounds.


Disassembly of section .debug_info:

00000000 <.debug_info>:
   0:	00000052 	andeq	r0, r0, r2, asr r0
   4:	00000002 	andeq	r0, r0, r2
   8:	01040000 	mrseq	r0, (UNDEF: 4)
   c:	00000000 	andeq	r0, r0, r0
  10:	00008000 	andeq	r8, r0, r0
  14:	000080d0 	ldrdeq	r8, [r0], -r0
  18:	74636576 	strbtvc	r6, [r3], #-1398	; 0x576
  1c:	2e73726f 	cdpcs	2, 7, cr7, cr3, cr15, {3}
  20:	682f0073 	stmdavs	pc!, {r0, r1, r4, r5, r6}	; <UNPREDICTABLE>
  24:	2f656d6f 	svccs	0x00656d6f
  28:	63696e72 	cmnvs	r9, #1824	; 0x720
  2c:	74656c6f 	strbtvc	r6, [r5], #-3183	; 0xc6f
  30:	3134482f 	teqcc	r4, pc, lsr #16
  34:	4f2f3430 	svcmi	0x002f3430
  38:	734f2f53 	movtvc	r2, #65363	; 0xff53
  3c:	7361522d 	cmnvc	r1, #-805306366	; 0xd0000002
  40:	65626570 	strbvs	r6, [r2, #-1392]!	; 0x570
  44:	00797272 	rsbseq	r7, r9, r2, ror r2
  48:	20554e47 	subscs	r4, r5, r7, asr #28
  4c:	32205341 	eorcc	r5, r0, #67108865	; 0x4000001
  50:	0032322e 	eorseq	r3, r2, lr, lsr #4
  54:	02258001 	eoreq	r8, r5, #1
  58:	00020000 	andeq	r0, r2, r0
  5c:	00000014 	andeq	r0, r0, r4, lsl r0
  60:	00350104 	eorseq	r0, r5, r4, lsl #2
  64:	e0010000 	and	r0, r1, r0
  68:	ac000000 	stcge	0, cr0, [r0], {-0}
  6c:	d0000000 	andle	r0, r0, r0
  70:	b0000080 	andlt	r0, r0, r0, lsl #1
  74:	65000081 	strvs	r0, [r0, #-129]	; 0x81
  78:	02000000 	andeq	r0, r0, #0
  7c:	0000010a 	andeq	r0, r0, sl, lsl #2
  80:	00300502 	eorseq	r0, r0, r2, lsl #10
  84:	0a030000 	beq	c008c <__bss_end+0xb6bb4>
  88:	04000001 	streq	r0, [r0], #-1
  8c:	00550502 	subseq	r0, r5, r2, lsl #10
  90:	4e040000 	cdpmi	0, 0, cr0, cr4, cr0, {0}
  94:	00005745 	andeq	r5, r0, r5, asr #14
  98:	00004105 	andeq	r4, r0, r5, lsl #2
  9c:	91050100 	mrsls	r0, (UNDEF: 21)
  a0:	02000000 	andeq	r0, r0, #0
  a4:	00007105 	andeq	r7, r0, r5, lsl #2
  a8:	02000300 	andeq	r0, r0, #0
  ac:	00000027 	andeq	r0, r0, r7, lsr #32
  b0:	00600702 	rsbeq	r0, r0, r2, lsl #14
  b4:	04060000 	streq	r0, [r6], #-0
  b8:	00000066 	andeq	r0, r0, r6, rrx
  bc:	8b080107 	blhi	2004e0 <__bss_end+0x1f7008>
  c0:	0c000000 	stceq	0, cr0, [r0], {-0}
  c4:	009d0e02 	addseq	r0, sp, r2, lsl #28
  c8:	73090000 	movwvc	r0, #36864	; 0x9000
  cc:	0f020070 	svceq	0x00020070
  d0:	0000009d 	muleq	r0, sp, r0
  d4:	09002302 	stmdbeq	r0, {r1, r8, r9, sp}
  d8:	02006370 	andeq	r6, r0, #-1073741823	; 0xc0000001
  dc:	00009d10 	andeq	r9, r0, r0, lsl sp
  e0:	04230200 	strteq	r0, [r3], #-512	; 0x200
  e4:	0001020a 	andeq	r0, r1, sl, lsl #4
  e8:	9d110200 	lfmls	f0, 4, [r1, #-0]
  ec:	02000000 	andeq	r0, r0, #0
  f0:	0b000823 	bleq	2184 <_start-0x5e7c>
  f4:	00fc0804 	rscseq	r0, ip, r4, lsl #16
  f8:	021c0000 	andseq	r0, ip, #0
  fc:	00010e14 	andeq	r0, r1, r4, lsl lr
 100:	001e0a00 	andseq	r0, lr, r0, lsl #20
 104:	15020000 	strne	r0, [r2, #-0]
 108:	0000010e 	andeq	r0, r0, lr, lsl #2
 10c:	0a002302 	beq	8d1c <init_no_translation_pages+0xe8>
 110:	00000000 	andeq	r0, r0, r0
 114:	009d1602 	addseq	r1, sp, r2, lsl #12
 118:	23020000 	movwcs	r0, #8192	; 0x2000
 11c:	00ef0a04 	rsceq	r0, pc, r4, lsl #20
 120:	17020000 	strne	r0, [r2, -r0]
 124:	00000114 	andeq	r0, r0, r4, lsl r1
 128:	0a082302 	beq	208d38 <__bss_end+0x1ff860>
 12c:	00000058 	andeq	r0, r0, r8, asr r0
 130:	00551802 	subseq	r1, r5, r2, lsl #16
 134:	23020000 	movwcs	r0, #8192	; 0x2000
 138:	01100a0c 	tsteq	r0, ip, lsl #20
 13c:	19020000 	stmdbne	r2, {}	; <UNPREDICTABLE>
 140:	0000011b 	andeq	r0, r0, fp, lsl r1
 144:	0a102302 	beq	408d54 <__bss_end+0x3ff87c>
 148:	000000e9 	andeq	r0, r0, r9, ror #1
 14c:	00251a02 	eoreq	r1, r5, r2, lsl #20
 150:	23020000 	movwcs	r0, #8192	; 0x2000
 154:	03520a14 	cmpeq	r2, #81920	; 0x14000
 158:	1b020000 	blne	80160 <__bss_end+0x76c88>
 15c:	0000009d 	muleq	r0, sp, r0
 160:	00182302 	andseq	r2, r8, r2, lsl #6
 164:	009f0406 	addseq	r0, pc, r6, lsl #8
 168:	040c0000 	streq	r0, [ip], #-0
 16c:	00009f07 	andeq	r9, r0, r7, lsl #30
 170:	68040600 	stmdavs	r4, {r9, sl}
 174:	08000000 	stmdaeq	r0, {}	; <UNPREDICTABLE>
 178:	00000064 	andeq	r0, r0, r4, rrx
 17c:	4a1e0208 	bmi	7809a4 <__bss_end+0x7774cc>
 180:	0a000001 	beq	18c <_start-0x7e74>
 184:	0000004e 	andeq	r0, r0, lr, asr #32
 188:	010e1f02 	tsteq	lr, r2, lsl #30
 18c:	23020000 	movwcs	r0, #8192	; 0x2000
 190:	007c0a00 	rsbseq	r0, ip, r0, lsl #20
 194:	20020000 	andcs	r0, r2, r0
 198:	0000010e 	andeq	r0, r0, lr, lsl #2
 19c:	00042302 	andeq	r2, r4, r2, lsl #6
 1a0:	9907020c 	stmdbls	r7, {r2, r3, r9}
 1a4:	02000000 	andeq	r0, r0, #0
 1a8:	00000009 	andeq	r0, r0, r9
 1ac:	01140503 	tsteq	r4, r3, lsl #10
 1b0:	010c0000 	mrseq	r0, (UNDEF: 12)
 1b4:	0000d208 	andeq	sp, r0, r8, lsl #4
 1b8:	00150200 	andseq	r0, r5, r0, lsl #4
 1bc:	2f040000 	svccs	0x00040000
 1c0:	00000151 	andeq	r0, r0, r1, asr r1
 1c4:	005e010d 	subseq	r0, lr, sp, lsl #2
 1c8:	07010000 	streq	r0, [r1, -r0]
 1cc:	000080d0 	ldrdeq	r8, [r0], -r0
 1d0:	00008110 	andeq	r8, r0, r0, lsl r1
 1d4:	00000000 	andeq	r0, r0, r0
 1d8:	00019601 	andeq	r9, r1, r1, lsl #12
 1dc:	00490e00 	subeq	r0, r9, r0, lsl #28
 1e0:	08010000 	stmdaeq	r1, {}	; <UNPREDICTABLE>
 1e4:	00000196 	muleq	r0, r6, r1
 1e8:	007c9102 	rsbseq	r9, ip, r2, lsl #2
 1ec:	6905040f 	stmdbvs	r5, {r0, r1, r2, r3, sl}
 1f0:	0d00746e 	cfstrseq	mvf7, [r0, #-440]	; 0xfffffe48
 1f4:	00008501 	andeq	r8, r0, r1, lsl #10
 1f8:	10100100 	andsne	r0, r0, r0, lsl #2
 1fc:	2c000081 	stccs	0, cr0, [r0], {129}	; 0x81
 200:	20000081 	andcs	r0, r0, r1, lsl #1
 204:	01000000 	mrseq	r0, (UNDEF: 0)
 208:	000001c5 	andeq	r0, r0, r5, asr #3
 20c:	0000100e 	andeq	r1, r0, lr
 210:	96110100 	ldrls	r0, [r1], -r0, lsl #2
 214:	02000001 	andeq	r0, r0, #1
 218:	10007c91 	mulne	r0, r1, ip
 21c:	00002f01 	andeq	r2, r0, r1, lsl #30
 220:	01170100 	tsteq	r7, r0, lsl #2
 224:	00000196 	muleq	r0, r6, r1
 228:	0000812c 	andeq	r8, r0, ip, lsr #2
 22c:	000081b0 			; <UNDEFINED> instruction: 0x000081b0
 230:	00000040 	andeq	r0, r0, r0, asr #32
 234:	0001ff01 	andeq	pc, r1, r1, lsl #30
 238:	74701100 	ldrbtvc	r1, [r0], #-256	; 0x100
 23c:	ff1e0100 			; <UNDEFINED> instruction: 0xff1e0100
 240:	02000001 	andeq	r0, r0, #1
 244:	70117491 	mulsvc	r1, r1, r4
 248:	01003274 	tsteq	r0, r4, ror r2
 24c:	0001ff2e 	andeq	pc, r1, lr, lsr #30
 250:	70910200 	addsvc	r0, r1, r0, lsl #4
 254:	63040600 	movwvs	r0, #17920	; 0x4600
 258:	12000001 	andne	r0, r0, #1
 25c:	0000021b 	andeq	r0, r0, fp, lsl r2
 260:	010e2302 	tsteq	lr, r2, lsl #6
 264:	05010000 	streq	r0, [r1, #-0]
 268:	0094cc03 	addseq	ip, r4, r3, lsl #24
 26c:	4c431300 	mcrrmi	3, 0, r1, r3, cr0
 270:	21240200 	teqcs	r4, r0, lsl #4
 274:	01000001 	tsteq	r0, r1
 278:	94c40305 	strbls	r0, [r4], #773	; 0x305
 27c:	5e000000 	cdppl	0, 0, cr0, cr0, cr0, {0}
 280:	02000001 	andeq	r0, r0, #1
 284:	00012400 	andeq	r2, r1, r0, lsl #8
 288:	35010400 	strcc	r0, [r1, #-1024]	; 0x400
 28c:	01000000 	mrseq	r0, (UNDEF: 0)
 290:	00000118 	andeq	r0, r0, r8, lsl r1
 294:	000000ac 	andeq	r0, r0, ip, lsr #1
 298:	000081b0 			; <UNDEFINED> instruction: 0x000081b0
 29c:	000082e8 	andeq	r8, r0, r8, ror #5
 2a0:	000000ec 	andeq	r0, r0, ip, ror #1
 2a4:	006c6602 	rsbeq	r6, ip, r2, lsl #12
 2a8:	4d030108 	stfmis	f0, [r3, #-32]	; 0xffffffe0
 2ac:	03000000 	movweq	r0, #0
 2b0:	0000014a 	andeq	r0, r0, sl, asr #2
 2b4:	004d0401 	subeq	r0, sp, r1, lsl #8
 2b8:	23020000 	movwcs	r0, #8192	; 0x2000
 2bc:	02390300 	eorseq	r0, r9, #0
 2c0:	05010000 	streq	r0, [r1, #-0]
 2c4:	00000053 	andeq	r0, r0, r3, asr r0
 2c8:	00042302 	andeq	r2, r4, r2, lsl #6
 2cc:	00250404 	eoreq	r0, r5, r4, lsl #8
 2d0:	04050000 	streq	r0, [r5], #-0
 2d4:	00009f07 	andeq	r9, r0, r7, lsl #30
 2d8:	4f010600 	svcmi	0x00010600
 2dc:	01000001 	tsteq	r0, r1
 2e0:	009f010c 	addseq	r0, pc, ip, lsl #2
 2e4:	81b00000 	movshi	r0, r0
 2e8:	82640000 	rsbhi	r0, r4, #0
 2ec:	006c0000 	rsbeq	r0, ip, r0
 2f0:	9f010000 	svcls	0x00010000
 2f4:	07000000 	streq	r0, [r0, -r0]
 2f8:	00000239 	andeq	r0, r0, r9, lsr r2
 2fc:	00530c01 	subseq	r0, r3, r1, lsl #24
 300:	91020000 	mrsls	r0, (UNDEF: 2)
 304:	00660874 	rsbeq	r0, r6, r4, ror r8
 308:	004d0e01 	subeq	r0, sp, r1, lsl #28
 30c:	54010000 	strpl	r0, [r1], #-0
 310:	00012309 	andeq	r2, r1, r9, lsl #6
 314:	a10e0100 	mrsge	r0, (UNDEF: 30)
 318:	01000000 	mrseq	r0, (UNDEF: 0)
 31c:	040a0055 	streq	r0, [sl], #-85	; 0x55
 320:	004d0404 	subeq	r0, sp, r4, lsl #8
 324:	010b0000 	mrseq	r0, (UNDEF: 11)
 328:	00000131 	andeq	r0, r0, r1, lsr r1
 32c:	64012201 	strvs	r2, [r1], #-513	; 0x201
 330:	ac000082 	stcge	0, cr0, [r0], {130}	; 0x82
 334:	98000082 	stmdals	r0, {r1, r7}
 338:	01000000 	mrseq	r0, (UNDEF: 0)
 33c:	000000e9 	andeq	r0, r0, r9, ror #1
 340:	7274700c 	rsbsvc	r7, r4, #12
 344:	9f220100 	svcls	0x00220100
 348:	02000000 	andeq	r0, r0, #0
 34c:	39077491 	stmdbcc	r7, {r0, r4, r7, sl, ip, sp, lr}
 350:	01000002 	tsteq	r0, r2
 354:	00005322 	andeq	r5, r0, r2, lsr #6
 358:	70910200 	addsvc	r0, r1, r0, lsl #4
 35c:	01006608 	tsteq	r0, r8, lsl #12
 360:	00004d24 	andeq	r4, r0, r4, lsr #26
 364:	00540100 	subseq	r0, r4, r0, lsl #2
 368:	015e010b 	cmpeq	lr, fp, lsl #2
 36c:	2c010000 	stccs	0, cr0, [r1], {-0}
 370:	0082ac01 	addeq	sl, r2, r1, lsl #24
 374:	0082e800 	addeq	lr, r2, r0, lsl #16
 378:	0000c400 	andeq	ip, r0, r0, lsl #8
 37c:	01200100 	teqeq	r0, r0, lsl #2
 380:	3f070000 	svccc	0x00070000
 384:	01000001 	tsteq	r0, r1
 388:	0001202c 	andeq	r2, r1, ip, lsr #32
 38c:	7c910200 	lfmvc	f0, 4, [r1], {0}
 390:	00017707 	andeq	r7, r1, r7, lsl #14
 394:	532c0100 	teqpl	ip, #0
 398:	02000000 	andeq	r0, r0, #0
 39c:	04007891 	streq	r7, [r0], #-2193	; 0x891
 3a0:	00012604 	andeq	r2, r1, r4, lsl #12
 3a4:	08010500 	stmdaeq	r1, {r8, sl}
 3a8:	000000db 	ldrdeq	r0, [r0], -fp
 3ac:	706f7408 	rsbvc	r7, pc, r8, lsl #8
 3b0:	20080100 	andcs	r0, r8, r0, lsl #2
 3b4:	05000001 	streq	r0, [r0, #-1]
 3b8:	0094a003 	addseq	sl, r4, r3
 3bc:	016c0900 	cmneq	ip, r0, lsl #18
 3c0:	09010000 	stmdbeq	r1, {}	; <UNPREDICTABLE>
 3c4:	00000120 	andeq	r0, r0, r0, lsr #2
 3c8:	94a40305 	strtls	r0, [r4], #773	; 0x305
 3cc:	280d0000 	stmdacs	sp, {}	; <UNPREDICTABLE>
 3d0:	01000001 	tsteq	r0, r1
 3d4:	00004d06 	andeq	r4, r0, r6, lsl #26
 3d8:	03050100 	movweq	r0, #20736	; 0x5100
 3dc:	0000949c 	muleq	r0, ip, r4
 3e0:	0000b800 	andeq	fp, r0, r0, lsl #16
 3e4:	f4000200 	vst1.8	{d0-d3}, [r0], r0
 3e8:	04000001 	streq	r0, [r0], #-1
 3ec:	00003501 	andeq	r3, r0, r1, lsl #10
 3f0:	01810100 	orreq	r0, r1, r0, lsl #2
 3f4:	00ac0000 	adceq	r0, ip, r0
 3f8:	82e80000 	rschi	r0, r8, #0
 3fc:	84240000 	strthi	r0, [r4], #-0
 400:	01490000 	mrseq	r0, (UNDEF: 73)
 404:	02020000 	andeq	r0, r2, #0
 408:	00009907 	andeq	r9, r0, r7, lsl #18
 40c:	07040200 	streq	r0, [r4, -r0, lsl #4]
 410:	0000009f 	muleq	r0, pc, r0	; <UNPREDICTABLE>
 414:	d2080102 	andle	r0, r8, #-2147483648	; 0x80000000
 418:	03000000 	movweq	r0, #0
 41c:	00018d01 	andeq	r8, r1, r1, lsl #26
 420:	e81c0100 	ldmda	ip, {r8}
 424:	34000082 	strcc	r0, [r0], #-130	; 0x82
 428:	e4000083 	str	r0, [r0], #-131	; 0x83
 42c:	01000000 	mrseq	r0, (UNDEF: 0)
 430:	00000061 	andeq	r0, r0, r1, rrx
 434:	00787204 	rsbseq	r7, r8, r4, lsl #4
 438:	002c1e01 	eoreq	r1, ip, r1, lsl #28
 43c:	91020000 	mrsls	r0, (UNDEF: 2)
 440:	01050074 	tsteq	r5, r4, ror r0
 444:	000001af 	andeq	r0, r0, pc, lsr #3
 448:	83342b01 	teqhi	r4, #1024	; 0x400
 44c:	834c0000 	movthi	r0, #49152	; 0xc000
 450:	01100000 	tsteq	r0, r0
 454:	05010000 	streq	r0, [r1, #-0]
 458:	00018601 	andeq	r8, r1, r1, lsl #12
 45c:	4c310100 	ldfmis	f0, [r1], #-0
 460:	64000083 	strvs	r0, [r0], #-131	; 0x83
 464:	30000083 	andcc	r0, r0, r3, lsl #1
 468:	01000001 	tsteq	r0, r1
 46c:	01a70106 			; <UNDEFINED> instruction: 0x01a70106
 470:	3a010000 	bcc	40478 <__bss_end+0x36fa0>
 474:	00008364 	andeq	r8, r0, r4, ror #6
 478:	00008424 	andeq	r8, r0, r4, lsr #8
 47c:	00000150 	andeq	r0, r0, r0, asr r1
 480:	61720401 	cmnvs	r2, r1, lsl #8
 484:	2c3c0100 	ldfcss	f0, [ip], #-0
 488:	02000000 	andeq	r0, r0, #0
 48c:	72047491 	andvc	r7, r4, #-1862270976	; 0x91000000
 490:	3d010078 	stccc	0, cr0, [r1, #-480]	; 0xfffffe20
 494:	0000002c 	andeq	r0, r0, ip, lsr #32
 498:	00709102 	rsbseq	r9, r0, r2, lsl #2
 49c:	00033300 	andeq	r3, r3, r0, lsl #6
 4a0:	66000200 	strvs	r0, [r0], -r0, lsl #4
 4a4:	04000002 	streq	r0, [r0], #-2
 4a8:	00003501 	andeq	r3, r0, r1, lsl #10
 4ac:	01bc0100 			; <UNDEFINED> instruction: 0x01bc0100
 4b0:	00ac0000 	adceq	r0, ip, r0
 4b4:	84240000 	strthi	r0, [r4], #-0
 4b8:	8a380000 	bhi	e004c0 <__bss_end+0xdf6fe8>
 4bc:	01980000 	orrseq	r0, r8, r0
 4c0:	0a020000 	beq	804c8 <__bss_end+0x76ff0>
 4c4:	02000001 	andeq	r0, r0, #1
 4c8:	00003005 	andeq	r3, r0, r5
 4cc:	010a0300 	mrseq	r0, (UNDEF: 58)
 4d0:	02040000 	andeq	r0, r4, #0
 4d4:	00005505 	andeq	r5, r0, r5, lsl #10
 4d8:	454e0400 	strbmi	r0, [lr, #-1024]	; 0x400
 4dc:	05000057 	streq	r0, [r0, #-87]	; 0x57
 4e0:	00000041 	andeq	r0, r0, r1, asr #32
 4e4:	00910501 	addseq	r0, r1, r1, lsl #10
 4e8:	05020000 	streq	r0, [r2, #-0]
 4ec:	00000071 	andeq	r0, r0, r1, ror r0
 4f0:	27020003 	strcs	r0, [r2, -r3]
 4f4:	02000000 	andeq	r0, r0, #0
 4f8:	00006007 	andeq	r6, r0, r7
 4fc:	66040600 	strvs	r0, [r4], -r0, lsl #12
 500:	07000000 	streq	r0, [r0, -r0]
 504:	008b0801 	addeq	r0, fp, r1, lsl #16
 508:	020c0000 	andeq	r0, ip, #0
 50c:	00009d0e 	andeq	r9, r0, lr, lsl #26
 510:	70730900 	rsbsvc	r0, r3, r0, lsl #18
 514:	9d0f0200 	sfmls	f0, 4, [pc, #-0]	; 51c <_start-0x7ae4>
 518:	02000000 	andeq	r0, r0, #0
 51c:	70090023 	andvc	r0, r9, r3, lsr #32
 520:	10020063 	andne	r0, r2, r3, rrx
 524:	0000009d 	muleq	r0, sp, r0
 528:	0a042302 	beq	109138 <__bss_end+0xffc60>
 52c:	00000102 	andeq	r0, r0, r2, lsl #2
 530:	009d1102 	addseq	r1, sp, r2, lsl #2
 534:	23020000 	movwcs	r0, #8192	; 0x2000
 538:	040b0008 	streq	r0, [fp], #-8
 53c:	0000fc08 	andeq	pc, r0, r8, lsl #24
 540:	14021c00 	strne	r1, [r2], #-3072	; 0xc00
 544:	0000010e 	andeq	r0, r0, lr, lsl #2
 548:	00001e0a 	andeq	r1, r0, sl, lsl #28
 54c:	0e150200 	cdpeq	2, 1, cr0, cr5, cr0, {0}
 550:	02000001 	andeq	r0, r0, #1
 554:	000a0023 	andeq	r0, sl, r3, lsr #32
 558:	02000000 	andeq	r0, r0, #0
 55c:	00009d16 	andeq	r9, r0, r6, lsl sp
 560:	04230200 	strteq	r0, [r3], #-512	; 0x200
 564:	0000ef0a 	andeq	lr, r0, sl, lsl #30
 568:	14170200 	ldrne	r0, [r7], #-512	; 0x200
 56c:	02000001 	andeq	r0, r0, #1
 570:	580a0823 	stmdapl	sl, {r0, r1, r5, fp}
 574:	02000000 	andeq	r0, r0, #0
 578:	00005518 	andeq	r5, r0, r8, lsl r5
 57c:	0c230200 	sfmeq	f0, 4, [r3], #-0
 580:	0001100a 	andeq	r1, r1, sl
 584:	1b190200 	blne	640d8c <__bss_end+0x6378b4>
 588:	02000001 	andeq	r0, r0, #1
 58c:	e90a1023 	stmdb	sl, {r0, r1, r5, ip}
 590:	02000000 	andeq	r0, r0, #0
 594:	0000251a 	andeq	r2, r0, sl, lsl r5
 598:	14230200 	strtne	r0, [r3], #-512	; 0x200
 59c:	0003520a 	andeq	r5, r3, sl, lsl #4
 5a0:	9d1b0200 	lfmls	f0, 4, [fp, #-0]
 5a4:	02000000 	andeq	r0, r0, #0
 5a8:	06001823 	streq	r1, [r0], -r3, lsr #16
 5ac:	00009f04 	andeq	r9, r0, r4, lsl #30
 5b0:	07040c00 	streq	r0, [r4, -r0, lsl #24]
 5b4:	0000009f 	muleq	r0, pc, r0	; <UNPREDICTABLE>
 5b8:	00680406 	rsbeq	r0, r8, r6, lsl #8
 5bc:	64080000 	strvs	r0, [r8], #-0
 5c0:	08000000 	stmdaeq	r0, {}	; <UNPREDICTABLE>
 5c4:	014a1e02 	cmpeq	sl, r2, lsl #28
 5c8:	4e0a0000 	cdpmi	0, 0, cr0, cr10, cr0, {0}
 5cc:	02000000 	andeq	r0, r0, #0
 5d0:	00010e1f 	andeq	r0, r1, pc, lsl lr
 5d4:	00230200 	eoreq	r0, r3, r0, lsl #4
 5d8:	00007c0a 	andeq	r7, r0, sl, lsl #24
 5dc:	0e200200 	cdpeq	2, 2, cr0, cr0, cr0, {0}
 5e0:	02000001 	andeq	r0, r0, #1
 5e4:	0d000423 	cfstrseq	mvf0, [r0, #-140]	; 0xffffff74
 5e8:	0001ea01 	andeq	lr, r1, r1, lsl #20
 5ec:	01060100 	mrseq	r0, (UNDEF: 22)
 5f0:	00008424 	andeq	r8, r0, r4, lsr #8
 5f4:	00008478 	andeq	r8, r0, r8, ror r4
 5f8:	0000017c 	andeq	r0, r0, ip, ror r1
 5fc:	00018d01 	andeq	r8, r1, r1, lsl #26
 600:	022b0e00 	eoreq	r0, fp, #0
 604:	06010000 	streq	r0, [r1], -r0
 608:	0000011b 	andeq	r0, r0, fp, lsl r1
 60c:	0f749102 	svceq	0x00749102
 610:	06010066 	streq	r0, [r1], -r6, rrx
 614:	00000055 	andeq	r0, r0, r5, asr r0
 618:	0e709102 	expeqs	f1, f2
 61c:	00000239 	andeq	r0, r0, r9, lsr r2
 620:	01140601 	tsteq	r4, r1, lsl #12
 624:	91020000 	mrsls	r0, (UNDEF: 2)
 628:	010d006c 	tsteq	sp, ip, rrx
 62c:	00000250 	andeq	r0, r0, r0, asr r2
 630:	78011901 	stmdavc	r1, {r0, r8, fp, ip}
 634:	f0000084 			; <UNDEFINED> instruction: 0xf0000084
 638:	a8000084 	stmdage	r0, {r2, r7}
 63c:	01000001 	tsteq	r0, r1
 640:	000001ec 	andeq	r0, r0, ip, ror #3
 644:	6263700f 	rsbvs	r7, r3, #15
 648:	0e190100 	mufeqe	f0, f1, f0
 64c:	02000001 	andeq	r0, r0, #1
 650:	660f6c91 			; <UNDEFINED> instruction: 0x660f6c91
 654:	55190100 	ldrpl	r0, [r9, #-256]	; 0x100
 658:	02000000 	andeq	r0, r0, #0
 65c:	390e6891 	stmdbcc	lr, {r0, r4, r7, fp, sp, lr}
 660:	01000002 	tsteq	r0, r2
 664:	00011419 	andeq	r1, r1, r9, lsl r4
 668:	64910200 	ldrvs	r0, [r1], #512	; 0x200
 66c:	0000040e 	andeq	r0, r0, lr, lsl #8
 670:	9d190100 	ldflss	f0, [r9, #-0]
 674:	02000000 	andeq	r0, r0, #0
 678:	63106091 	tstvs	r0, #145	; 0x91
 67c:	01007874 	tsteq	r0, r4, ror r8
 680:	00011b1d 	andeq	r1, r1, sp, lsl fp
 684:	74910200 	ldrvc	r0, [r1], #512	; 0x200
 688:	db010d00 	blle	43a90 <__bss_end+0x3a5b8>
 68c:	01000001 	tsteq	r0, r1
 690:	84f00123 	ldrbthi	r0, [r0], #291	; 0x123
 694:	85d80000 	ldrbhi	r0, [r8]
 698:	01d40000 	bicseq	r0, r4, r0
 69c:	3d010000 	stccc	0, cr0, [r1, #-0]
 6a0:	0f000002 	svceq	0x00000002
 6a4:	23010066 	movwcs	r0, #4198	; 0x1066
 6a8:	00000055 	andeq	r0, r0, r5, asr r0
 6ac:	0e6c9102 	lgneqe	f1, f2
 6b0:	00000004 	andeq	r0, r0, r4
 6b4:	009d2301 	addseq	r2, sp, r1, lsl #6
 6b8:	91020000 	mrsls	r0, (UNDEF: 2)
 6bc:	02330e68 	eorseq	r0, r3, #1664	; 0x680
 6c0:	23010000 	movwcs	r0, #4096	; 0x1000
 6c4:	00000114 	andeq	r0, r0, r4, lsl r1
 6c8:	11649102 	cmnne	r4, r2, lsl #2
 6cc:	000001f3 	strdeq	r0, [r0], -r3
 6d0:	010e2501 	tsteq	lr, r1, lsl #10
 6d4:	91020000 	mrsls	r0, (UNDEF: 2)
 6d8:	01120074 	tsteq	r2, r4, ror r0
 6dc:	00000215 	andeq	r0, r0, r5, lsl r2
 6e0:	85d83401 	ldrbhi	r3, [r8, #1025]	; 0x401
 6e4:	86400000 	strbhi	r0, [r0], -r0
 6e8:	02000000 	andeq	r0, r0, #0
 6ec:	13010000 	movwne	r0, #4096	; 0x1000
 6f0:	00023e01 	andeq	r3, r2, r1, lsl #28
 6f4:	403d0100 	eorsmi	r0, sp, r0, lsl #2
 6f8:	34000086 	strcc	r0, [r0], #-134	; 0x86
 6fc:	20000087 	andcs	r0, r0, r7, lsl #1
 700:	01000002 	tsteq	r0, r2
 704:	00000288 	andeq	r0, r0, r8, lsl #5
 708:	0001b711 	andeq	fp, r1, r1, lsl r7
 70c:	0e3e0100 	rsfeqe	f0, f6, f0
 710:	02000001 	andeq	r0, r0, #1
 714:	74107491 	ldrvc	r7, [r0], #-1169	; 0x491
 718:	0100706d 	tsteq	r0, sp, rrx
 71c:	00010e3f 	andeq	r0, r1, pc, lsr lr
 720:	70910200 	addsvc	r0, r1, r0, lsl #4
 724:	0f011400 	svceq	0x00011400
 728:	01000002 	tsteq	r0, r2
 72c:	0087345b 	addeq	r3, r7, fp, asr r4
 730:	00876800 	addeq	r6, r7, r0, lsl #16
 734:	007d0200 	rsbseq	r0, sp, r0, lsl #4
 738:	c4011201 	strgt	r1, [r1], #-513	; 0x201
 73c:	01000001 	tsteq	r0, r1
 740:	00876861 	addeq	r6, r7, r1, ror #16
 744:	0087a000 	addeq	sl, r7, r0
 748:	00024c00 	andeq	r4, r2, r0, lsl #24
 74c:	01130100 	tsteq	r3, r0, lsl #2
 750:	000001fb 	strdeq	r0, [r0], -fp
 754:	87a06701 	strhi	r6, [r0, r1, lsl #14]!
 758:	89240000 	stmdbhi	r4!, {}	; <UNPREDICTABLE>
 75c:	026c0000 	rsbeq	r0, ip, #0
 760:	e3010000 	movw	r0, #4096	; 0x1000
 764:	15000002 	strne	r0, [r0, #-2]
 768:	00008840 	andeq	r8, r0, r0, asr #16
 76c:	00008884 	andeq	r8, r0, r4, lsl #17
 770:	706d7410 	rsbvc	r7, sp, r0, lsl r4
 774:	0e750100 	rpweqs	f0, f5, f0
 778:	02000001 	andeq	r0, r0, #1
 77c:	00007491 	muleq	r0, r1, r4
 780:	01d00116 	bicseq	r0, r0, r6, lsl r1
 784:	8e010000 	cdphi	0, 0, cr0, cr1, cr0, {0}
 788:	00008924 	andeq	r8, r0, r4, lsr #18
 78c:	00008a38 	andeq	r8, r0, r8, lsr sl
 790:	01007d02 	tsteq	r0, r2, lsl #26
 794:	00000313 	andeq	r0, r0, r3, lsl r3
 798:	00895415 	addeq	r5, r9, r5, lsl r4
 79c:	00898800 	addeq	r8, r9, r0, lsl #16
 7a0:	6d741000 	ldclvs	0, cr1, [r4, #-0]
 7a4:	94010070 	strls	r0, [r1], #-112	; 0x70
 7a8:	0000010e 	andeq	r0, r0, lr, lsl #2
 7ac:	00005401 	andeq	r5, r0, r1, lsl #8
 7b0:	00021b17 	andeq	r1, r2, r7, lsl fp
 7b4:	0e230200 	cdpeq	2, 2, cr0, cr3, cr0, {0}
 7b8:	01000001 	tsteq	r0, r1
 7bc:	94cc0305 	strbls	r0, [ip], #773	; 0x305
 7c0:	43180000 	tstmi	r8, #0
 7c4:	2402004c 	strcs	r0, [r2], #-76	; 0x4c
 7c8:	00000121 	andeq	r0, r0, r1, lsr #2
 7cc:	c4030501 	strgt	r0, [r3], #-1281	; 0x501
 7d0:	00000094 	muleq	r0, r4, r0
 7d4:	00000213 	andeq	r0, r0, r3, lsl r2
 7d8:	03d40002 	bicseq	r0, r4, #2
 7dc:	01040000 	mrseq	r0, (UNDEF: 4)
 7e0:	00000035 	andeq	r0, r0, r5, lsr r0
 7e4:	0002ac01 	andeq	sl, r2, r1, lsl #24
 7e8:	0000ac00 	andeq	sl, r0, r0, lsl #24
 7ec:	008a3800 	addeq	r3, sl, r0, lsl #16
 7f0:	008af000 	addeq	pc, sl, r0
 7f4:	00027d00 	andeq	r7, r2, r0, lsl #26
 7f8:	010a0200 	mrseq	r0, R10_fiq
 7fc:	05020000 	streq	r0, [r2, #-0]
 800:	00000030 	andeq	r0, r0, r0, lsr r0
 804:	00010a03 	andeq	r0, r1, r3, lsl #20
 808:	05020400 	streq	r0, [r2, #-1024]	; 0x400
 80c:	00000055 	andeq	r0, r0, r5, asr r0
 810:	57454e04 	strbpl	r4, [r5, -r4, lsl #28]
 814:	41050000 	mrsmi	r0, (UNDEF: 5)
 818:	01000000 	mrseq	r0, (UNDEF: 0)
 81c:	00009105 	andeq	r9, r0, r5, lsl #2
 820:	71050200 	mrsvc	r0, SP_usr
 824:	03000000 	movweq	r0, #0
 828:	00270200 	eoreq	r0, r7, r0, lsl #4
 82c:	07020000 	streq	r0, [r2, -r0]
 830:	00000060 	andeq	r0, r0, r0, rrx
 834:	00660406 	rsbeq	r0, r6, r6, lsl #8
 838:	01070000 	mrseq	r0, (UNDEF: 7)
 83c:	00008b08 	andeq	r8, r0, r8, lsl #22
 840:	0e020c00 	cdpeq	12, 0, cr0, cr2, cr0, {0}
 844:	0000009d 	muleq	r0, sp, r0
 848:	00707309 	rsbseq	r7, r0, r9, lsl #6
 84c:	009d0f02 	addseq	r0, sp, r2, lsl #30
 850:	23020000 	movwcs	r0, #8192	; 0x2000
 854:	63700900 	cmnvs	r0, #0
 858:	9d100200 	lfmls	f0, 4, [r0, #-0]
 85c:	02000000 	andeq	r0, r0, #0
 860:	020a0423 	andeq	r0, sl, #587202560	; 0x23000000
 864:	02000001 	andeq	r0, r0, #1
 868:	00009d11 	andeq	r9, r0, r1, lsl sp
 86c:	08230200 	stmdaeq	r3!, {r9}
 870:	08040b00 	stmdaeq	r4, {r8, r9, fp}
 874:	000000fc 	strdeq	r0, [r0], -ip
 878:	0e14021c 	mrceq	2, 0, r0, cr4, cr12, {0}
 87c:	0a000001 	beq	888 <_start-0x7778>
 880:	0000001e 	andeq	r0, r0, lr, lsl r0
 884:	010e1502 	tsteq	lr, r2, lsl #10
 888:	23020000 	movwcs	r0, #8192	; 0x2000
 88c:	00000a00 	andeq	r0, r0, r0, lsl #20
 890:	16020000 	strne	r0, [r2], -r0
 894:	0000009d 	muleq	r0, sp, r0
 898:	0a042302 	beq	1094a8 <__bss_end+0xfffd0>
 89c:	000000ef 	andeq	r0, r0, pc, ror #1
 8a0:	01141702 	tsteq	r4, r2, lsl #14
 8a4:	23020000 	movwcs	r0, #8192	; 0x2000
 8a8:	00580a08 	subseq	r0, r8, r8, lsl #20
 8ac:	18020000 	stmdane	r2, {}	; <UNPREDICTABLE>
 8b0:	00000055 	andeq	r0, r0, r5, asr r0
 8b4:	0a0c2302 	beq	3094c4 <__bss_end+0x2fffec>
 8b8:	00000110 	andeq	r0, r0, r0, lsl r1
 8bc:	011b1902 	tsteq	fp, r2, lsl #18
 8c0:	23020000 	movwcs	r0, #8192	; 0x2000
 8c4:	00e90a10 	rsceq	r0, r9, r0, lsl sl
 8c8:	1a020000 	bne	808d0 <__bss_end+0x773f8>
 8cc:	00000025 	andeq	r0, r0, r5, lsr #32
 8d0:	0a142302 	beq	5094e0 <__bss_end+0x500008>
 8d4:	00000352 	andeq	r0, r0, r2, asr r3
 8d8:	009d1b02 	addseq	r1, sp, r2, lsl #22
 8dc:	23020000 	movwcs	r0, #8192	; 0x2000
 8e0:	04060018 	streq	r0, [r6], #-24
 8e4:	0000009f 	muleq	r0, pc, r0	; <UNPREDICTABLE>
 8e8:	9f07040c 	svcls	0x0007040c
 8ec:	06000000 	streq	r0, [r0], -r0
 8f0:	00006804 	andeq	r6, r0, r4, lsl #16
 8f4:	00640800 	rsbeq	r0, r4, r0, lsl #16
 8f8:	02080000 	andeq	r0, r8, #0
 8fc:	00014a1e 	andeq	r4, r1, lr, lsl sl
 900:	004e0a00 	subeq	r0, lr, r0, lsl #20
 904:	1f020000 	svcne	0x00020000
 908:	0000010e 	andeq	r0, r0, lr, lsl #2
 90c:	0a002302 	beq	951c <__bss_end+0x44>
 910:	0000007c 	andeq	r0, r0, ip, ror r0
 914:	010e2002 	tsteq	lr, r2
 918:	23020000 	movwcs	r0, #8192	; 0x2000
 91c:	010d0004 	tsteq	sp, r4
 920:	00000280 	andeq	r0, r0, r0, lsl #5
 924:	8a380401 	bhi	e01930 <__bss_end+0xdf8458>
 928:	8a4c0000 	bhi	1300930 <__bss_end+0x12f7458>
 92c:	02980000 	addseq	r0, r8, #0
 930:	0e010000 	cdpeq	0, 0, cr0, cr1, cr0, {0}
 934:	00025901 	andeq	r5, r2, r1, lsl #18
 938:	01090100 	mrseq	r0, (UNDEF: 25)
 93c:	00008a4c 	andeq	r8, r0, ip, asr #20
 940:	00008a74 	andeq	r8, r0, r4, ror sl
 944:	000002b8 			; <UNDEFINED> instruction: 0x000002b8
 948:	00018801 	andeq	r8, r1, r1, lsl #16
 94c:	02960f00 	addseq	r0, r6, #0
 950:	09010000 	stmdbeq	r1, {}	; <UNPREDICTABLE>
 954:	00000114 	andeq	r0, r0, r4, lsl r1
 958:	00749102 	rsbseq	r9, r4, r2, lsl #2
 95c:	02700110 	rsbseq	r0, r0, #4
 960:	0f010000 	svceq	0x00010000
 964:	00008a74 	andeq	r8, r0, r4, ror sl
 968:	00008a78 	andeq	r8, r0, r8, ror sl
 96c:	01007d02 	tsteq	r0, r2, lsl #26
 970:	02620111 	rsbeq	r0, r2, #1073741828	; 0x40000004
 974:	11010000 	mrsne	r0, (UNDEF: 1)
 978:	00008a78 	andeq	r8, r0, r8, ror sl
 97c:	00008aa8 	andeq	r8, r0, r8, lsr #21
 980:	000002e4 	andeq	r0, r0, r4, ror #5
 984:	0001c401 	andeq	ip, r1, r1, lsl #8
 988:	02961200 	addseq	r1, r6, #0
 98c:	12010000 	andne	r0, r1, #0
 990:	00000114 	andeq	r0, r0, r4, lsl r1
 994:	00749102 	rsbseq	r9, r4, r2, lsl #2
 998:	028b0113 	addeq	r0, fp, #-1073741820	; 0xc0000004
 99c:	18010000 	stmdane	r1, {}	; <UNPREDICTABLE>
 9a0:	00008aa8 	andeq	r8, r0, r8, lsr #21
 9a4:	00008af0 	strdeq	r8, [r0], -r0
 9a8:	00000310 	andeq	r0, r0, r0, lsl r3
 9ac:	0001ec01 	andeq	lr, r1, r1, lsl #24
 9b0:	02a11200 	adceq	r1, r1, #0
 9b4:	19010000 	stmdbne	r1, {}	; <UNPREDICTABLE>
 9b8:	000001ec 	andeq	r0, r0, ip, ror #3
 9bc:	00749102 	rsbseq	r9, r4, r2, lsl #2
 9c0:	69050414 	stmdbvs	r5, {r2, r4, sl}
 9c4:	1500746e 	strne	r7, [r0, #-1134]	; 0x46e
 9c8:	0000021b 	andeq	r0, r0, fp, lsl r2
 9cc:	010e2302 	tsteq	lr, r2, lsl #6
 9d0:	05010000 	streq	r0, [r1, #-0]
 9d4:	0094cc03 	addseq	ip, r4, r3, lsl #24
 9d8:	4c431600 	mcrrmi	6, 0, r1, r3, cr0
 9dc:	21240200 	teqcs	r4, r0, lsl #4
 9e0:	01000001 	tsteq	r0, r1
 9e4:	94c40305 	strbls	r0, [r4], #773	; 0x305
 9e8:	a6000000 	strge	r0, [r0], -r0
 9ec:	02000004 	andeq	r0, r0, #4
 9f0:	00052600 	andeq	r2, r5, r0, lsl #12
 9f4:	35010400 	strcc	r0, [r1, #-1024]	; 0x400
 9f8:	01000000 	mrseq	r0, (UNDEF: 0)
 9fc:	000003c8 	andeq	r0, r0, r8, asr #7
 a00:	000000ac 	andeq	r0, r0, ip, lsr #1
 a04:	00008af0 	strdeq	r8, [r0], -r0
 a08:	0000949c 	muleq	r0, ip, r4
 a0c:	000002d6 	ldrdeq	r0, [r0], -r6
 a10:	99070202 	stmdbls	r7, {r1, r9}
 a14:	03000000 	movweq	r0, #0
 a18:	00000009 	andeq	r0, r0, r9
 a1c:	00370502 	eorseq	r0, r7, r2, lsl #10
 a20:	04020000 	streq	r0, [r2], #-0
 a24:	00009f07 	andeq	r9, r0, r7, lsl #30
 a28:	04140300 	ldreq	r0, [r4], #-768	; 0x300
 a2c:	06020000 	streq	r0, [r2], -r0
 a30:	00000049 	andeq	r0, r0, r9, asr #32
 a34:	d2080102 	andle	r0, r8, #-2147483648	; 0x80000000
 a38:	03000000 	movweq	r0, #0
 a3c:	00000015 	andeq	r0, r0, r5, lsl r0
 a40:	002c2f03 	eoreq	r2, ip, r3, lsl #30
 a44:	ba030000 	blt	c0a4c <__bss_end+0xb7574>
 a48:	03000003 	movweq	r0, #3
 a4c:	00003e30 	andeq	r3, r0, r0, lsr lr
 a50:	d5010400 	strle	r0, [r1, #-1024]	; 0x400
 a54:	01000002 	tsteq	r0, r2
 a58:	009f0127 	addseq	r0, pc, r7, lsr #2
 a5c:	8af00000 	bhi	ffc00a64 <__bss_end+0xffbf758c>
 a60:	8c340000 	ldchi	0, cr0, [r4], #-0
 a64:	033c0000 	teqeq	ip, #0
 a68:	9f010000 	svcls	0x00010000
 a6c:	05000000 	streq	r0, [r0, #-0]
 a70:	29010069 	stmdbcs	r1, {r0, r3, r5, r6}
 a74:	0000009f 	muleq	r0, pc, r0	; <UNPREDICTABLE>
 a78:	06749102 	ldrbteq	r9, [r4], -r2, lsl #2
 a7c:	0000040f 	andeq	r0, r0, pc, lsl #8
 a80:	00a63701 	adceq	r3, r6, r1, lsl #14
 a84:	91020000 	mrsls	r0, (UNDEF: 2)
 a88:	04070070 	streq	r0, [r7], #-112	; 0x70
 a8c:	746e6905 	strbtvc	r6, [lr], #-2309	; 0x905
 a90:	50040800 	andpl	r0, r4, r0, lsl #16
 a94:	09000000 	stmdbeq	r0, {}	; <UNPREDICTABLE>
 a98:	0003f201 	andeq	pc, r3, r1, lsl #4
 a9c:	01430100 	mrseq	r0, (UNDEF: 83)
 aa0:	00008c34 	andeq	r8, r0, r4, lsr ip
 aa4:	00008dc8 	andeq	r8, r0, r8, asr #27
 aa8:	00000368 	andeq	r0, r0, r8, ror #6
 aac:	00013b01 	andeq	r3, r1, r1, lsl #22
 ab0:	03130a00 	tsteq	r3, #0
 ab4:	43010000 	movwmi	r0, #4096	; 0x1000
 ab8:	000000a6 	andeq	r0, r0, r6, lsr #1
 abc:	055c9102 	ldrbeq	r9, [ip, #-258]	; 0x102
 ac0:	48010069 	stmdami	r1, {r0, r3, r5, r6}
 ac4:	0000009f 	muleq	r0, pc, r0	; <UNPREDICTABLE>
 ac8:	06749102 	ldrbteq	r9, [r4], -r2, lsl #2
 acc:	0000041a 	andeq	r0, r0, sl, lsl r4
 ad0:	009f5401 	addseq	r5, pc, r1, lsl #8
 ad4:	91020000 	mrsls	r0, (UNDEF: 2)
 ad8:	8c4c0b64 	mcrrhi	11, 6, r0, ip, cr4
 adc:	8cd80000 	ldclhi	0, cr0, [r8], {0}
 ae0:	01160000 	tsteq	r6, r0
 ae4:	db060000 	blle	180aec <__bss_end+0x177614>
 ae8:	01000003 	tsteq	r0, r3
 aec:	0000a64b 	andeq	sl, r0, fp, asr #12
 af0:	68910200 	ldmvs	r1, {r9}
 af4:	01006a05 	tsteq	r0, r5, lsl #20
 af8:	00009f4e 	andeq	r9, r0, lr, asr #30
 afc:	70910200 	addsvc	r0, r1, r0, lsl #4
 b00:	8d040c00 	stchi	12, cr0, [r4, #-0]
 b04:	8da00000 	stchi	0, cr0, [r0]
 b08:	db060000 	blle	180b10 <__bss_end+0x177638>
 b0c:	01000003 	tsteq	r0, r3
 b10:	0000a657 	andeq	sl, r0, r7, asr r6
 b14:	60910200 	addsvs	r0, r1, r0, lsl #4
 b18:	01006a05 	tsteq	r0, r5, lsl #20
 b1c:	00009f59 	andeq	r9, r0, r9, asr pc
 b20:	6c910200 	lfmvs	f0, 4, [r1], {0}
 b24:	010d0000 	mrseq	r0, (UNDEF: 13)
 b28:	000002f1 	strdeq	r0, [r0], -r1
 b2c:	00a66101 	adceq	r6, r6, r1, lsl #2
 b30:	8dc80000 	stclhi	0, cr0, [r8]
 b34:	8ecc0000 	cdphi	0, 12, cr0, cr12, cr0, {0}
 b38:	03940000 	orrseq	r0, r4, #0
 b3c:	87010000 	strhi	r0, [r1, -r0]
 b40:	05000001 	streq	r0, [r0, #-1]
 b44:	63010069 	movwvs	r0, #4201	; 0x1069
 b48:	0000009f 	muleq	r0, pc, r0	; <UNPREDICTABLE>
 b4c:	057c9102 	ldrbeq	r9, [ip, #-258]!	; 0x102
 b50:	6401006a 	strvs	r0, [r1], #-106	; 0x6a
 b54:	0000009f 	muleq	r0, pc, r0	; <UNPREDICTABLE>
 b58:	0c789102 	ldfeqp	f1, [r8], #-8
 b5c:	00008e24 	andeq	r8, r0, r4, lsr #28
 b60:	00008e78 	andeq	r8, r0, r8, ror lr
 b64:	01006b05 	tsteq	r0, r5, lsl #22
 b68:	00009f70 	andeq	r9, r0, r0, ror pc
 b6c:	74910200 	ldrvc	r0, [r1], #512	; 0x200
 b70:	010e0000 	mrseq	r0, (UNDEF: 14)
 b74:	0000030c 	andeq	r0, r0, ip, lsl #6
 b78:	cc017e01 	stcgt	14, cr7, [r1], {1}
 b7c:	7c00008e 	stcvc	0, cr0, [r0], {142}	; 0x8e
 b80:	b400008f 	strlt	r0, [r0], #-143	; 0x8f
 b84:	01000003 	tsteq	r0, r3
 b88:	000001c8 	andeq	r0, r0, r8, asr #3
 b8c:	0003130a 	andeq	r1, r3, sl, lsl #6
 b90:	a67e0100 	ldrbtge	r0, [lr], -r0, lsl #2
 b94:	02000000 	andeq	r0, r0, #0
 b98:	69057491 	stmdbvs	r5, {r0, r4, r7, sl, ip, sp, lr}
 b9c:	9f800100 	svcls	0x00800100
 ba0:	02000000 	andeq	r0, r0, #0
 ba4:	6a057c91 	bvs	15fdf0 <__bss_end+0x156918>
 ba8:	9f810100 	svcls	0x00810100
 bac:	02000000 	andeq	r0, r0, #0
 bb0:	0d007891 	stceq	8, cr7, [r0, #-580]	; 0xfffffdbc
 bb4:	00031f01 	andeq	r1, r3, r1, lsl #30
 bb8:	a68d0100 	strge	r0, [sp], r0, lsl #2
 bbc:	7c000000 	stcvc	0, cr0, [r0], {-0}
 bc0:	0400008f 	streq	r0, [r0], #-143	; 0x8f
 bc4:	d4000090 	strle	r0, [r0], #-144	; 0x90
 bc8:	01000003 	tsteq	r0, r3
 bcc:	000001f2 	strdeq	r0, [r0], -r2
 bd0:	01006905 	tsteq	r0, r5, lsl #18
 bd4:	00009f8f 	andeq	r9, r0, pc, lsl #31
 bd8:	7c910200 	lfmvc	f0, 4, [r1], {0}
 bdc:	d4010e00 	strle	r0, [r1], #-3584	; 0xe00
 be0:	01000003 	tsteq	r0, r3
 be4:	9004019c 	mulls	r4, ip, r1
 be8:	90800000 	addls	r0, r0, r0
 bec:	03f40000 	mvnseq	r0, #0
 bf0:	27010000 	strcs	r0, [r1, -r0]
 bf4:	0a000002 	beq	c04 <_start-0x73fc>
 bf8:	000003db 	ldrdeq	r0, [r0], -fp
 bfc:	00a69c01 	adceq	r9, r6, r1, lsl #24
 c00:	91020000 	mrsls	r0, (UNDEF: 2)
 c04:	00690574 	rsbeq	r0, r9, r4, ror r5
 c08:	009f9e01 	addseq	r9, pc, r1, lsl #28
 c0c:	91020000 	mrsls	r0, (UNDEF: 2)
 c10:	010e007c 	tsteq	lr, ip, ror r0
 c14:	0000042a 	andeq	r0, r0, sl, lsr #8
 c18:	8001a701 	andhi	sl, r1, r1, lsl #14
 c1c:	b0000090 	mullt	r0, r0, r0
 c20:	14000090 	strne	r0, [r0], #-144	; 0x90
 c24:	01000004 	tsteq	r0, r4
 c28:	0000024f 	andeq	r0, r0, pc, asr #4
 c2c:	00036806 	andeq	r6, r3, r6, lsl #16
 c30:	37a90100 	strcc	r0, [r9, r0, lsl #2]!
 c34:	01000000 	mrseq	r0, (UNDEF: 0)
 c38:	010e0054 	qaddeq	r0, r4, lr
 c3c:	00000330 	andeq	r0, r0, r0, lsr r3
 c40:	b001b601 	andlt	fp, r1, r1, lsl #12
 c44:	fc000090 	stc2	0, cr0, [r0], {144}	; 0x90
 c48:	34000090 	strcc	r0, [r0], #-144	; 0x90
 c4c:	01000004 	tsteq	r0, r4
 c50:	00000277 	andeq	r0, r0, r7, ror r2
 c54:	00040c06 	andeq	r0, r4, r6, lsl #24
 c58:	37b80100 	ldrcc	r0, [r8, r0, lsl #2]!
 c5c:	01000000 	mrseq	r0, (UNDEF: 0)
 c60:	010d0054 	qaddeq	r0, r4, sp
 c64:	000003e8 	andeq	r0, r0, r8, ror #7
 c68:	02a1c801 	adceq	ip, r1, #65536	; 0x10000
 c6c:	90fc0000 	rscsls	r0, ip, r0
 c70:	91840000 	orrls	r0, r4, r0
 c74:	04540000 	ldrbeq	r0, [r4], #-0
 c78:	a1010000 	mrsge	r0, (UNDEF: 1)
 c7c:	05000002 	streq	r0, [r0, #-2]
 c80:	ca010069 	bgt	40e2c <__bss_end+0x37954>
 c84:	0000009f 	muleq	r0, pc, r0	; <UNPREDICTABLE>
 c88:	007c9102 	rsbseq	r9, ip, r2, lsl #2
 c8c:	005b0408 	subseq	r0, fp, r8, lsl #8
 c90:	010e0000 	mrseq	r0, (UNDEF: 14)
 c94:	0000038f 	andeq	r0, r0, pc, lsl #7
 c98:	8401d801 	strhi	sp, [r1], #-2049	; 0x801
 c9c:	c4000091 	strgt	r0, [r0], #-145	; 0x91
 ca0:	74000091 	strvc	r0, [r0], #-145	; 0x91
 ca4:	01000004 	tsteq	r0, r4
 ca8:	000002dc 	ldrdeq	r0, [r0], -ip
 cac:	6464610f 	strbtvs	r6, [r4], #-271	; 0x10f
 cb0:	50d80100 	sbcspl	r0, r8, r0, lsl #2
 cb4:	02000000 	andeq	r0, r0, #0
 cb8:	69057491 	stmdbvs	r5, {r0, r4, r7, sl, ip, sp, lr}
 cbc:	9fda0100 	svcls	0x00da0100
 cc0:	02000000 	andeq	r0, r0, #0
 cc4:	04007c91 	streq	r7, [r0], #-3217	; 0xc91
 cc8:	0002b601 	andeq	fp, r2, r1, lsl #12
 ccc:	01df0100 	bicseq	r0, pc, r0, lsl #2
 cd0:	000002a1 	andeq	r0, r0, r1, lsr #5
 cd4:	000091c4 	andeq	r9, r0, r4, asr #3
 cd8:	00009324 	andeq	r9, r0, r4, lsr #6
 cdc:	00000494 	muleq	r0, r4, r4
 ce0:	00036301 	andeq	r6, r3, r1, lsl #6
 ce4:	04360a00 	ldrteq	r0, [r6], #-2560	; 0xa00
 ce8:	df010000 	svcle	0x00010000
 cec:	00000037 	andeq	r0, r0, r7, lsr r0
 cf0:	055c9102 	ldrbeq	r9, [ip, #-258]	; 0x102
 cf4:	e1010069 	tst	r1, r9, rrx
 cf8:	0000009f 	muleq	r0, pc, r0	; <UNPREDICTABLE>
 cfc:	05749102 	ldrbeq	r9, [r4, #-258]!	; 0x102
 d00:	00706572 	rsbseq	r6, r0, r2, ror r5
 d04:	02a1f401 	adceq	pc, r1, #16777216	; 0x1000000
 d08:	91020000 	mrsls	r0, (UNDEF: 2)
 d0c:	91dc0c60 	bicsls	r0, ip, r0, ror #24
 d10:	92c40000 	sbcls	r0, r4, #0
 d14:	61050000 	mrsvs	r0, (UNDEF: 5)
 d18:	01006464 	tsteq	r0, r4, ror #8
 d1c:	000050e5 	andeq	r5, r0, r5, ror #1
 d20:	6c910200 	lfmvs	f0, 4, [r1], {0}
 d24:	00696605 	rsbeq	r6, r9, r5, lsl #12
 d28:	009fe701 	addseq	lr, pc, r1, lsl #14
 d2c:	91020000 	mrsls	r0, (UNDEF: 2)
 d30:	03db0668 	bicseq	r0, fp, #109051904	; 0x6800000
 d34:	e8010000 	stmda	r1, {}	; <UNPREDICTABLE>
 d38:	000000a6 	andeq	r0, r0, r6, lsr #1
 d3c:	05709102 	ldrbeq	r9, [r0, #-258]!	; 0x102
 d40:	01006973 	tsteq	r0, r3, ror r9
 d44:	00009ff0 	strdeq	r9, [r0], -r0
 d48:	64910200 	ldrvs	r0, [r1], #512	; 0x200
 d4c:	01090000 	mrseq	r0, (UNDEF: 9)
 d50:	00000420 	andeq	r0, r0, r0, lsr #8
 d54:	2401f901 	strcs	pc, [r1], #-2305	; 0x901
 d58:	9c000093 	stcls	0, cr0, [r0], {147}	; 0x93
 d5c:	c0000094 	mulgt	r0, r4, r0
 d60:	01000004 	tsteq	r0, r4
 d64:	0000040e 	andeq	r0, r0, lr, lsl #8
 d68:	7274700f 	rsbsvc	r7, r4, #15
 d6c:	a1f90100 	mvnsge	r0, r0, lsl #2
 d70:	02000002 	andeq	r0, r0, #2
 d74:	360a5491 			; <UNDEFINED> instruction: 0x360a5491
 d78:	01000004 	tsteq	r0, r4
 d7c:	000037f9 	strdeq	r3, [r0], -r9
 d80:	50910200 	addspl	r0, r1, r0, lsl #4
 d84:	01006905 	tsteq	r0, r5, lsl #18
 d88:	00009ffb 	strdeq	r9, [r0], -fp
 d8c:	74910200 	ldrvc	r0, [r1], #512	; 0x200
 d90:	0093400c 	addseq	r4, r3, ip
 d94:	00947000 	addseq	r7, r4, r0
 d98:	64610500 	strbtvs	r0, [r1], #-1280	; 0x500
 d9c:	fe010064 	cdp2	0, 0, cr0, cr1, cr4, {3}
 da0:	00000050 	andeq	r0, r0, r0, asr r0
 da4:	056c9102 	strbeq	r9, [ip, #-258]!	; 0x102
 da8:	01006966 	tsteq	r0, r6, ror #18
 dac:	00009fff 	strdeq	r9, [r0], -pc	; <UNPREDICTABLE>
 db0:	68910200 	ldmvs	r1, {r9}
 db4:	0093840c 	addseq	r8, r3, ip, lsl #8
 db8:	00947000 	addseq	r7, r4, r0
 dbc:	03db1000 	bicseq	r1, fp, #0
 dc0:	02010000 	andeq	r0, r1, #0
 dc4:	0000a601 	andeq	sl, r0, r1, lsl #12
 dc8:	64910200 	ldrvs	r0, [r1], #512	; 0x200
 dcc:	00697311 	rsbeq	r7, r9, r1, lsl r3
 dd0:	9f010401 	svcls	0x00010401
 dd4:	02000000 	andeq	r0, r0, #0
 dd8:	40106091 	mulsmi	r0, r1, r0
 ddc:	01000003 	tsteq	r0, r3
 de0:	00500107 	subseq	r0, r0, r7, lsl #2
 de4:	91020000 	mrsls	r0, (UNDEF: 2)
 de8:	006a115c 	rsbeq	r1, sl, ip, asr r1
 dec:	9f010b01 	svcls	0x00010b01
 df0:	02000000 	andeq	r0, r0, #0
 df4:	00007091 	muleq	r0, r1, r0
 df8:	03ad0600 			; <UNDEFINED> instruction: 0x03ad0600
 dfc:	18010000 	stmdane	r1, {}	; <UNPREDICTABLE>
 e00:	00000050 	andeq	r0, r0, r0, asr r0
 e04:	94b40305 	ldrtls	r0, [r4], #773	; 0x305
 e08:	82060000 	andhi	r0, r6, #0
 e0c:	01000003 	tsteq	r0, r3
 e10:	00005019 	andeq	r5, r0, r9, lsl r0
 e14:	b8030500 	stmdalt	r3, {r8, sl}
 e18:	06000094 			; <UNDEFINED> instruction: 0x06000094
 e1c:	0000035a 	andeq	r0, r0, sl, asr r3
 e20:	00501a01 	subseq	r1, r0, r1, lsl #20
 e24:	03050000 	movweq	r0, #20480	; 0x5000
 e28:	000094bc 			; <UNDEFINED> instruction: 0x000094bc
 e2c:	00034506 	andeq	r4, r3, r6, lsl #10
 e30:	a11d0100 	tstge	sp, r0, lsl #2
 e34:	05000002 	streq	r0, [r0, #-2]
 e38:	0094c003 	addseq	ip, r4, r3
 e3c:	039c0600 	orrseq	r0, ip, #0
 e40:	20010000 	andcs	r0, r1, r0
 e44:	000002a1 	andeq	r0, r0, r1, lsr #5
 e48:	94a80305 	strtls	r0, [r8], #773	; 0x305
 e4c:	01060000 	mrseq	r0, (UNDEF: 6)
 e50:	01000003 	tsteq	r0, r3
 e54:	0002a121 	andeq	sl, r2, r1, lsr #2
 e58:	ac030500 	cfstr32ge	mvfx0, [r3], {-0}
 e5c:	06000094 			; <UNDEFINED> instruction: 0x06000094
 e60:	00000370 	andeq	r0, r0, r0, ror r3
 e64:	00a62301 	adceq	r2, r6, r1, lsl #6
 e68:	03050000 	movweq	r0, #20480	; 0x5000
 e6c:	000094b0 			; <UNDEFINED> instruction: 0x000094b0
 e70:	0003c212 	andeq	ip, r3, r2, lsl r2
 e74:	50030100 	andpl	r0, r3, r0, lsl #2
 e78:	01000000 	mrseq	r0, (UNDEF: 0)
 e7c:	94d00305 	ldrbls	r0, [r0], #773	; 0x305
 e80:	c1120000 	tstgt	r2, r0
 e84:	01000002 	tsteq	r0, r2
 e88:	0000a625 	andeq	sl, r0, r5, lsr #12
 e8c:	03050100 	movweq	r0, #20736	; 0x5100
 e90:	000094d4 	ldrdeq	r9, [r0], -r4
	...

Disassembly of section .debug_abbrev:

00000000 <.debug_abbrev>:
   0:	10001101 	andne	r1, r0, r1, lsl #2
   4:	12011106 	andne	r1, r1, #-2147483647	; 0x80000001
   8:	1b080301 	blne	200c14 <__bss_end+0x1f773c>
   c:	13082508 	movwne	r2, #34056	; 0x8508
  10:	00000005 	andeq	r0, r0, r5
  14:	25011101 	strcs	r1, [r1, #-257]	; 0x101
  18:	030b130e 	movweq	r1, #45838	; 0xb30e
  1c:	110e1b0e 	tstne	lr, lr, lsl #22
  20:	10011201 	andne	r1, r1, r1, lsl #4
  24:	02000006 	andeq	r0, r0, #6
  28:	0e030016 	mcreq	0, 0, r0, cr3, cr6, {0}
  2c:	0b3b0b3a 	bleq	ec2d1c <__bss_end+0xeb9844>
  30:	00001349 	andeq	r1, r0, r9, asr #6
  34:	03010403 	movweq	r0, #5123	; 0x1403
  38:	3a0b0b0e 	bcc	2c2c78 <__bss_end+0x2b97a0>
  3c:	010b3b0b 	tsteq	fp, fp, lsl #22
  40:	04000013 	streq	r0, [r0], #-19
  44:	08030028 	stmdaeq	r3, {r3, r5}
  48:	00000d1c 	andeq	r0, r0, ip, lsl sp
  4c:	03002805 	movweq	r2, #2053	; 0x805
  50:	000d1c0e 	andeq	r1, sp, lr, lsl #24
  54:	000f0600 	andeq	r0, pc, r0, lsl #12
  58:	13490b0b 	movtne	r0, #39691	; 0x9b0b
  5c:	15070000 	strne	r0, [r7, #-0]
  60:	000c2700 	andeq	r2, ip, r0, lsl #14
  64:	01130800 	tsteq	r3, r0, lsl #16
  68:	0b0b0e03 	bleq	2c387c <__bss_end+0x2ba3a4>
  6c:	0b3b0b3a 	bleq	ec2d5c <__bss_end+0xeb9884>
  70:	00001301 	andeq	r1, r0, r1, lsl #6
  74:	03000d09 	movweq	r0, #3337	; 0xd09
  78:	3b0b3a08 	blcc	2ce8a0 <__bss_end+0x2c53c8>
  7c:	3813490b 	ldmdacc	r3, {r0, r1, r3, r8, fp, lr}
  80:	0a00000a 	beq	b0 <_start-0x7f50>
  84:	0e03000d 	cdpeq	0, 0, cr0, cr3, cr13, {0}
  88:	0b3b0b3a 	bleq	ec2d78 <__bss_end+0xeb98a0>
  8c:	0a381349 	beq	e04db8 <__bss_end+0xdfb8e0>
  90:	0f0b0000 	svceq	0x000b0000
  94:	000b0b00 	andeq	r0, fp, r0, lsl #22
  98:	00240c00 	eoreq	r0, r4, r0, lsl #24
  9c:	0b3e0b0b 	bleq	f82cd0 <__bss_end+0xf797f8>
  a0:	00000e03 	andeq	r0, r0, r3, lsl #28
  a4:	3f012e0d 	svccc	0x00012e0d
  a8:	3a0e030c 	bcc	380ce0 <__bss_end+0x377808>
  ac:	110b3b0b 	tstne	fp, fp, lsl #22
  b0:	40011201 	andmi	r1, r1, r1, lsl #4
  b4:	0c429706 	mcrreq	7, 0, r9, r2, cr6
  b8:	00001301 	andeq	r1, r0, r1, lsl #6
  bc:	0300340e 	movweq	r3, #1038	; 0x40e
  c0:	3b0b3a0e 	blcc	2ce900 <__bss_end+0x2c5428>
  c4:	0213490b 	andseq	r4, r3, #180224	; 0x2c000
  c8:	0f00000a 	svceq	0x0000000a
  cc:	0b0b0024 	bleq	2c0164 <__bss_end+0x2b6c8c>
  d0:	08030b3e 	stmdaeq	r3, {r1, r2, r3, r4, r5, r8, r9, fp}
  d4:	2e100000 	cdpcs	0, 1, cr0, cr0, cr0, {0}
  d8:	030c3f01 	movweq	r3, #52993	; 0xcf01
  dc:	3b0b3a0e 	blcc	2ce91c <__bss_end+0x2c5444>
  e0:	490c270b 	stmdbmi	ip, {r0, r1, r3, r8, r9, sl, sp}
  e4:	12011113 	andne	r1, r1, #-1073741820	; 0xc0000004
  e8:	96064001 	strls	r4, [r6], -r1
  ec:	13010c42 	movwne	r0, #7234	; 0x1c42
  f0:	34110000 	ldrcc	r0, [r1], #-0
  f4:	3a080300 	bcc	200cfc <__bss_end+0x1f7824>
  f8:	490b3b0b 	stmdbmi	fp, {r0, r1, r3, r8, r9, fp, ip, sp}
  fc:	000a0213 	andeq	r0, sl, r3, lsl r2
 100:	00341200 	eorseq	r1, r4, r0, lsl #4
 104:	0b3a0e03 	bleq	e83918 <__bss_end+0xe7a440>
 108:	13490b3b 	movtne	r0, #39739	; 0x9b3b
 10c:	0a020c3f 	beq	83210 <__bss_end+0x79d38>
 110:	34130000 	ldrcc	r0, [r3], #-0
 114:	3a080300 	bcc	200d1c <__bss_end+0x1f7844>
 118:	490b3b0b 	stmdbmi	fp, {r0, r1, r3, r8, r9, fp, ip, sp}
 11c:	020c3f13 	andeq	r3, ip, #76	; 0x4c
 120:	0000000a 	andeq	r0, r0, sl
 124:	25011101 	strcs	r1, [r1, #-257]	; 0x101
 128:	030b130e 	movweq	r1, #45838	; 0xb30e
 12c:	110e1b0e 	tstne	lr, lr, lsl #22
 130:	10011201 	andne	r1, r1, r1, lsl #4
 134:	02000006 	andeq	r0, r0, #6
 138:	08030113 	stmdaeq	r3, {r0, r1, r4, r8}
 13c:	0b3a0b0b 	bleq	e82d70 <__bss_end+0xe79898>
 140:	13010b3b 	movwne	r0, #6971	; 0x1b3b
 144:	0d030000 	stceq	0, cr0, [r3, #-0]
 148:	3a0e0300 	bcc	380d50 <__bss_end+0x377878>
 14c:	490b3b0b 	stmdbmi	fp, {r0, r1, r3, r8, r9, fp, ip, sp}
 150:	000a3813 	andeq	r3, sl, r3, lsl r8
 154:	000f0400 	andeq	r0, pc, r0, lsl #8
 158:	13490b0b 	movtne	r0, #39691	; 0x9b0b
 15c:	24050000 	strcs	r0, [r5], #-0
 160:	3e0b0b00 	vmlacc.f64	d0, d11, d0
 164:	000e030b 	andeq	r0, lr, fp, lsl #6
 168:	012e0600 	teqeq	lr, r0, lsl #12
 16c:	0e030c3f 	mcreq	12, 0, r0, cr3, cr15, {1}
 170:	0b3b0b3a 	bleq	ec2e60 <__bss_end+0xeb9988>
 174:	13490c27 	movtne	r0, #39975	; 0x9c27
 178:	01120111 	tsteq	r2, r1, lsl r1
 17c:	42970640 	addsmi	r0, r7, #67108864	; 0x4000000
 180:	0013010c 	andseq	r0, r3, ip, lsl #2
 184:	00050700 	andeq	r0, r5, r0, lsl #14
 188:	0b3a0e03 	bleq	e8399c <__bss_end+0xe7a4c4>
 18c:	13490b3b 	movtne	r0, #39739	; 0x9b3b
 190:	00000a02 	andeq	r0, r0, r2, lsl #20
 194:	03003408 	movweq	r3, #1032	; 0x408
 198:	3b0b3a08 	blcc	2ce9c0 <__bss_end+0x2c54e8>
 19c:	0213490b 	andseq	r4, r3, #180224	; 0x2c000
 1a0:	0900000a 	stmdbeq	r0, {r1, r3}
 1a4:	0e030034 	mcreq	0, 0, r0, cr3, cr4, {1}
 1a8:	0b3b0b3a 	bleq	ec2e98 <__bss_end+0xeb99c0>
 1ac:	0a021349 	beq	84ed8 <__bss_end+0x7ba00>
 1b0:	0f0a0000 	svceq	0x000a0000
 1b4:	000b0b00 	andeq	r0, fp, r0, lsl #22
 1b8:	012e0b00 	teqeq	lr, r0, lsl #22
 1bc:	0e030c3f 	mcreq	12, 0, r0, cr3, cr15, {1}
 1c0:	0b3b0b3a 	bleq	ec2eb0 <__bss_end+0xeb99d8>
 1c4:	01110c27 	tsteq	r1, r7, lsr #24
 1c8:	06400112 			; <UNDEFINED> instruction: 0x06400112
 1cc:	010c4297 			; <UNDEFINED> instruction: 0x010c4297
 1d0:	0c000013 	stceq	0, cr0, [r0], {19}
 1d4:	08030005 	stmdaeq	r3, {r0, r2}
 1d8:	0b3b0b3a 	bleq	ec2ec8 <__bss_end+0xeb99f0>
 1dc:	0a021349 	beq	84f08 <__bss_end+0x7ba30>
 1e0:	340d0000 	strcc	r0, [sp], #-0
 1e4:	3a0e0300 	bcc	380dec <__bss_end+0x377914>
 1e8:	490b3b0b 	stmdbmi	fp, {r0, r1, r3, r8, r9, fp, ip, sp}
 1ec:	020c3f13 	andeq	r3, ip, #76	; 0x4c
 1f0:	0000000a 	andeq	r0, r0, sl
 1f4:	25011101 	strcs	r1, [r1, #-257]	; 0x101
 1f8:	030b130e 	movweq	r1, #45838	; 0xb30e
 1fc:	110e1b0e 	tstne	lr, lr, lsl #22
 200:	10011201 	andne	r1, r1, r1, lsl #4
 204:	02000006 	andeq	r0, r0, #6
 208:	0b0b0024 	bleq	2c02a0 <__bss_end+0x2b6dc8>
 20c:	0e030b3e 	vmoveq.16	d3[0], r0
 210:	2e030000 	cdpcs	0, 0, cr0, cr3, cr0, {0}
 214:	030c3f01 	movweq	r3, #52993	; 0xcf01
 218:	3b0b3a0e 	blcc	2cea58 <__bss_end+0x2c5580>
 21c:	1201110b 	andne	r1, r1, #-1073741822	; 0xc0000002
 220:	96064001 	strls	r4, [r6], -r1
 224:	13010c42 	movwne	r0, #7234	; 0x1c42
 228:	34040000 	strcc	r0, [r4], #-0
 22c:	3a080300 	bcc	200e34 <__bss_end+0x1f795c>
 230:	490b3b0b 	stmdbmi	fp, {r0, r1, r3, r8, r9, fp, ip, sp}
 234:	000a0213 	andeq	r0, sl, r3, lsl r2
 238:	002e0500 	eoreq	r0, lr, r0, lsl #10
 23c:	0e030c3f 	mcreq	12, 0, r0, cr3, cr15, {1}
 240:	0b3b0b3a 	bleq	ec2f30 <__bss_end+0xeb9a58>
 244:	01120111 	tsteq	r2, r1, lsl r1
 248:	42960640 	addsmi	r0, r6, #67108864	; 0x4000000
 24c:	0600000c 	streq	r0, [r0], -ip
 250:	0c3f012e 	ldfeqs	f0, [pc], #-184	; 1a0 <_start-0x7e60>
 254:	0b3a0e03 	bleq	e83a68 <__bss_end+0xe7a590>
 258:	01110b3b 	tsteq	r1, fp, lsr fp
 25c:	06400112 			; <UNDEFINED> instruction: 0x06400112
 260:	000c4296 	muleq	ip, r6, r2
 264:	11010000 	mrsne	r0, (UNDEF: 1)
 268:	130e2501 	movwne	r2, #58625	; 0xe501
 26c:	1b0e030b 	blne	380ea0 <__bss_end+0x3779c8>
 270:	1201110e 	andne	r1, r1, #-2147483645	; 0x80000003
 274:	00061001 	andeq	r1, r6, r1
 278:	00160200 	andseq	r0, r6, r0, lsl #4
 27c:	0b3a0e03 	bleq	e83a90 <__bss_end+0xe7a5b8>
 280:	13490b3b 	movtne	r0, #39739	; 0x9b3b
 284:	04030000 	streq	r0, [r3], #-0
 288:	0b0e0301 	bleq	380e94 <__bss_end+0x3779bc>
 28c:	3b0b3a0b 	blcc	2ceac0 <__bss_end+0x2c55e8>
 290:	0013010b 	andseq	r0, r3, fp, lsl #2
 294:	00280400 	eoreq	r0, r8, r0, lsl #8
 298:	0d1c0803 	ldceq	8, cr0, [ip, #-12]
 29c:	28050000 	stmdacs	r5, {}	; <UNPREDICTABLE>
 2a0:	1c0e0300 	stcne	3, cr0, [lr], {-0}
 2a4:	0600000d 	streq	r0, [r0], -sp
 2a8:	0b0b000f 	bleq	2c02ec <__bss_end+0x2b6e14>
 2ac:	00001349 	andeq	r1, r0, r9, asr #6
 2b0:	27001507 	strcs	r1, [r0, -r7, lsl #10]
 2b4:	0800000c 	stmdaeq	r0, {r2, r3}
 2b8:	0e030113 	mcreq	1, 0, r0, cr3, cr3, {0}
 2bc:	0b3a0b0b 	bleq	e82ef0 <__bss_end+0xe79a18>
 2c0:	13010b3b 	movwne	r0, #6971	; 0x1b3b
 2c4:	0d090000 	stceq	0, cr0, [r9, #-0]
 2c8:	3a080300 	bcc	200ed0 <__bss_end+0x1f79f8>
 2cc:	490b3b0b 	stmdbmi	fp, {r0, r1, r3, r8, r9, fp, ip, sp}
 2d0:	000a3813 	andeq	r3, sl, r3, lsl r8
 2d4:	000d0a00 	andeq	r0, sp, r0, lsl #20
 2d8:	0b3a0e03 	bleq	e83aec <__bss_end+0xe7a614>
 2dc:	13490b3b 	movtne	r0, #39739	; 0x9b3b
 2e0:	00000a38 	andeq	r0, r0, r8, lsr sl
 2e4:	0b000f0b 	bleq	3f18 <_start-0x40e8>
 2e8:	0c00000b 	stceq	0, cr0, [r0], {11}
 2ec:	0b0b0024 	bleq	2c0384 <__bss_end+0x2b6eac>
 2f0:	0e030b3e 	vmoveq.16	d3[0], r0
 2f4:	2e0d0000 	cdpcs	0, 0, cr0, cr13, cr0, {0}
 2f8:	030c3f01 	movweq	r3, #52993	; 0xcf01
 2fc:	3b0b3a0e 	blcc	2ceb3c <__bss_end+0x2c5664>
 300:	110c270b 	tstne	ip, fp, lsl #14
 304:	40011201 	andmi	r1, r1, r1, lsl #4
 308:	0c429606 	mcrreq	6, 0, r9, r2, cr6
 30c:	00001301 	andeq	r1, r0, r1, lsl #6
 310:	0300050e 	movweq	r0, #1294	; 0x50e
 314:	3b0b3a0e 	blcc	2ceb54 <__bss_end+0x2c567c>
 318:	0213490b 	andseq	r4, r3, #180224	; 0x2c000
 31c:	0f00000a 	svceq	0x0000000a
 320:	08030005 	stmdaeq	r3, {r0, r2}
 324:	0b3b0b3a 	bleq	ec3014 <__bss_end+0xeb9b3c>
 328:	0a021349 	beq	85054 <__bss_end+0x7bb7c>
 32c:	34100000 	ldrcc	r0, [r0], #-0
 330:	3a080300 	bcc	200f38 <__bss_end+0x1f7a60>
 334:	490b3b0b 	stmdbmi	fp, {r0, r1, r3, r8, r9, fp, ip, sp}
 338:	000a0213 	andeq	r0, sl, r3, lsl r2
 33c:	00341100 	eorseq	r1, r4, r0, lsl #2
 340:	0b3a0e03 	bleq	e83b54 <__bss_end+0xe7a67c>
 344:	13490b3b 	movtne	r0, #39739	; 0x9b3b
 348:	00000a02 	andeq	r0, r0, r2, lsl #20
 34c:	3f002e12 	svccc	0x00002e12
 350:	3a0e030c 	bcc	380f88 <__bss_end+0x377ab0>
 354:	110b3b0b 	tstne	fp, fp, lsl #22
 358:	40011201 	andmi	r1, r1, r1, lsl #4
 35c:	0c429606 	mcrreq	6, 0, r9, r2, cr6
 360:	2e130000 	cdpcs	0, 1, cr0, cr3, cr0, {0}
 364:	030c3f01 	movweq	r3, #52993	; 0xcf01
 368:	3b0b3a0e 	blcc	2ceba8 <__bss_end+0x2c56d0>
 36c:	1201110b 	andne	r1, r1, #-1073741822	; 0xc0000002
 370:	96064001 	strls	r4, [r6], -r1
 374:	13010c42 	movwne	r0, #7234	; 0x1c42
 378:	2e140000 	cdpcs	0, 1, cr0, cr4, cr0, {0}
 37c:	030c3f00 	movweq	r3, #52992	; 0xcf00
 380:	3b0b3a0e 	blcc	2cebc0 <__bss_end+0x2c56e8>
 384:	1201110b 	andne	r1, r1, #-1073741822	; 0xc0000002
 388:	970a4001 	strls	r4, [sl, -r1]
 38c:	00000c42 	andeq	r0, r0, r2, asr #24
 390:	11010b15 	tstne	r1, r5, lsl fp
 394:	00011201 	andeq	r1, r1, r1, lsl #4
 398:	012e1600 	teqeq	lr, r0, lsl #12
 39c:	0e030c3f 	mcreq	12, 0, r0, cr3, cr15, {1}
 3a0:	0b3b0b3a 	bleq	ec3090 <__bss_end+0xeb9bb8>
 3a4:	01120111 	tsteq	r2, r1, lsl r1
 3a8:	42960a40 	addsmi	r0, r6, #262144	; 0x40000
 3ac:	0013010c 	andseq	r0, r3, ip, lsl #2
 3b0:	00341700 	eorseq	r1, r4, r0, lsl #14
 3b4:	0b3a0e03 	bleq	e83bc8 <__bss_end+0xe7a6f0>
 3b8:	13490b3b 	movtne	r0, #39739	; 0x9b3b
 3bc:	0a020c3f 	beq	834c0 <__bss_end+0x79fe8>
 3c0:	34180000 	ldrcc	r0, [r8], #-0
 3c4:	3a080300 	bcc	200fcc <__bss_end+0x1f7af4>
 3c8:	490b3b0b 	stmdbmi	fp, {r0, r1, r3, r8, r9, fp, ip, sp}
 3cc:	020c3f13 	andeq	r3, ip, #76	; 0x4c
 3d0:	0000000a 	andeq	r0, r0, sl
 3d4:	25011101 	strcs	r1, [r1, #-257]	; 0x101
 3d8:	030b130e 	movweq	r1, #45838	; 0xb30e
 3dc:	110e1b0e 	tstne	lr, lr, lsl #22
 3e0:	10011201 	andne	r1, r1, r1, lsl #4
 3e4:	02000006 	andeq	r0, r0, #6
 3e8:	0e030016 	mcreq	0, 0, r0, cr3, cr6, {0}
 3ec:	0b3b0b3a 	bleq	ec30dc <__bss_end+0xeb9c04>
 3f0:	00001349 	andeq	r1, r0, r9, asr #6
 3f4:	03010403 	movweq	r0, #5123	; 0x1403
 3f8:	3a0b0b0e 	bcc	2c3038 <__bss_end+0x2b9b60>
 3fc:	010b3b0b 	tsteq	fp, fp, lsl #22
 400:	04000013 	streq	r0, [r0], #-19
 404:	08030028 	stmdaeq	r3, {r3, r5}
 408:	00000d1c 	andeq	r0, r0, ip, lsl sp
 40c:	03002805 	movweq	r2, #2053	; 0x805
 410:	000d1c0e 	andeq	r1, sp, lr, lsl #24
 414:	000f0600 	andeq	r0, pc, r0, lsl #12
 418:	13490b0b 	movtne	r0, #39691	; 0x9b0b
 41c:	15070000 	strne	r0, [r7, #-0]
 420:	000c2700 	andeq	r2, ip, r0, lsl #14
 424:	01130800 	tsteq	r3, r0, lsl #16
 428:	0b0b0e03 	bleq	2c3c3c <__bss_end+0x2ba764>
 42c:	0b3b0b3a 	bleq	ec311c <__bss_end+0xeb9c44>
 430:	00001301 	andeq	r1, r0, r1, lsl #6
 434:	03000d09 	movweq	r0, #3337	; 0xd09
 438:	3b0b3a08 	blcc	2cec60 <__bss_end+0x2c5788>
 43c:	3813490b 	ldmdacc	r3, {r0, r1, r3, r8, fp, lr}
 440:	0a00000a 	beq	470 <_start-0x7b90>
 444:	0e03000d 	cdpeq	0, 0, cr0, cr3, cr13, {0}
 448:	0b3b0b3a 	bleq	ec3138 <__bss_end+0xeb9c60>
 44c:	0a381349 	beq	e05178 <__bss_end+0xdfbca0>
 450:	0f0b0000 	svceq	0x000b0000
 454:	000b0b00 	andeq	r0, fp, r0, lsl #22
 458:	00240c00 	eoreq	r0, r4, r0, lsl #24
 45c:	0b3e0b0b 	bleq	f83090 <__bss_end+0xf79bb8>
 460:	00000e03 	andeq	r0, r0, r3, lsl #28
 464:	3f002e0d 	svccc	0x00002e0d
 468:	3a0e030c 	bcc	3810a0 <__bss_end+0x377bc8>
 46c:	110b3b0b 	tstne	fp, fp, lsl #22
 470:	40011201 	andmi	r1, r1, r1, lsl #4
 474:	0c429706 	mcrreq	7, 0, r9, r2, cr6
 478:	2e0e0000 	cdpcs	0, 0, cr0, cr14, cr0, {0}
 47c:	030c3f01 	movweq	r3, #52993	; 0xcf01
 480:	3b0b3a0e 	blcc	2cecc0 <__bss_end+0x2c57e8>
 484:	110c270b 	tstne	ip, fp, lsl #14
 488:	40011201 	andmi	r1, r1, r1, lsl #4
 48c:	0c429706 	mcrreq	7, 0, r9, r2, cr6
 490:	00001301 	andeq	r1, r0, r1, lsl #6
 494:	0300050f 	movweq	r0, #1295	; 0x50f
 498:	3b0b3a0e 	blcc	2cecd8 <__bss_end+0x2c5800>
 49c:	0213490b 	andseq	r4, r3, #180224	; 0x2c000
 4a0:	1000000a 	andne	r0, r0, sl
 4a4:	0c3f002e 	ldceq	0, cr0, [pc], #-184	; 3f4 <_start-0x7c0c>
 4a8:	0b3a0e03 	bleq	e83cbc <__bss_end+0xe7a7e4>
 4ac:	01110b3b 	tsteq	r1, fp, lsr fp
 4b0:	0a400112 	beq	1000900 <__bss_end+0xff7428>
 4b4:	000c4297 	muleq	ip, r7, r2
 4b8:	012e1100 	teqeq	lr, r0, lsl #2
 4bc:	0e030c3f 	mcreq	12, 0, r0, cr3, cr15, {1}
 4c0:	0b3b0b3a 	bleq	ec31b0 <__bss_end+0xeb9cd8>
 4c4:	01120111 	tsteq	r2, r1, lsl r1
 4c8:	42970640 	addsmi	r0, r7, #67108864	; 0x4000000
 4cc:	0013010c 	andseq	r0, r3, ip, lsl #2
 4d0:	00341200 	eorseq	r1, r4, r0, lsl #4
 4d4:	0b3a0e03 	bleq	e83ce8 <__bss_end+0xe7a810>
 4d8:	13490b3b 	movtne	r0, #39739	; 0x9b3b
 4dc:	00000a02 	andeq	r0, r0, r2, lsl #20
 4e0:	3f012e13 	svccc	0x00012e13
 4e4:	3a0e030c 	bcc	38111c <__bss_end+0x377c44>
 4e8:	110b3b0b 	tstne	fp, fp, lsl #22
 4ec:	40011201 	andmi	r1, r1, r1, lsl #4
 4f0:	0c429606 	mcrreq	6, 0, r9, r2, cr6
 4f4:	00001301 	andeq	r1, r0, r1, lsl #6
 4f8:	0b002414 	bleq	9550 <__bss_end+0x78>
 4fc:	030b3e0b 	movweq	r3, #48651	; 0xbe0b
 500:	15000008 	strne	r0, [r0, #-8]
 504:	0e030034 	mcreq	0, 0, r0, cr3, cr4, {1}
 508:	0b3b0b3a 	bleq	ec31f8 <__bss_end+0xeb9d20>
 50c:	0c3f1349 	ldceq	3, cr1, [pc], #-292	; 3f0 <_start-0x7c10>
 510:	00000a02 	andeq	r0, r0, r2, lsl #20
 514:	03003416 	movweq	r3, #1046	; 0x416
 518:	3b0b3a08 	blcc	2ced40 <__bss_end+0x2c5868>
 51c:	3f13490b 	svccc	0x0013490b
 520:	000a020c 	andeq	r0, sl, ip, lsl #4
 524:	11010000 	mrsne	r0, (UNDEF: 1)
 528:	130e2501 	movwne	r2, #58625	; 0xe501
 52c:	1b0e030b 	blne	381160 <__bss_end+0x377c88>
 530:	1201110e 	andne	r1, r1, #-2147483645	; 0x80000003
 534:	00061001 	andeq	r1, r6, r1
 538:	00240200 	eoreq	r0, r4, r0, lsl #4
 53c:	0b3e0b0b 	bleq	f83170 <__bss_end+0xf79c98>
 540:	00000e03 	andeq	r0, r0, r3, lsl #28
 544:	03001603 	movweq	r1, #1539	; 0x603
 548:	3b0b3a0e 	blcc	2ced88 <__bss_end+0x2c58b0>
 54c:	0013490b 	andseq	r4, r3, fp, lsl #18
 550:	012e0400 	teqeq	lr, r0, lsl #8
 554:	0e030c3f 	mcreq	12, 0, r0, cr3, cr15, {1}
 558:	0b3b0b3a 	bleq	ec3248 <__bss_end+0xeb9d70>
 55c:	13490c27 	movtne	r0, #39975	; 0x9c27
 560:	01120111 	tsteq	r2, r1, lsl r1
 564:	42960640 	addsmi	r0, r6, #67108864	; 0x4000000
 568:	0013010c 	andseq	r0, r3, ip, lsl #2
 56c:	00340500 	eorseq	r0, r4, r0, lsl #10
 570:	0b3a0803 	bleq	e82584 <__bss_end+0xe790ac>
 574:	13490b3b 	movtne	r0, #39739	; 0x9b3b
 578:	00000a02 	andeq	r0, r0, r2, lsl #20
 57c:	03003406 	movweq	r3, #1030	; 0x406
 580:	3b0b3a0e 	blcc	2cedc0 <__bss_end+0x2c58e8>
 584:	0213490b 	andseq	r4, r3, #180224	; 0x2c000
 588:	0700000a 	streq	r0, [r0, -sl]
 58c:	0b0b0024 	bleq	2c0624 <__bss_end+0x2b714c>
 590:	08030b3e 	stmdaeq	r3, {r1, r2, r3, r4, r5, r8, r9, fp}
 594:	0f080000 	svceq	0x00080000
 598:	490b0b00 	stmdbmi	fp, {r8, r9, fp}
 59c:	09000013 	stmdbeq	r0, {r0, r1, r4}
 5a0:	0c3f012e 	ldfeqs	f0, [pc], #-184	; 4f0 <_start-0x7b10>
 5a4:	0b3a0e03 	bleq	e83db8 <__bss_end+0xe7a8e0>
 5a8:	0c270b3b 	stceq	11, cr0, [r7], #-236	; 0xffffff14
 5ac:	01120111 	tsteq	r2, r1, lsl r1
 5b0:	42960640 	addsmi	r0, r6, #67108864	; 0x4000000
 5b4:	0013010c 	andseq	r0, r3, ip, lsl #2
 5b8:	00050a00 	andeq	r0, r5, r0, lsl #20
 5bc:	0b3a0e03 	bleq	e83dd0 <__bss_end+0xe7a8f8>
 5c0:	13490b3b 	movtne	r0, #39739	; 0x9b3b
 5c4:	00000a02 	andeq	r0, r0, r2, lsl #20
 5c8:	11010b0b 	tstne	r1, fp, lsl #22
 5cc:	01011201 	tsteq	r1, r1, lsl #4
 5d0:	0c000013 	stceq	0, cr0, [r0], {19}
 5d4:	0111010b 	tsteq	r1, fp, lsl #2
 5d8:	00000112 	andeq	r0, r0, r2, lsl r1
 5dc:	3f012e0d 	svccc	0x00012e0d
 5e0:	3a0e030c 	bcc	381218 <__bss_end+0x377d40>
 5e4:	490b3b0b 	stmdbmi	fp, {r0, r1, r3, r8, r9, fp, ip, sp}
 5e8:	12011113 	andne	r1, r1, #-1073741820	; 0xc0000004
 5ec:	97064001 	strls	r4, [r6, -r1]
 5f0:	13010c42 	movwne	r0, #7234	; 0x1c42
 5f4:	2e0e0000 	cdpcs	0, 0, cr0, cr14, cr0, {0}
 5f8:	030c3f01 	movweq	r3, #52993	; 0xcf01
 5fc:	3b0b3a0e 	blcc	2cee3c <__bss_end+0x2c5964>
 600:	110c270b 	tstne	ip, fp, lsl #14
 604:	40011201 	andmi	r1, r1, r1, lsl #4
 608:	0c429706 	mcrreq	7, 0, r9, r2, cr6
 60c:	00001301 	andeq	r1, r0, r1, lsl #6
 610:	0300050f 	movweq	r0, #1295	; 0x50f
 614:	3b0b3a08 	blcc	2cee3c <__bss_end+0x2c5964>
 618:	0213490b 	andseq	r4, r3, #180224	; 0x2c000
 61c:	1000000a 	andne	r0, r0, sl
 620:	0e030034 	mcreq	0, 0, r0, cr3, cr4, {1}
 624:	053b0b3a 	ldreq	r0, [fp, #-2874]!	; 0xb3a
 628:	0a021349 	beq	85354 <__bss_end+0x7be7c>
 62c:	34110000 	ldrcc	r0, [r1], #-0
 630:	3a080300 	bcc	201238 <__bss_end+0x1f7d60>
 634:	49053b0b 	stmdbmi	r5, {r0, r1, r3, r8, r9, fp, ip, sp}
 638:	000a0213 	andeq	r0, sl, r3, lsl r2
 63c:	00341200 	eorseq	r1, r4, r0, lsl #4
 640:	0b3a0e03 	bleq	e83e54 <__bss_end+0xe7a97c>
 644:	13490b3b 	movtne	r0, #39739	; 0x9b3b
 648:	0a020c3f 	beq	8374c <__bss_end+0x7a274>
 64c:	Address 0x000000000000064c is out of bounds.


Disassembly of section .debug_aranges:

00000000 <.debug_aranges>:
   0:	0000001c 	andeq	r0, r0, ip, lsl r0
   4:	00000002 	andeq	r0, r0, r2
   8:	00040000 	andeq	r0, r4, r0
   c:	00000000 	andeq	r0, r0, r0
  10:	00008000 	andeq	r8, r0, r0
  14:	000000d0 	ldrdeq	r0, [r0], -r0	; <UNPREDICTABLE>
	...
  20:	0000001c 	andeq	r0, r0, ip, lsl r0
  24:	00560002 	subseq	r0, r6, r2
  28:	00040000 	andeq	r0, r4, r0
  2c:	00000000 	andeq	r0, r0, r0
  30:	000080d0 	ldrdeq	r8, [r0], -r0
  34:	000000e0 	andeq	r0, r0, r0, ror #1
	...
  40:	0000001c 	andeq	r0, r0, ip, lsl r0
  44:	027f0002 	rsbseq	r0, pc, #2
  48:	00040000 	andeq	r0, r4, r0
  4c:	00000000 	andeq	r0, r0, r0
  50:	000081b0 			; <UNDEFINED> instruction: 0x000081b0
  54:	00000138 	andeq	r0, r0, r8, lsr r1
	...
  60:	0000001c 	andeq	r0, r0, ip, lsl r0
  64:	03e10002 	mvneq	r0, #2
  68:	00040000 	andeq	r0, r4, r0
  6c:	00000000 	andeq	r0, r0, r0
  70:	000082e8 	andeq	r8, r0, r8, ror #5
  74:	0000013c 	andeq	r0, r0, ip, lsr r1
	...
  80:	0000001c 	andeq	r0, r0, ip, lsl r0
  84:	049d0002 	ldreq	r0, [sp], #2
  88:	00040000 	andeq	r0, r4, r0
  8c:	00000000 	andeq	r0, r0, r0
  90:	00008424 	andeq	r8, r0, r4, lsr #8
  94:	00000614 	andeq	r0, r0, r4, lsl r6
	...
  a0:	0000001c 	andeq	r0, r0, ip, lsl r0
  a4:	07d40002 	ldrbeq	r0, [r4, r2]
  a8:	00040000 	andeq	r0, r4, r0
  ac:	00000000 	andeq	r0, r0, r0
  b0:	00008a38 	andeq	r8, r0, r8, lsr sl
  b4:	000000b8 	strheq	r0, [r0], -r8
	...
  c0:	0000001c 	andeq	r0, r0, ip, lsl r0
  c4:	09eb0002 	stmibeq	fp!, {r1}^
  c8:	00040000 	andeq	r0, r4, r0
  cc:	00000000 	andeq	r0, r0, r0
  d0:	00008af0 	strdeq	r8, [r0], -r0
  d4:	000009ac 	andeq	r0, r0, ip, lsr #19
	...

Disassembly of section .debug_loc:

00000000 <.debug_loc>:
   0:	00000000 	andeq	r0, r0, r0
   4:	00000004 	andeq	r0, r0, r4
   8:	007d0002 	rsbseq	r0, sp, r2
   c:	00000004 	andeq	r0, r0, r4
  10:	00000040 	andeq	r0, r0, r0, asr #32
  14:	087d0002 	ldmdaeq	sp!, {r1}^
	...
  20:	00000040 	andeq	r0, r0, r0, asr #32
  24:	00000044 	andeq	r0, r0, r4, asr #32
  28:	007d0002 	rsbseq	r0, sp, r2
  2c:	00000044 	andeq	r0, r0, r4, asr #32
  30:	0000005c 	andeq	r0, r0, ip, asr r0
  34:	087d0002 	ldmdaeq	sp!, {r1}^
	...
  40:	0000005c 	andeq	r0, r0, ip, asr r0
  44:	00000060 	andeq	r0, r0, r0, rrx
  48:	007d0002 	rsbseq	r0, sp, r2
  4c:	00000060 	andeq	r0, r0, r0, rrx
  50:	00000064 	andeq	r0, r0, r4, rrx
  54:	047d0002 	ldrbteq	r0, [sp], #-2
  58:	00000064 	andeq	r0, r0, r4, rrx
  5c:	000000e0 	andeq	r0, r0, r0, ror #1
  60:	107d0002 	rsbsne	r0, sp, r2
	...
  70:	00000004 	andeq	r0, r0, r4
  74:	007d0002 	rsbseq	r0, sp, r2
  78:	00000004 	andeq	r0, r0, r4
  7c:	00000008 	andeq	r0, r0, r8
  80:	087d0002 	ldmdaeq	sp!, {r1}^
  84:	00000008 	andeq	r0, r0, r8
  88:	000000b4 	strheq	r0, [r0], -r4
  8c:	107d0002 	rsbsne	r0, sp, r2
	...
  98:	000000b4 	strheq	r0, [r0], -r4
  9c:	000000b8 	strheq	r0, [r0], -r8
  a0:	007d0002 	rsbseq	r0, sp, r2
  a4:	000000b8 	strheq	r0, [r0], -r8
  a8:	000000bc 	strheq	r0, [r0], -ip
  ac:	047d0002 	ldrbteq	r0, [sp], #-2
  b0:	000000bc 	strheq	r0, [r0], -ip
  b4:	000000fc 	strdeq	r0, [r0], -ip
  b8:	107d0002 	rsbsne	r0, sp, r2
	...
  c4:	000000fc 	strdeq	r0, [r0], -ip
  c8:	00000100 	andeq	r0, r0, r0, lsl #2
  cc:	007d0002 	rsbseq	r0, sp, r2
  d0:	00000100 	andeq	r0, r0, r0, lsl #2
  d4:	00000138 	andeq	r0, r0, r8, lsr r1
  d8:	087d0002 	ldmdaeq	sp!, {r1}^
	...
  e8:	00000004 	andeq	r0, r0, r4
  ec:	007d0002 	rsbseq	r0, sp, r2
  f0:	00000004 	andeq	r0, r0, r4
  f4:	00000008 	andeq	r0, r0, r8
  f8:	047d0002 	ldrbteq	r0, [sp], #-2
  fc:	00000008 	andeq	r0, r0, r8
 100:	0000004c 	andeq	r0, r0, ip, asr #32
 104:	107d0002 	rsbsne	r0, sp, r2
	...
 110:	0000004c 	andeq	r0, r0, ip, asr #32
 114:	00000050 	andeq	r0, r0, r0, asr r0
 118:	007d0002 	rsbseq	r0, sp, r2
 11c:	00000050 	andeq	r0, r0, r0, asr r0
 120:	00000064 	andeq	r0, r0, r4, rrx
 124:	087d0002 	ldmdaeq	sp!, {r1}^
	...
 130:	00000064 	andeq	r0, r0, r4, rrx
 134:	00000068 	andeq	r0, r0, r8, rrx
 138:	007d0002 	rsbseq	r0, sp, r2
 13c:	00000068 	andeq	r0, r0, r8, rrx
 140:	0000007c 	andeq	r0, r0, ip, ror r0
 144:	087d0002 	ldmdaeq	sp!, {r1}^
	...
 150:	0000007c 	andeq	r0, r0, ip, ror r0
 154:	00000080 	andeq	r0, r0, r0, lsl #1
 158:	007d0002 	rsbseq	r0, sp, r2
 15c:	00000080 	andeq	r0, r0, r0, lsl #1
 160:	00000084 	andeq	r0, r0, r4, lsl #1
 164:	047d0002 	ldrbteq	r0, [sp], #-2
 168:	00000084 	andeq	r0, r0, r4, lsl #1
 16c:	0000013c 	andeq	r0, r0, ip, lsr r1
 170:	107d0002 	rsbsne	r0, sp, r2
	...
 180:	00000004 	andeq	r0, r0, r4
 184:	007d0002 	rsbseq	r0, sp, r2
 188:	00000004 	andeq	r0, r0, r4
 18c:	00000008 	andeq	r0, r0, r8
 190:	047d0002 	ldrbteq	r0, [sp], #-2
 194:	00000008 	andeq	r0, r0, r8
 198:	00000054 	andeq	r0, r0, r4, asr r0
 19c:	187d0002 	ldmdane	sp!, {r1}^
	...
 1a8:	00000054 	andeq	r0, r0, r4, asr r0
 1ac:	00000058 	andeq	r0, r0, r8, asr r0
 1b0:	007d0002 	rsbseq	r0, sp, r2
 1b4:	00000058 	andeq	r0, r0, r8, asr r0
 1b8:	0000005c 	andeq	r0, r0, ip, asr r0
 1bc:	047d0002 	ldrbteq	r0, [sp], #-2
 1c0:	0000005c 	andeq	r0, r0, ip, asr r0
 1c4:	000000cc 	andeq	r0, r0, ip, asr #1
 1c8:	207d0002 	rsbscs	r0, sp, r2
	...
 1d4:	000000cc 	andeq	r0, r0, ip, asr #1
 1d8:	000000d0 	ldrdeq	r0, [r0], -r0	; <UNPREDICTABLE>
 1dc:	007d0002 	rsbseq	r0, sp, r2
 1e0:	000000d0 	ldrdeq	r0, [r0], -r0	; <UNPREDICTABLE>
 1e4:	000000d4 	ldrdeq	r0, [r0], -r4
 1e8:	047d0002 	ldrbteq	r0, [sp], #-2
 1ec:	000000d4 	ldrdeq	r0, [r0], -r4
 1f0:	000001b4 			; <UNDEFINED> instruction: 0x000001b4
 1f4:	207d0002 	rsbscs	r0, sp, r2
	...
 200:	000001b4 			; <UNDEFINED> instruction: 0x000001b4
 204:	000001b8 			; <UNDEFINED> instruction: 0x000001b8
 208:	007d0002 	rsbseq	r0, sp, r2
 20c:	000001b8 			; <UNDEFINED> instruction: 0x000001b8
 210:	0000021c 	andeq	r0, r0, ip, lsl r2
 214:	087d0002 	ldmdaeq	sp!, {r1}^
	...
 220:	0000021c 	andeq	r0, r0, ip, lsl r2
 224:	00000220 	andeq	r0, r0, r0, lsr #4
 228:	007d0002 	rsbseq	r0, sp, r2
 22c:	00000220 	andeq	r0, r0, r0, lsr #4
 230:	00000224 	andeq	r0, r0, r4, lsr #4
 234:	047d0002 	ldrbteq	r0, [sp], #-2
 238:	00000224 	andeq	r0, r0, r4, lsr #4
 23c:	00000310 	andeq	r0, r0, r0, lsl r3
 240:	107d0002 	rsbsne	r0, sp, r2
	...
 24c:	00000344 	andeq	r0, r0, r4, asr #6
 250:	00000348 	andeq	r0, r0, r8, asr #6
 254:	007d0002 	rsbseq	r0, sp, r2
 258:	00000348 	andeq	r0, r0, r8, asr #6
 25c:	0000037c 	andeq	r0, r0, ip, ror r3
 260:	087d0002 	ldmdaeq	sp!, {r1}^
	...
 26c:	0000037c 	andeq	r0, r0, ip, ror r3
 270:	00000380 	andeq	r0, r0, r0, lsl #7
 274:	007d0002 	rsbseq	r0, sp, r2
 278:	00000380 	andeq	r0, r0, r0, lsl #7
 27c:	00000384 	andeq	r0, r0, r4, lsl #7
 280:	047d0002 	ldrbteq	r0, [sp], #-2
 284:	00000384 	andeq	r0, r0, r4, lsl #7
 288:	00000500 	andeq	r0, r0, r0, lsl #10
 28c:	107d0002 	rsbsne	r0, sp, r2
	...
 29c:	00000004 	andeq	r0, r0, r4
 2a0:	007d0002 	rsbseq	r0, sp, r2
 2a4:	00000004 	andeq	r0, r0, r4
 2a8:	00000014 	andeq	r0, r0, r4, lsl r0
 2ac:	047d0002 	ldrbteq	r0, [sp], #-2
	...
 2b8:	00000014 	andeq	r0, r0, r4, lsl r0
 2bc:	00000018 	andeq	r0, r0, r8, lsl r0
 2c0:	007d0002 	rsbseq	r0, sp, r2
 2c4:	00000018 	andeq	r0, r0, r8, lsl r0
 2c8:	0000001c 	andeq	r0, r0, ip, lsl r0
 2cc:	047d0002 	ldrbteq	r0, [sp], #-2
 2d0:	0000001c 	andeq	r0, r0, ip, lsl r0
 2d4:	0000003c 	andeq	r0, r0, ip, lsr r0
 2d8:	107d0002 	rsbsne	r0, sp, r2
	...
 2e4:	00000040 	andeq	r0, r0, r0, asr #32
 2e8:	00000044 	andeq	r0, r0, r4, asr #32
 2ec:	007d0002 	rsbseq	r0, sp, r2
 2f0:	00000044 	andeq	r0, r0, r4, asr #32
 2f4:	00000048 	andeq	r0, r0, r8, asr #32
 2f8:	047d0002 	ldrbteq	r0, [sp], #-2
 2fc:	00000048 	andeq	r0, r0, r8, asr #32
 300:	00000070 	andeq	r0, r0, r0, ror r0
 304:	107d0002 	rsbsne	r0, sp, r2
	...
 310:	00000070 	andeq	r0, r0, r0, ror r0
 314:	00000074 	andeq	r0, r0, r4, ror r0
 318:	007d0002 	rsbseq	r0, sp, r2
 31c:	00000074 	andeq	r0, r0, r4, ror r0
 320:	00000078 	andeq	r0, r0, r8, ror r0
 324:	087d0002 	ldmdaeq	sp!, {r1}^
 328:	00000078 	andeq	r0, r0, r8, ror r0
 32c:	000000b8 	strheq	r0, [r0], -r8
 330:	107d0002 	rsbsne	r0, sp, r2
	...
 340:	00000004 	andeq	r0, r0, r4
 344:	007d0002 	rsbseq	r0, sp, r2
 348:	00000004 	andeq	r0, r0, r4
 34c:	00000008 	andeq	r0, r0, r8
 350:	047d0002 	ldrbteq	r0, [sp], #-2
 354:	00000008 	andeq	r0, r0, r8
 358:	00000144 	andeq	r0, r0, r4, asr #2
 35c:	107d0002 	rsbsne	r0, sp, r2
	...
 368:	00000144 	andeq	r0, r0, r4, asr #2
 36c:	00000148 	andeq	r0, r0, r8, asr #2
 370:	007d0002 	rsbseq	r0, sp, r2
 374:	00000148 	andeq	r0, r0, r8, asr #2
 378:	0000014c 	andeq	r0, r0, ip, asr #2
 37c:	047d0002 	ldrbteq	r0, [sp], #-2
 380:	0000014c 	andeq	r0, r0, ip, asr #2
 384:	000002d8 	ldrdeq	r0, [r0], -r8
 388:	287d0002 	ldmdacs	sp!, {r1}^
	...
 394:	000002d8 	ldrdeq	r0, [r0], -r8
 398:	000002dc 	ldrdeq	r0, [r0], -ip
 39c:	007d0002 	rsbseq	r0, sp, r2
 3a0:	000002dc 	ldrdeq	r0, [r0], -ip
 3a4:	000003dc 	ldrdeq	r0, [r0], -ip
 3a8:	107d0002 	rsbsne	r0, sp, r2
	...
 3b4:	000003dc 	ldrdeq	r0, [r0], -ip
 3b8:	000003e0 	andeq	r0, r0, r0, ror #7
 3bc:	007d0002 	rsbseq	r0, sp, r2
 3c0:	000003e0 	andeq	r0, r0, r0, ror #7
 3c4:	0000048c 	andeq	r0, r0, ip, lsl #9
 3c8:	107d0002 	rsbsne	r0, sp, r2
	...
 3d4:	0000048c 	andeq	r0, r0, ip, lsl #9
 3d8:	00000490 	muleq	r0, r0, r4
 3dc:	007d0002 	rsbseq	r0, sp, r2
 3e0:	00000490 	muleq	r0, r0, r4
 3e4:	00000514 	andeq	r0, r0, r4, lsl r5
 3e8:	087d0002 	ldmdaeq	sp!, {r1}^
	...
 3f4:	00000514 	andeq	r0, r0, r4, lsl r5
 3f8:	00000518 	andeq	r0, r0, r8, lsl r5
 3fc:	007d0002 	rsbseq	r0, sp, r2
 400:	00000518 	andeq	r0, r0, r8, lsl r5
 404:	00000590 	muleq	r0, r0, r5
 408:	107d0002 	rsbsne	r0, sp, r2
	...
 414:	00000590 	muleq	r0, r0, r5
 418:	00000594 	muleq	r0, r4, r5
 41c:	007d0002 	rsbseq	r0, sp, r2
 420:	00000594 	muleq	r0, r4, r5
 424:	000005c0 	andeq	r0, r0, r0, asr #11
 428:	047d0002 	ldrbteq	r0, [sp], #-2
	...
 434:	000005c0 	andeq	r0, r0, r0, asr #11
 438:	000005c4 	andeq	r0, r0, r4, asr #11
 43c:	007d0002 	rsbseq	r0, sp, r2
 440:	000005c4 	andeq	r0, r0, r4, asr #11
 444:	0000060c 	andeq	r0, r0, ip, lsl #12
 448:	047d0002 	ldrbteq	r0, [sp], #-2
	...
 454:	0000060c 	andeq	r0, r0, ip, lsl #12
 458:	00000610 	andeq	r0, r0, r0, lsl r6
 45c:	007d0002 	rsbseq	r0, sp, r2
 460:	00000610 	andeq	r0, r0, r0, lsl r6
 464:	00000694 	muleq	r0, r4, r6
 468:	087d0002 	ldmdaeq	sp!, {r1}^
	...
 474:	00000694 	muleq	r0, r4, r6
 478:	00000698 	muleq	r0, r8, r6
 47c:	007d0002 	rsbseq	r0, sp, r2
 480:	00000698 	muleq	r0, r8, r6
 484:	000006d4 	ldrdeq	r0, [r0], -r4
 488:	107d0002 	rsbsne	r0, sp, r2
	...
 494:	000006d4 	ldrdeq	r0, [r0], -r4
 498:	000006d8 	ldrdeq	r0, [r0], -r8
 49c:	007d0002 	rsbseq	r0, sp, r2
 4a0:	000006d8 	ldrdeq	r0, [r0], -r8
 4a4:	000006dc 	ldrdeq	r0, [r0], -ip
 4a8:	087d0002 	ldmdaeq	sp!, {r1}^
 4ac:	000006dc 	ldrdeq	r0, [r0], -ip
 4b0:	00000834 	andeq	r0, r0, r4, lsr r8
 4b4:	287d0002 	ldmdacs	sp!, {r1}^
	...
 4c0:	00000834 	andeq	r0, r0, r4, lsr r8
 4c4:	00000838 	andeq	r0, r0, r8, lsr r8
 4c8:	007d0002 	rsbseq	r0, sp, r2
 4cc:	00000838 	andeq	r0, r0, r8, lsr r8
 4d0:	0000083c 	andeq	r0, r0, ip, lsr r8
 4d4:	047d0002 	ldrbteq	r0, [sp], #-2
 4d8:	0000083c 	andeq	r0, r0, ip, lsr r8
 4dc:	000009ac 	andeq	r0, r0, ip, lsr #19
 4e0:	307d0002 	rsbscc	r0, sp, r2
	...

Disassembly of section .debug_str:

00000000 <.debug_str>:
   0:	5f626370 	svcpl	0x00626370
   4:	73677261 	cmnvc	r7, #268435462	; 0x10000006
   8:	6e697500 	cdpvs	5, 6, cr7, cr9, cr0, {0}
   c:	00323374 	eorseq	r3, r2, r4, ror r3
  10:	42747063 	rsbsmi	r7, r4, #99	; 0x63
  14:	6e697500 	cdpvs	5, 6, cr7, cr9, cr0, {0}
  18:	5f323374 	svcpl	0x00323374
  1c:	656e0074 	strbvs	r0, [lr, #-116]!	; 0x74
  20:	705f7478 	subsvc	r7, pc, r8, ror r4	; <UNPREDICTABLE>
  24:	66006263 	strvs	r6, [r0], -r3, ror #4
  28:	74636e75 	strbtvc	r6, [r3], #-3701	; 0xe75
  2c:	6b00745f 	blvs	1d1b0 <__bss_end+0x13cd8>
  30:	6e69616d 	powvsez	f6, f1, #5.0
  34:	554e4700 	strbpl	r4, [lr, #-1792]	; 0x700
  38:	34204320 	strtcc	r4, [r0], #-800	; 0x320
  3c:	312e372e 	teqcc	lr, lr, lsr #14
  40:	49415700 	stmdbmi	r1, {r8, r9, sl, ip, lr}^
  44:	474e4954 	smlsldmi	r4, lr, r4, r9
  48:	74706300 	ldrbtvc	r6, [r0], #-768	; 0x300
  4c:	69660041 	stmdbvs	r6!, {r0, r6}^
  50:	5f747372 	svcpl	0x00747372
  54:	00626370 	rsbeq	r6, r2, r0, ror r3
  58:	5f626370 	svcpl	0x00626370
  5c:	75660066 	strbvc	r0, [r6, #-102]!	; 0x66
  60:	0041636e 	subeq	r6, r1, lr, ror #6
  64:	69616863 	stmdbvs	r1!, {r0, r1, r5, r6, fp, sp, lr}^
  68:	5f64656e 	svcpl	0x0064656e
  6c:	7473696c 	ldrbtvc	r6, [r3], #-2412	; 0x96c
  70:	52455400 	subpl	r5, r5, #0
  74:	414e494d 	cmpmi	lr, sp, asr #18
  78:	00444554 	subeq	r4, r4, r4, asr r5
  7c:	7473616c 	ldrbtvc	r6, [r3], #-364	; 0x16c
  80:	6263705f 	rsbvs	r7, r3, #95	; 0x5f
  84:	6e756600 	cdpvs	6, 7, cr6, cr5, cr0, {0}
  88:	63004263 	movwvs	r4, #611	; 0x263
  8c:	735f7874 	cmpvc	pc, #7602176	; 0x740000
  90:	4e555200 	cdpmi	2, 5, cr5, cr5, cr0, {0}
  94:	474e494e 	strbmi	r4, [lr, -lr, asr #18]
  98:	6f687300 	svcvs	0x00687300
  9c:	75207472 	strvc	r7, [r0, #-1138]!	; 0x472
  a0:	6769736e 	strbvs	r7, [r9, -lr, ror #6]!
  a4:	2064656e 	rsbcs	r6, r4, lr, ror #10
  a8:	00746e69 	rsbseq	r6, r4, r9, ror #28
  ac:	6d6f682f 	stclvs	8, cr6, [pc, #-188]!	; fffffff8 <__bss_end+0xffff6b20>
  b0:	6e722f65 	cdpvs	15, 7, cr2, cr2, cr5, {3}
  b4:	6c6f6369 	stclvs	3, cr6, [pc], #-420	; ffffff18 <__bss_end+0xffff6a40>
  b8:	482f7465 	stmdami	pc!, {r0, r2, r5, r6, sl, ip, sp, lr}	; <UNPREDICTABLE>
  bc:	34303134 	ldrtcc	r3, [r0], #-308	; 0x134
  c0:	2f534f2f 	svccs	0x00534f2f
  c4:	522d734f 	eorpl	r7, sp, #1006632961	; 0x3c000001
  c8:	65707361 	ldrbvs	r7, [r0, #-865]!	; 0x361
  cc:	72726562 	rsbsvc	r6, r2, #411041792	; 0x18800000
  d0:	6e750079 	mrcvs	0, 3, r0, cr5, cr9, {3}
  d4:	6e676973 	mcrvs	9, 3, r6, cr7, cr3, {3}
  d8:	63206465 	teqvs	r0, #1694498816	; 0x65000000
  dc:	00726168 	rsbseq	r6, r2, r8, ror #2
  e0:	6e72656b 	cdpvs	5, 7, cr6, cr2, cr11, {3}
  e4:	632e6c65 	teqvs	lr, #25856	; 0x6500
  e8:	61747300 	cmnvs	r4, r0, lsl #6
  ec:	74006574 	strvc	r6, [r0], #-1396	; 0x574
  f0:	73706d65 	cmnvc	r0, #6464	; 0x1940
  f4:	65747441 	ldrbvs	r7, [r4, #-1089]!	; 0x441
  f8:	0065746e 	rsbeq	r7, r5, lr, ror #8
  fc:	5f626370 	svcpl	0x00626370
 100:	6e690073 	mcrvs	0, 3, r0, cr9, cr3, {3}
 104:	735f7469 	cmpvc	pc, #1761607680	; 0x69000000
 108:	74530070 	ldrbvc	r0, [r3], #-112	; 0x70
 10c:	00657461 	rsbeq	r7, r5, r1, ror #8
 110:	5f626370 	svcpl	0x00626370
 114:	00787463 	rsbseq	r7, r8, r3, ror #8
 118:	41796870 	cmnmi	r9, r0, ror r8
 11c:	636f6c6c 	cmnvs	pc, #27648	; 0x6c00
 120:	7000632e 	andvc	r6, r0, lr, lsr #6
 124:	00766572 	rsbseq	r6, r6, r2, ror r5
 128:	65657266 	strbvs	r7, [r5, #-614]!	; 0x266
 12c:	7473696c 	ldrbtvc	r6, [r3], #-2412	; 0x96c
 130:	79687000 	stmdbvc	r8!, {ip, sp, lr}^
 134:	6f6c6c41 	svcvs	0x006c6c41
 138:	72665f63 	rsbvc	r5, r6, #396	; 0x18c
 13c:	68006565 	stmdavs	r0, {r0, r2, r5, r6, r8, sl, sp, lr}
 140:	5f706165 	svcpl	0x00706165
 144:	72617473 	rsbvc	r7, r1, #1929379840	; 0x73000000
 148:	656e0074 	strbvs	r0, [lr, #-116]!	; 0x74
 14c:	70007478 	andvc	r7, r0, r8, ror r4
 150:	6c417968 	mcrrvs	9, 6, r7, r1, cr8
 154:	5f636f6c 	svcpl	0x00636f6c
 158:	6f6c6c61 	svcvs	0x006c6c61
 15c:	68700063 	ldmdavs	r0!, {r0, r1, r5, r6}^
 160:	6c6c4179 	stfvse	f4, [ip], #-484	; 0xfffffe1c
 164:	695f636f 	ldmdbvs	pc, {r0, r1, r2, r3, r5, r6, r8, r9, sp, lr}^	; <UNPREDICTABLE>
 168:	0074696e 	rsbseq	r6, r4, lr, ror #18
 16c:	70616568 	rsbvc	r6, r1, r8, ror #10
 170:	6d696c5f 	stclvs	12, cr6, [r9, #-380]!	; 0xfffffe84
 174:	68007469 	stmdavs	r0, {r0, r3, r5, r6, sl, ip, sp, lr}
 178:	5f706165 	svcpl	0x00706165
 17c:	657a6973 	ldrbvs	r6, [sl, #-2419]!	; 0x973
 180:	2e776800 	cdpcs	8, 7, cr6, cr7, cr0, {0}
 184:	656c0063 	strbvs	r0, [ip, #-99]!	; 0x63
 188:	6e6f5f64 	cdpvs	15, 6, cr5, cr15, cr4, {3}
 18c:	74657300 	strbtvc	r7, [r5], #-768	; 0x300
 190:	6369745f 	cmnvs	r9, #1593835520	; 0x5f000000
 194:	6e615f6b 	cdpvs	15, 6, cr5, cr1, cr11, {3}
 198:	6e655f64 	cdpvs	15, 6, cr5, cr5, cr4, {3}
 19c:	656c6261 	strbvs	r6, [ip, #-609]!	; 0x261
 1a0:	6d69745f 	cfstrdvs	mvd7, [r9, #-380]!	; 0xfffffe84
 1a4:	69007265 	stmdbvs	r0, {r0, r2, r5, r6, r9, ip, sp, lr}
 1a8:	5f74696e 	svcpl	0x0074696e
 1ac:	6c007768 	stcvs	7, cr7, [r0], {104}	; 0x68
 1b0:	6f5f6465 	svcvs	0x005f6465
 1b4:	70006666 	andvc	r6, r0, r6, ror #12
 1b8:	00636f72 	rsbeq	r6, r3, r2, ror pc
 1bc:	65686373 	strbvs	r6, [r8, #-883]!	; 0x373
 1c0:	00632e64 	rsbeq	r2, r3, r4, ror #28
 1c4:	72617473 	rsbvc	r7, r1, #1929379840	; 0x73000000
 1c8:	63735f74 	cmnvs	r3, #464	; 0x1d0
 1cc:	00646568 	rsbeq	r6, r4, r8, ror #10
 1d0:	5f787463 	svcpl	0x00787463
 1d4:	74697773 	strbtvc	r7, [r9], #-1907	; 0x773
 1d8:	63006863 	movwvs	r6, #2147	; 0x863
 1dc:	74616572 	strbtvc	r6, [r1], #-1394	; 0x572
 1e0:	72705f65 	rsbsvc	r5, r0, #404	; 0x194
 1e4:	7365636f 	cmnvc	r5, #-1140850687	; 0xbc000001
 1e8:	6e690073 	mcrvs	0, 3, r0, cr9, cr3, {3}
 1ec:	635f7469 	cmpvs	pc, #1761607680	; 0x69000000
 1f0:	6e007874 	mcrvs	8, 0, r7, cr0, cr4, {3}
 1f4:	705f7765 	subsvc	r7, pc, r5, ror #14
 1f8:	63006263 	movwvs	r6, #611	; 0x263
 1fc:	735f7874 	cmpvc	pc, #7602176	; 0x740000
 200:	63746977 	cmnvs	r4, #1949696	; 0x1dc000
 204:	72665f68 	rsbvc	r5, r6, #416	; 0x1a0
 208:	695f6d6f 	ldmdbvs	pc, {r0, r1, r2, r3, r5, r6, r8, sl, fp, sp, lr}^	; <UNPREDICTABLE>
 20c:	65007172 	strvs	r7, [r0, #-370]	; 0x172
 210:	7463656c 	strbtvc	r6, [r3], #-1388	; 0x56c
 214:	61747300 	cmnvs	r4, r0, lsl #6
 218:	635f7472 	cmpvs	pc, #1912602624	; 0x72000000
 21c:	65727275 	ldrbvs	r7, [r2, #-629]!	; 0x275
 220:	705f746e 	subsvc	r7, pc, lr, ror #8
 224:	65636f72 	strbvs	r6, [r3, #-3954]!	; 0xf72
 228:	63007373 	movwvs	r7, #883	; 0x373
 22c:	65746e6f 	ldrbvs	r6, [r4, #-3695]!	; 0xe6f
 230:	73007478 	movwvc	r7, #1144	; 0x478
 234:	6b636174 	blvs	18d880c <__bss_end+0x18cf334>
 238:	7a69735f 	bvc	1a5cfbc <__bss_end+0x1a53ae4>
 23c:	65740065 	ldrbvs	r0, [r4, #-101]!	; 0x65
 240:	6e696d72 	mcrvs	13, 3, r6, cr9, cr2, {3}
 244:	5f657461 	svcpl	0x00657461
 248:	636f7270 	cmnvs	pc, #7
 24c:	00737365 	rsbseq	r7, r3, r5, ror #6
 250:	74696e69 	strbtvc	r6, [r9], #-3689	; 0xe69
 254:	6263705f 	rsbvs	r7, r3, #95	; 0x5f
 258:	73797300 	cmnvc	r9, #0
 25c:	6961775f 	stmdbvs	r1!, {r0, r1, r2, r3, r4, r6, r8, r9, sl, ip, sp, lr}^
 260:	6f640074 	svcvs	0x00640074
 264:	43737953 	cmnmi	r3, #1359872	; 0x14c000
 268:	576c6c61 	strbpl	r6, [ip, -r1, ror #24]!
 26c:	00746961 	rsbseq	r6, r4, r1, ror #18
 270:	79536f64 	ldmdbvc	r3, {r2, r5, r6, r8, r9, sl, fp, sp, lr}^
 274:	6c614373 	stclvs	3, cr4, [r1], #-460	; 0xfffffe34
 278:	6265526c 	rsbvs	r5, r5, #-1073741818	; 0xc0000006
 27c:	00746f6f 	rsbseq	r6, r4, pc, ror #30
 280:	5f737973 	svcpl	0x00737973
 284:	6f626572 	svcvs	0x00626572
 288:	5300746f 	movwpl	r7, #1135	; 0x46f
 28c:	61484957 	cmpvs	r8, r7, asr r9
 290:	656c646e 	strbvs	r6, [ip, #-1134]!	; 0x46e
 294:	626e0072 	rsbvs	r0, lr, #114	; 0x72
 298:	6e617551 	mcrvs	5, 3, r7, cr1, cr1, {2}
 29c:	736d7574 	cmnvc	sp, #486539264	; 0x1d000000
 2a0:	6d756e00 	ldclvs	14, cr6, [r5, #-0]
 2a4:	43737953 	cmnmi	r3, #1359872	; 0x14c000
 2a8:	006c6c61 	rsbeq	r6, ip, r1, ror #24
 2ac:	63737973 	cmnvs	r3, #1884160	; 0x1cc000
 2b0:	2e6c6c61 	cdpcs	12, 6, cr6, cr12, cr1, {3}
 2b4:	4d760063 	ldclmi	0, cr0, [r6, #-396]!	; 0xfffffe74
 2b8:	415f6d65 	cmpmi	pc, r5, ror #26
 2bc:	636f6c6c 	cmnvs	pc, #27648	; 0x6c00
 2c0:	72756300 	rsbsvc	r6, r5, #0
 2c4:	746e6572 	strbtvc	r6, [lr], #-1394	; 0x572
 2c8:	7269665f 	rsbvc	r6, r9, #99614720	; 0x5f00000
 2cc:	745f7473 	ldrbvc	r7, [pc], #-1139	; 2d4 <_start-0x7d2c>
 2d0:	656c6261 	strbvs	r6, [ip, #-609]!	; 0x261
 2d4:	696e6900 	stmdbvs	lr!, {r8, fp, sp, lr}^
 2d8:	656b5f74 	strbvs	r5, [fp, #-3956]!	; 0xf74
 2dc:	745f6e72 	ldrbvc	r6, [pc], #-3698	; 2e4 <_start-0x7d1c>
 2e0:	736e6172 	cmnvc	lr, #-2147483620	; 0x8000001c
 2e4:	6974616c 	ldmdbvs	r4!, {r2, r3, r5, r6, r8, sp, lr}^
 2e8:	745f6e6f 	ldrbvc	r6, [pc], #-3695	; 2f0 <_start-0x7d10>
 2ec:	656c6261 	strbvs	r6, [ip, #-609]!	; 0x261
 2f0:	77656e00 	strbvc	r6, [r5, -r0, lsl #28]!
 2f4:	7269665f 	rsbvc	r6, r9, #99614720	; 0x5f00000
 2f8:	745f7473 	ldrbvc	r7, [pc], #-1139	; 300 <_start-0x7d00>
 2fc:	656c6261 	strbvs	r6, [ip, #-609]!	; 0x261
 300:	6e696d00 	cdpvs	13, 6, cr6, cr9, cr0, {0}
 304:	61745f69 	cmnvs	r4, r9, ror #30
 308:	00656c62 	rsbeq	r6, r5, r2, ror #24
 30c:	656c6564 	strbvs	r6, [ip, #-1380]!	; 0x564
 310:	665f6574 			; <UNDEFINED> instruction: 0x665f6574
 314:	74737269 	ldrbtvc	r7, [r3], #-617	; 0x269
 318:	6261745f 	rsbvs	r7, r1, #1593835520	; 0x5f000000
 31c:	6e00656c 	cfsh32vs	mvfx6, mvfx0, #60
 320:	735f7765 	cmpvc	pc, #26476544	; 0x1940000
 324:	6e6f6365 	cdpvs	3, 6, cr6, cr15, cr5, {3}
 328:	61745f64 	cmnvs	r4, r4, ror #30
 32c:	00656c62 	rsbeq	r6, r5, r2, ror #24
 330:	666e6f63 	strbtvs	r6, [lr], -r3, ror #30
 334:	72756769 	rsbsvc	r6, r5, #27525120	; 0x1a40000
 338:	6d6d5f65 	stclvs	15, cr5, [sp, #-404]!	; 0xfffffe6c
 33c:	00435f75 	subeq	r5, r3, r5, ror pc
 340:	64646166 	strbtvs	r6, [r4], #-358	; 0x166
 344:	73616c00 	cmnvc	r1, #0
 348:	69765f74 	ldmdbvs	r6!, {r2, r4, r5, r6, r8, r9, sl, fp, ip, lr}^
 34c:	61757472 	cmnvs	r5, r2, ror r4
 350:	64615f6c 	strbtvs	r5, [r1], #-3948	; 0xf6c
 354:	73657264 	cmnvc	r5, #1073741830	; 0x40000006
 358:	72700073 	rsbsvc	r0, r0, #115	; 0x73
 35c:	7365636f 	cmnvc	r5, #-1140850687	; 0xbc000001
 360:	6c665f73 	stclvs	15, cr5, [r6], #-460	; 0xfffffe34
 364:	00736761 	rsbseq	r6, r3, r1, ror #14
 368:	746e6f63 	strbtvc	r6, [lr], #-3939	; 0xf63
 36c:	006c6f72 	rsbeq	r6, ip, r2, ror pc
 370:	6e72656b 	cdpvs	5, 7, cr6, cr2, cr11, {3}
 374:	745f6c65 	ldrbvc	r6, [pc], #-3173	; 37c <_start-0x7c84>
 378:	64615f74 	strbtvs	r5, [r1], #-3956	; 0xf74
 37c:	73657264 	cmnvc	r5, #1073741830	; 0x40000006
 380:	656b0073 	strbvs	r0, [fp, #-115]!	; 0x73
 384:	6c656e72 	stclvs	14, cr6, [r5], #-456	; 0xfffffe38
 388:	616c665f 	cmnvs	ip, pc, asr r6
 38c:	64007367 	strvs	r7, [r0], #-871	; 0x367
 390:	74656c65 	strbtvc	r6, [r5], #-3173	; 0xc65
 394:	72665f65 	rsbvc	r5, r6, #404	; 0x194
 398:	00656d61 	rsbeq	r6, r5, r1, ror #26
 39c:	7563636f 	strbvc	r6, [r3, #-879]!	; 0x36f
 3a0:	69746170 	ldmdbvs	r4!, {r4, r5, r6, r8, sp, lr}^
 3a4:	745f6e6f 	ldrbvc	r6, [pc], #-3695	; 3ac <_start-0x7c54>
 3a8:	656c6261 	strbvs	r6, [ip, #-609]!	; 0x261
 3ac:	76656400 	strbtvc	r6, [r5], -r0, lsl #8
 3b0:	5f656369 	svcpl	0x00656369
 3b4:	67616c66 	strbvs	r6, [r1, -r6, ror #24]!
 3b8:	69750073 	ldmdbvs	r5!, {r0, r1, r4, r5, r6}^
 3bc:	5f38746e 	svcpl	0x0038746e
 3c0:	6f740074 	svcvs	0x00740074
 3c4:	006c6174 	rsbeq	r6, ip, r4, ror r1
 3c8:	6d656d76 	stclvs	13, cr6, [r5, #-472]!	; 0xfffffe28
 3cc:	656d762f 	strbvs	r7, [sp, #-1583]!	; 0x62f
 3d0:	00632e6d 	rsbeq	r2, r3, sp, ror #28
 3d4:	656c6564 	strbvs	r6, [ip, #-1380]!	; 0x564
 3d8:	735f6574 	cmpvc	pc, #486539264	; 0x1d000000
 3dc:	6e6f6365 	cdpvs	3, 6, cr6, cr15, cr5, {3}
 3e0:	61745f64 	cmnvs	r4, r4, ror #30
 3e4:	00656c62 	rsbeq	r6, r5, r2, ror #24
 3e8:	5f77656e 	svcpl	0x0077656e
 3ec:	6d617266 	sfmvs	f7, 2, [r1, #-408]!	; 0xfffffe68
 3f0:	6e690065 	cdpvs	0, 6, cr0, cr9, cr5, {3}
 3f4:	6e5f7469 	cdpvs	4, 5, cr7, cr15, cr9, {3}
 3f8:	72745f6f 	rsbsvc	r5, r4, #444	; 0x1bc
 3fc:	6c736e61 	ldclvs	14, cr6, [r3], #-388	; 0xfffffe7c
 400:	6f697461 	svcvs	0x00697461
 404:	61705f6e 	cmnvs	r0, lr, ror #30
 408:	00736567 	rsbseq	r6, r3, r7, ror #10
 40c:	615f7470 	cmpvs	pc, r0, ror r4	; <UNPREDICTABLE>
 410:	00726464 	rsbseq	r6, r2, r4, ror #8
 414:	746e6975 	strbtvc	r6, [lr], #-2421	; 0x975
 418:	6e690038 	mcrvs	0, 3, r0, cr9, cr8, {1}
 41c:	00786564 	rsbseq	r6, r8, r4, ror #10
 420:	6d654d76 	stclvs	13, cr4, [r5, #-472]!	; 0xfffffe28
 424:	6572465f 	ldrbvs	r4, [r2, #-1631]!	; 0x65f
 428:	74730065 	ldrbtvc	r0, [r3], #-101	; 0x65
 42c:	5f747261 	svcpl	0x00747261
 430:	5f756d6d 	svcpl	0x00756d6d
 434:	626e0043 	rsbvs	r0, lr, #67	; 0x43
 438:	65676150 	strbvs	r6, [r7, #-336]!	; 0x150
 43c:	Address 0x000000000000043c is out of bounds.


Disassembly of section .debug_frame:

00000000 <.debug_frame>:
   0:	0000000c 	andeq	r0, r0, ip
   4:	ffffffff 			; <UNDEFINED> instruction: 0xffffffff
   8:	7c020001 	stcvc	0, cr0, [r2], {1}
   c:	000d0c0e 	andeq	r0, sp, lr, lsl #24
  10:	00000010 	andeq	r0, r0, r0, lsl r0
  14:	00000000 	andeq	r0, r0, r0
  18:	000080d0 	ldrdeq	r8, [r0], -r0
  1c:	00000040 	andeq	r0, r0, r0, asr #32
  20:	00080e42 	andeq	r0, r8, r2, asr #28
  24:	00000010 	andeq	r0, r0, r0, lsl r0
  28:	00000000 	andeq	r0, r0, r0
  2c:	00008110 	andeq	r8, r0, r0, lsl r1
  30:	0000001c 	andeq	r0, r0, ip, lsl r0
  34:	00080e42 	andeq	r0, r8, r2, asr #28
  38:	00000014 	andeq	r0, r0, r4, lsl r0
  3c:	00000000 	andeq	r0, r0, r0
  40:	0000812c 	andeq	r8, r0, ip, lsr #2
  44:	00000084 	andeq	r0, r0, r4, lsl #1
  48:	8e040e42 	cdphi	14, 0, cr0, cr4, cr2, {2}
  4c:	100e4201 	andne	r4, lr, r1, lsl #4
  50:	0000000c 	andeq	r0, r0, ip
  54:	ffffffff 			; <UNDEFINED> instruction: 0xffffffff
  58:	7c020001 	stcvc	0, cr0, [r2], {1}
  5c:	000d0c0e 	andeq	r0, sp, lr, lsl #24
  60:	00000018 	andeq	r0, r0, r8, lsl r0
  64:	00000050 	andeq	r0, r0, r0, asr r0
  68:	000081b0 			; <UNDEFINED> instruction: 0x000081b0
  6c:	000000b4 	strheq	r0, [r0], -r4
  70:	84080e42 	strhi	r0, [r8], #-3650	; 0xe42
  74:	42018502 	andmi	r8, r1, #8388608	; 0x800000
  78:	0000100e 	andeq	r1, r0, lr
  7c:	00000014 	andeq	r0, r0, r4, lsl r0
  80:	00000050 	andeq	r0, r0, r0, asr r0
  84:	00008264 	andeq	r8, r0, r4, ror #4
  88:	00000048 	andeq	r0, r0, r8, asr #32
  8c:	84040e42 	strhi	r0, [r4], #-3650	; 0xe42
  90:	100e4201 	andne	r4, lr, r1, lsl #4
  94:	00000010 	andeq	r0, r0, r0, lsl r0
  98:	00000050 	andeq	r0, r0, r0, asr r0
  9c:	000082ac 	andeq	r8, r0, ip, lsr #5
  a0:	0000003c 	andeq	r0, r0, ip, lsr r0
  a4:	00080e42 	andeq	r0, r8, r2, asr #28
  a8:	0000000c 	andeq	r0, r0, ip
  ac:	ffffffff 			; <UNDEFINED> instruction: 0xffffffff
  b0:	7c020001 	stcvc	0, cr0, [r2], {1}
  b4:	000d0c0e 	andeq	r0, sp, lr, lsl #24
  b8:	00000014 	andeq	r0, r0, r4, lsl r0
  bc:	000000a8 	andeq	r0, r0, r8, lsr #1
  c0:	000082e8 	andeq	r8, r0, r8, ror #5
  c4:	0000004c 	andeq	r0, r0, ip, asr #32
  c8:	8e040e42 	cdphi	14, 0, cr0, cr4, cr2, {2}
  cc:	100e4201 	andne	r4, lr, r1, lsl #4
  d0:	00000014 	andeq	r0, r0, r4, lsl r0
  d4:	000000a8 	andeq	r0, r0, r8, lsr #1
  d8:	00008334 	andeq	r8, r0, r4, lsr r3
  dc:	00000018 	andeq	r0, r0, r8, lsl r0
  e0:	83080e42 	movwhi	r0, #36418	; 0x8e42
  e4:	00018e02 	andeq	r8, r1, r2, lsl #28
  e8:	00000014 	andeq	r0, r0, r4, lsl r0
  ec:	000000a8 	andeq	r0, r0, r8, lsr #1
  f0:	0000834c 	andeq	r8, r0, ip, asr #6
  f4:	00000018 	andeq	r0, r0, r8, lsl r0
  f8:	83080e42 	movwhi	r0, #36418	; 0x8e42
  fc:	00018e02 	andeq	r8, r1, r2, lsl #28
 100:	00000014 	andeq	r0, r0, r4, lsl r0
 104:	000000a8 	andeq	r0, r0, r8, lsr #1
 108:	00008364 	andeq	r8, r0, r4, ror #6
 10c:	000000c0 	andeq	r0, r0, r0, asr #1
 110:	8e040e42 	cdphi	14, 0, cr0, cr4, cr2, {2}
 114:	100e4201 	andne	r4, lr, r1, lsl #4
 118:	0000000c 	andeq	r0, r0, ip
 11c:	ffffffff 			; <UNDEFINED> instruction: 0xffffffff
 120:	7c020001 	stcvc	0, cr0, [r2], {1}
 124:	000d0c0e 	andeq	r0, sp, lr, lsl #24
 128:	00000014 	andeq	r0, r0, r4, lsl r0
 12c:	00000118 	andeq	r0, r0, r8, lsl r1
 130:	00008424 	andeq	r8, r0, r4, lsr #8
 134:	00000054 	andeq	r0, r0, r4, asr r0
 138:	8e040e42 	cdphi	14, 0, cr0, cr4, cr2, {2}
 13c:	180e4201 	stmdane	lr, {r0, r9, lr}
 140:	00000014 	andeq	r0, r0, r4, lsl r0
 144:	00000118 	andeq	r0, r0, r8, lsl r1
 148:	00008478 	andeq	r8, r0, r8, ror r4
 14c:	00000078 	andeq	r0, r0, r8, ror r0
 150:	8e040e42 	cdphi	14, 0, cr0, cr4, cr2, {2}
 154:	200e4201 	andcs	r4, lr, r1, lsl #4
 158:	00000014 	andeq	r0, r0, r4, lsl r0
 15c:	00000118 	andeq	r0, r0, r8, lsl r1
 160:	000084f0 	strdeq	r8, [r0], -r0
 164:	000000e8 	andeq	r0, r0, r8, ror #1
 168:	8e040e42 	cdphi	14, 0, cr0, cr4, cr2, {2}
 16c:	200e4201 	andcs	r4, lr, r1, lsl #4
 170:	00000014 	andeq	r0, r0, r4, lsl r0
 174:	00000118 	andeq	r0, r0, r8, lsl r1
 178:	000085d8 	ldrdeq	r8, [r0], -r8	; <UNPREDICTABLE>
 17c:	00000068 	andeq	r0, r0, r8, rrx
 180:	83080e42 	movwhi	r0, #36418	; 0x8e42
 184:	00018e02 	andeq	r8, r1, r2, lsl #28
 188:	00000014 	andeq	r0, r0, r4, lsl r0
 18c:	00000118 	andeq	r0, r0, r8, lsl r1
 190:	00008640 	andeq	r8, r0, r0, asr #12
 194:	000000f4 	strdeq	r0, [r0], -r4
 198:	8e040e42 	cdphi	14, 0, cr0, cr4, cr2, {2}
 19c:	100e4201 	andne	r4, lr, r1, lsl #4
 1a0:	0000000c 	andeq	r0, r0, ip
 1a4:	00000118 	andeq	r0, r0, r8, lsl r1
 1a8:	00008734 	andeq	r8, r0, r4, lsr r7
 1ac:	00000034 	andeq	r0, r0, r4, lsr r0
 1b0:	00000014 	andeq	r0, r0, r4, lsl r0
 1b4:	00000118 	andeq	r0, r0, r8, lsl r1
 1b8:	00008768 	andeq	r8, r0, r8, ror #14
 1bc:	00000038 	andeq	r0, r0, r8, lsr r0
 1c0:	83080e42 	movwhi	r0, #36418	; 0x8e42
 1c4:	00018e02 	andeq	r8, r1, r2, lsl #28
 1c8:	00000014 	andeq	r0, r0, r4, lsl r0
 1cc:	00000118 	andeq	r0, r0, r8, lsl r1
 1d0:	000087a0 	andeq	r8, r0, r0, lsr #15
 1d4:	00000184 	andeq	r0, r0, r4, lsl #3
 1d8:	8e040e42 	cdphi	14, 0, cr0, cr4, cr2, {2}
 1dc:	100e4201 	andne	r4, lr, r1, lsl #4
 1e0:	0000000c 	andeq	r0, r0, ip
 1e4:	00000118 	andeq	r0, r0, r8, lsl r1
 1e8:	00008924 	andeq	r8, r0, r4, lsr #18
 1ec:	00000114 	andeq	r0, r0, r4, lsl r1
 1f0:	0000000c 	andeq	r0, r0, ip
 1f4:	ffffffff 			; <UNDEFINED> instruction: 0xffffffff
 1f8:	7c020001 	stcvc	0, cr0, [r2], {1}
 1fc:	000d0c0e 	andeq	r0, sp, lr, lsl #24
 200:	00000014 	andeq	r0, r0, r4, lsl r0
 204:	000001f0 	strdeq	r0, [r0], -r0	; <UNPREDICTABLE>
 208:	00008a38 	andeq	r8, r0, r8, lsr sl
 20c:	00000014 	andeq	r0, r0, r4, lsl r0
 210:	8e040e42 	cdphi	14, 0, cr0, cr4, cr2, {2}
 214:	00000001 	andeq	r0, r0, r1
 218:	00000014 	andeq	r0, r0, r4, lsl r0
 21c:	000001f0 	strdeq	r0, [r0], -r0	; <UNPREDICTABLE>
 220:	00008a4c 	andeq	r8, r0, ip, asr #20
 224:	00000028 	andeq	r0, r0, r8, lsr #32
 228:	8e040e42 	cdphi	14, 0, cr0, cr4, cr2, {2}
 22c:	100e4201 	andne	r4, lr, r1, lsl #4
 230:	0000000c 	andeq	r0, r0, ip
 234:	000001f0 	strdeq	r0, [r0], -r0	; <UNPREDICTABLE>
 238:	00008a74 	andeq	r8, r0, r4, ror sl
 23c:	00000004 	andeq	r0, r0, r4
 240:	00000014 	andeq	r0, r0, r4, lsl r0
 244:	000001f0 	strdeq	r0, [r0], -r0	; <UNPREDICTABLE>
 248:	00008a78 	andeq	r8, r0, r8, ror sl
 24c:	00000030 	andeq	r0, r0, r0, lsr r0
 250:	84040e42 	strhi	r0, [r4], #-3650	; 0xe42
 254:	100e4201 	andne	r4, lr, r1, lsl #4
 258:	00000018 	andeq	r0, r0, r8, lsl r0
 25c:	000001f0 	strdeq	r0, [r0], -r0	; <UNPREDICTABLE>
 260:	00008aa8 	andeq	r8, r0, r8, lsr #21
 264:	00000048 	andeq	r0, r0, r8, asr #32
 268:	84080e42 	strhi	r0, [r8], #-3650	; 0xe42
 26c:	42018e02 	andmi	r8, r1, #32
 270:	0000100e 	andeq	r1, r0, lr
 274:	0000000c 	andeq	r0, r0, ip
 278:	ffffffff 			; <UNDEFINED> instruction: 0xffffffff
 27c:	7c020001 	stcvc	0, cr0, [r2], {1}
 280:	000d0c0e 	andeq	r0, sp, lr, lsl #24
 284:	00000014 	andeq	r0, r0, r4, lsl r0
 288:	00000274 	andeq	r0, r0, r4, ror r2
 28c:	00008af0 	strdeq	r8, [r0], -r0
 290:	00000144 	andeq	r0, r0, r4, asr #2
 294:	8e040e42 	cdphi	14, 0, cr0, cr4, cr2, {2}
 298:	100e4201 	andne	r4, lr, r1, lsl #4
 29c:	00000014 	andeq	r0, r0, r4, lsl r0
 2a0:	00000274 	andeq	r0, r0, r4, ror r2
 2a4:	00008c34 	andeq	r8, r0, r4, lsr ip
 2a8:	00000194 	muleq	r0, r4, r1
 2ac:	8e040e42 	cdphi	14, 0, cr0, cr4, cr2, {2}
 2b0:	280e4201 	stmdacs	lr, {r0, r9, lr}
 2b4:	00000010 	andeq	r0, r0, r0, lsl r0
 2b8:	00000274 	andeq	r0, r0, r4, ror r2
 2bc:	00008dc8 	andeq	r8, r0, r8, asr #27
 2c0:	00000104 	andeq	r0, r0, r4, lsl #2
 2c4:	00100e42 	andseq	r0, r0, r2, asr #28
 2c8:	00000010 	andeq	r0, r0, r0, lsl r0
 2cc:	00000274 	andeq	r0, r0, r4, ror r2
 2d0:	00008ecc 	andeq	r8, r0, ip, asr #29
 2d4:	000000b0 	strheq	r0, [r0], -r0	; <UNPREDICTABLE>
 2d8:	00100e42 	andseq	r0, r0, r2, asr #28
 2dc:	00000010 	andeq	r0, r0, r0, lsl r0
 2e0:	00000274 	andeq	r0, r0, r4, ror r2
 2e4:	00008f7c 	andeq	r8, r0, ip, ror pc
 2e8:	00000088 	andeq	r0, r0, r8, lsl #1
 2ec:	00080e42 	andeq	r0, r8, r2, asr #28
 2f0:	00000010 	andeq	r0, r0, r0, lsl r0
 2f4:	00000274 	andeq	r0, r0, r4, ror r2
 2f8:	00009004 	andeq	r9, r0, r4
 2fc:	0000007c 	andeq	r0, r0, ip, ror r0
 300:	00100e42 	andseq	r0, r0, r2, asr #28
 304:	00000014 	andeq	r0, r0, r4, lsl r0
 308:	00000274 	andeq	r0, r0, r4, ror r2
 30c:	00009080 	andeq	r9, r0, r0, lsl #1
 310:	00000030 	andeq	r0, r0, r0, lsr r0
 314:	84040e42 	strhi	r0, [r4], #-3650	; 0xe42
 318:	00000001 	andeq	r0, r0, r1
 31c:	00000014 	andeq	r0, r0, r4, lsl r0
 320:	00000274 	andeq	r0, r0, r4, ror r2
 324:	000090b0 	strheq	r9, [r0], -r0
 328:	0000004c 	andeq	r0, r0, ip, asr #32
 32c:	84040e42 	strhi	r0, [r4], #-3650	; 0xe42
 330:	00000001 	andeq	r0, r0, r1
 334:	00000010 	andeq	r0, r0, r0, lsl r0
 338:	00000274 	andeq	r0, r0, r4, ror r2
 33c:	000090fc 	strdeq	r9, [r0], -ip
 340:	00000088 	andeq	r0, r0, r8, lsl #1
 344:	00080e42 	andeq	r0, r8, r2, asr #28
 348:	00000010 	andeq	r0, r0, r0, lsl r0
 34c:	00000274 	andeq	r0, r0, r4, ror r2
 350:	00009184 	andeq	r9, r0, r4, lsl #3
 354:	00000040 	andeq	r0, r0, r0, asr #32
 358:	00100e42 	andseq	r0, r0, r2, asr #28
 35c:	00000018 	andeq	r0, r0, r8, lsl r0
 360:	00000274 	andeq	r0, r0, r4, ror r2
 364:	000091c4 	andeq	r9, r0, r4, asr #3
 368:	00000160 	andeq	r0, r0, r0, ror #2
 36c:	84080e42 	strhi	r0, [r8], #-3650	; 0xe42
 370:	42018e02 	andmi	r8, r1, #32
 374:	0000280e 	andeq	r2, r0, lr, lsl #16
 378:	00000014 	andeq	r0, r0, r4, lsl r0
 37c:	00000274 	andeq	r0, r0, r4, ror r2
 380:	00009324 	andeq	r9, r0, r4, lsr #6
 384:	00000178 	andeq	r0, r0, r8, ror r1
 388:	8e040e42 	cdphi	14, 0, cr0, cr4, cr2, {2}
 38c:	300e4201 	andcc	r4, lr, r1, lsl #4
