
kernel.elf:     file format elf32-littlearm


Disassembly of section .text:

00008000 <_start>:
    8000:	e59ff018 	ldr	pc, [pc, #24]	; 8020 <reset_handler>
    8004:	e59ff018 	ldr	pc, [pc, #24]	; 8024 <undefined_handler>
    8008:	e59ff018 	ldr	pc, [pc, #24]	; 8028 <swi_handler>
    800c:	e59ff018 	ldr	pc, [pc, #24]	; 802c <prefetch_handler>
    8010:	e59ff018 	ldr	pc, [pc, #24]	; 8030 <data_handler>
    8014:	e59ff018 	ldr	pc, [pc, #24]	; 8034 <unused_handler>
    8018:	e59ff018 	ldr	pc, [pc, #24]	; 8038 <irq_handler>
    801c:	e59ff018 	ldr	pc, [pc, #24]	; 803c <fiq_handler>

00008020 <reset_handler>:
    8020:	00008040 	andeq	r8, r0, r0, asr #32

00008024 <undefined_handler>:
    8024:	00008084 	andeq	r8, r0, r4, lsl #1

00008028 <swi_handler>:
    8028:	000080cc 	andeq	r8, r0, ip, asr #1

0000802c <prefetch_handler>:
    802c:	00008088 	andeq	r8, r0, r8, lsl #1

00008030 <data_handler>:
    8030:	0000808c 	andeq	r8, r0, ip, lsl #1

00008034 <unused_handler>:
    8034:	00008090 	muleq	r0, r0, r0

00008038 <irq_handler>:
    8038:	000080c8 	andeq	r8, r0, r8, asr #1

0000803c <fiq_handler>:
    803c:	00008094 	muleq	r0, r4, r0

00008040 <reset>:
    8040:	e3a00902 	mov	r0, #32768	; 0x8000
    8044:	e3a01000 	mov	r1, #0
    8048:	e8b003fc 	ldm	r0!, {r2, r3, r4, r5, r6, r7, r8, r9}
    804c:	e8a103fc 	stmia	r1!, {r2, r3, r4, r5, r6, r7, r8, r9}
    8050:	e8b003fc 	ldm	r0!, {r2, r3, r4, r5, r6, r7, r8, r9}
    8054:	e8a103fc 	stmia	r1!, {r2, r3, r4, r5, r6, r7, r8, r9}
    8058:	e3a000d1 	mov	r0, #209	; 0xd1
    805c:	e121f000 	msr	CPSR_c, r0
    8060:	e3a0d90e 	mov	sp, #229376	; 0x38000
    8064:	e3a000d2 	mov	r0, #210	; 0xd2
    8068:	e121f000 	msr	CPSR_c, r0
    806c:	e3a0d701 	mov	sp, #262144	; 0x40000
    8070:	e3a000d3 	mov	r0, #211	; 0xd3
    8074:	e121f000 	msr	CPSR_c, r0
    8078:	e3a0d912 	mov	sp, #294912	; 0x48000
    807c:	eb000042 	bl	818c <kmain>

00008080 <hang>:
    8080:	eafffffe 	b	8080 <hang>

00008084 <undefined>:
    8084:	eafffffe 	b	8084 <undefined>

00008088 <prefetch>:
    8088:	eafffffe 	b	8088 <prefetch>

0000808c <data>:
    808c:	eafffffe 	b	808c <data>

00008090 <unused>:
    8090:	eafffffe 	b	8090 <unused>

00008094 <fiq>:
    8094:	eafffffe 	b	8094 <fiq>

00008098 <PUT32>:
    8098:	e5801000 	str	r1, [r0]
    809c:	e12fff1e 	bx	lr

000080a0 <PUT16>:
    80a0:	e1c010b0 	strh	r1, [r0]
    80a4:	e12fff1e 	bx	lr

000080a8 <PUT8>:
    80a8:	e5c01000 	strb	r1, [r0]
    80ac:	e12fff1e 	bx	lr

000080b0 <GET32>:
    80b0:	e5900000 	ldr	r0, [r0]
    80b4:	e12fff1e 	bx	lr

000080b8 <GETPC>:
    80b8:	e1a0000e 	mov	r0, lr
    80bc:	e12fff1e 	bx	lr

000080c0 <BRANCHTO>:
    80c0:	e12fff10 	bx	r0

000080c4 <dummy>:
    80c4:	e12fff1e 	bx	lr

000080c8 <irq>:
    80c8:	ea000228 	b	8970 <ctx_switch_from_irq>

000080cc <swi>:
    80cc:	ea000319 	b	8d38 <SWIHandler>

000080d0 <funcA>:
    80d0:	e24dd008 	sub	sp, sp, #8
    80d4:	e3a03000 	mov	r3, #0
    80d8:	e58d3004 	str	r3, [sp, #4]
    80dc:	ea000000 	b	80e4 <funcA+0x14>
    80e0:	e1a00000 	nop			; (mov r0, r0)
    80e4:	e59d3004 	ldr	r3, [sp, #4]
    80e8:	e2833001 	add	r3, r3, #1
    80ec:	e58d3004 	str	r3, [sp, #4]
    80f0:	e59d2004 	ldr	r2, [sp, #4]
    80f4:	e59f3010 	ldr	r3, [pc, #16]	; 810c <funcA+0x3c>
    80f8:	e1520003 	cmp	r2, r3
    80fc:	dafffff7 	ble	80e0 <funcA+0x10>
    8100:	e3a03000 	mov	r3, #0
    8104:	e58d3004 	str	r3, [sp, #4]
    8108:	eafffff4 	b	80e0 <funcA+0x10>
    810c:	0016e360 	andseq	lr, r6, r0, ror #6

00008110 <funcB>:
    8110:	e24dd008 	sub	sp, sp, #8
    8114:	e3a03001 	mov	r3, #1
    8118:	e58d3004 	str	r3, [sp, #4]
    811c:	ea000000 	b	8124 <funcB+0x14>
    8120:	e1a00000 	nop			; (mov r0, r0)
    8124:	e59d3004 	ldr	r3, [sp, #4]
    8128:	e2833002 	add	r3, r3, #2
    812c:	e58d3004 	str	r3, [sp, #4]
    8130:	e59d2004 	ldr	r2, [sp, #4]
    8134:	e59f3010 	ldr	r3, [pc, #16]	; 814c <funcB+0x3c>
    8138:	e1520003 	cmp	r2, r3
    813c:	dafffff7 	ble	8120 <funcB+0x10>
    8140:	e3a03000 	mov	r3, #0
    8144:	e58d3004 	str	r3, [sp, #4]
    8148:	eafffff4 	b	8120 <funcB+0x10>
    814c:	08f0d180 	ldmeq	r0!, {r7, r8, ip, lr, pc}^

00008150 <functC>:
    8150:	e24dd008 	sub	sp, sp, #8
    8154:	e3a03000 	mov	r3, #0
    8158:	e58d3004 	str	r3, [sp, #4]
    815c:	e59d2004 	ldr	r2, [sp, #4]
    8160:	e59f3020 	ldr	r3, [pc, #32]	; 8188 <functC+0x38>
    8164:	e1520003 	cmp	r2, r3
    8168:	0a000003 	beq	817c <functC+0x2c>
    816c:	e59d3004 	ldr	r3, [sp, #4]
    8170:	e2833001 	add	r3, r3, #1
    8174:	e58d3004 	str	r3, [sp, #4]
    8178:	ea000000 	b	8180 <functC+0x30>
    817c:	e1a00000 	nop			; (mov r0, r0)
    8180:	e28dd008 	add	sp, sp, #8
    8184:	e12fff1e 	bx	lr
    8188:	00e4e1c0 	rsceq	lr, r4, r0, asr #3

0000818c <kmain>:
    818c:	e92d4008 	push	{r3, lr}
    8190:	eb0000a9 	bl	843c <init_hw>
    8194:	e59f003c 	ldr	r0, [pc, #60]	; 81d8 <kmain+0x4c>
    8198:	e3a01000 	mov	r1, #0
    819c:	e3a02b02 	mov	r2, #2048	; 0x800
    81a0:	e3a03003 	mov	r3, #3
    81a4:	eb00010a 	bl	85d4 <create_process>
    81a8:	e59f002c 	ldr	r0, [pc, #44]	; 81dc <kmain+0x50>
    81ac:	e3a01000 	mov	r1, #0
    81b0:	e3a02b02 	mov	r2, #2048	; 0x800
    81b4:	e3a03000 	mov	r3, #0
    81b8:	eb000105 	bl	85d4 <create_process>
    81bc:	e59f001c 	ldr	r0, [pc, #28]	; 81e0 <kmain+0x54>
    81c0:	e3a01000 	mov	r1, #0
    81c4:	e3a02b02 	mov	r2, #2048	; 0x800
    81c8:	e3a03002 	mov	r3, #2
    81cc:	eb000100 	bl	85d4 <create_process>
    81d0:	eb0001d4 	bl	8928 <start_sched>
    81d4:	eafffffe 	b	81d4 <kmain+0x48>
    81d8:	000080d0 	ldrdeq	r8, [r0], -r0
    81dc:	00008110 	andeq	r8, r0, r0, lsl r1
    81e0:	00008150 	andeq	r8, r0, r0, asr r1

000081e4 <phyAlloc_alloc>:
    81e4:	e92d0030 	push	{r4, r5}
    81e8:	e24dd008 	sub	sp, sp, #8
    81ec:	e58d0004 	str	r0, [sp, #4]
    81f0:	e59f3094 	ldr	r3, [pc, #148]	; 828c <phyAlloc_alloc+0xa8>
    81f4:	e5934000 	ldr	r4, [r3]
    81f8:	e59f508c 	ldr	r5, [pc, #140]	; 828c <phyAlloc_alloc+0xa8>
    81fc:	ea000001 	b	8208 <phyAlloc_alloc+0x24>
    8200:	e1a05004 	mov	r5, r4
    8204:	e5944000 	ldr	r4, [r4]
    8208:	e3540000 	cmp	r4, #0
    820c:	0a000003 	beq	8220 <phyAlloc_alloc+0x3c>
    8210:	e5942004 	ldr	r2, [r4, #4]
    8214:	e59d3004 	ldr	r3, [sp, #4]
    8218:	e1520003 	cmp	r2, r3
    821c:	3afffff7 	bcc	8200 <phyAlloc_alloc+0x1c>
    8220:	e3540000 	cmp	r4, #0
    8224:	1a000011 	bne	8270 <phyAlloc_alloc+0x8c>
    8228:	e59f3060 	ldr	r3, [pc, #96]	; 8290 <phyAlloc_alloc+0xac>
    822c:	e5934000 	ldr	r4, [r3]
    8230:	e59f3058 	ldr	r3, [pc, #88]	; 8290 <phyAlloc_alloc+0xac>
    8234:	e5932000 	ldr	r2, [r3]
    8238:	e59d3004 	ldr	r3, [sp, #4]
    823c:	e2833003 	add	r3, r3, #3
    8240:	e3c33003 	bic	r3, r3, #3
    8244:	e0822003 	add	r2, r2, r3
    8248:	e59f3040 	ldr	r3, [pc, #64]	; 8290 <phyAlloc_alloc+0xac>
    824c:	e5832000 	str	r2, [r3]
    8250:	e59f3038 	ldr	r3, [pc, #56]	; 8290 <phyAlloc_alloc+0xac>
    8254:	e5932000 	ldr	r2, [r3]
    8258:	e59f3034 	ldr	r3, [pc, #52]	; 8294 <phyAlloc_alloc+0xb0>
    825c:	e5933000 	ldr	r3, [r3]
    8260:	e1520003 	cmp	r2, r3
    8264:	9a000003 	bls	8278 <phyAlloc_alloc+0x94>
    8268:	e3a03000 	mov	r3, #0
    826c:	ea000002 	b	827c <phyAlloc_alloc+0x98>
    8270:	e5943000 	ldr	r3, [r4]
    8274:	e5853000 	str	r3, [r5]
    8278:	e1a03004 	mov	r3, r4
    827c:	e1a00003 	mov	r0, r3
    8280:	e28dd008 	add	sp, sp, #8
    8284:	e8bd0030 	pop	{r4, r5}
    8288:	e12fff1e 	bx	lr
    828c:	00008d80 	andeq	r8, r0, r0, lsl #27
    8290:	00008d84 	andeq	r8, r0, r4, lsl #27
    8294:	00008d88 	andeq	r8, r0, r8, lsl #27

00008298 <phyAlloc_free>:
    8298:	e52d4004 	push	{r4}		; (str r4, [sp, #-4]!)
    829c:	e24dd00c 	sub	sp, sp, #12
    82a0:	e58d0004 	str	r0, [sp, #4]
    82a4:	e58d1000 	str	r1, [sp]
    82a8:	e59d4004 	ldr	r4, [sp, #4]
    82ac:	e59d3000 	ldr	r3, [sp]
    82b0:	e2833003 	add	r3, r3, #3
    82b4:	e3c33003 	bic	r3, r3, #3
    82b8:	e5843004 	str	r3, [r4, #4]
    82bc:	e59f3018 	ldr	r3, [pc, #24]	; 82dc <phyAlloc_free+0x44>
    82c0:	e5933000 	ldr	r3, [r3]
    82c4:	e5843000 	str	r3, [r4]
    82c8:	e59f300c 	ldr	r3, [pc, #12]	; 82dc <phyAlloc_free+0x44>
    82cc:	e5834000 	str	r4, [r3]
    82d0:	e28dd00c 	add	sp, sp, #12
    82d4:	e8bd0010 	pop	{r4}
    82d8:	e12fff1e 	bx	lr
    82dc:	00008d80 	andeq	r8, r0, r0, lsl #27

000082e0 <phyAlloc_init>:
    82e0:	e24dd008 	sub	sp, sp, #8
    82e4:	e58d0004 	str	r0, [sp, #4]
    82e8:	e58d1000 	str	r1, [sp]
    82ec:	e59f3020 	ldr	r3, [pc, #32]	; 8314 <phyAlloc_init+0x34>
    82f0:	e59d2004 	ldr	r2, [sp, #4]
    82f4:	e5832000 	str	r2, [r3]
    82f8:	e59d2004 	ldr	r2, [sp, #4]
    82fc:	e59d3000 	ldr	r3, [sp]
    8300:	e0822003 	add	r2, r2, r3
    8304:	e59f300c 	ldr	r3, [pc, #12]	; 8318 <phyAlloc_init+0x38>
    8308:	e5832000 	str	r2, [r3]
    830c:	e28dd008 	add	sp, sp, #8
    8310:	e12fff1e 	bx	lr
    8314:	00008d84 	andeq	r8, r0, r4, lsl #27
    8318:	00008d88 	andeq	r8, r0, r8, lsl #27

0000831c <set_tick_and_enable_timer>:
    831c:	e52de004 	push	{lr}		; (str lr, [sp, #-4]!)
    8320:	e24dd00c 	sub	sp, sp, #12
    8324:	e59f0030 	ldr	r0, [pc, #48]	; 835c <set_tick_and_enable_timer+0x40>
    8328:	ebffff60 	bl	80b0 <GET32>
    832c:	e58d0004 	str	r0, [sp, #4]
    8330:	e59d3004 	ldr	r3, [sp, #4]
    8334:	e2833702 	add	r3, r3, #524288	; 0x80000
    8338:	e58d3004 	str	r3, [sp, #4]
    833c:	e59f001c 	ldr	r0, [pc, #28]	; 8360 <set_tick_and_enable_timer+0x44>
    8340:	e59d1004 	ldr	r1, [sp, #4]
    8344:	ebffff53 	bl	8098 <PUT32>
    8348:	e59f0014 	ldr	r0, [pc, #20]	; 8364 <set_tick_and_enable_timer+0x48>
    834c:	e3a01002 	mov	r1, #2
    8350:	ebffff50 	bl	8098 <PUT32>
    8354:	e28dd00c 	add	sp, sp, #12
    8358:	e8bd8000 	pop	{pc}
    835c:	20003004 	andcs	r3, r0, r4
    8360:	20003010 	andcs	r3, r0, r0, lsl r0
    8364:	20003000 	andcs	r3, r0, r0

00008368 <set_tick_and_enable_timer_TS>:
    8368:	e52de004 	push	{lr}		; (str lr, [sp, #-4]!)
    836c:	e24dd014 	sub	sp, sp, #20
    8370:	e58d0004 	str	r0, [sp, #4]
    8374:	e59f0084 	ldr	r0, [pc, #132]	; 8400 <set_tick_and_enable_timer_TS+0x98>
    8378:	ebffff4c 	bl	80b0 <GET32>
    837c:	e58d000c 	str	r0, [sp, #12]
    8380:	e59d3004 	ldr	r3, [sp, #4]
    8384:	e3530003 	cmp	r3, #3
    8388:	979ff103 	ldrls	pc, [pc, r3, lsl #2]
    838c:	ea000013 	b	83e0 <set_tick_and_enable_timer_TS+0x78>
    8390:	000083a0 	andeq	r8, r0, r0, lsr #7
    8394:	000083b0 			; <UNDEFINED> instruction: 0x000083b0
    8398:	000083c0 	andeq	r8, r0, r0, asr #7
    839c:	000083d0 	ldrdeq	r8, [r0], -r0
    83a0:	e59d300c 	ldr	r3, [sp, #12]
    83a4:	e2833501 	add	r3, r3, #4194304	; 0x400000
    83a8:	e58d300c 	str	r3, [sp, #12]
    83ac:	ea00000b 	b	83e0 <set_tick_and_enable_timer_TS+0x78>
    83b0:	e59d300c 	ldr	r3, [sp, #12]
    83b4:	e2833602 	add	r3, r3, #2097152	; 0x200000
    83b8:	e58d300c 	str	r3, [sp, #12]
    83bc:	ea000007 	b	83e0 <set_tick_and_enable_timer_TS+0x78>
    83c0:	e59d300c 	ldr	r3, [sp, #12]
    83c4:	e2833601 	add	r3, r3, #1048576	; 0x100000
    83c8:	e58d300c 	str	r3, [sp, #12]
    83cc:	ea000003 	b	83e0 <set_tick_and_enable_timer_TS+0x78>
    83d0:	e59d300c 	ldr	r3, [sp, #12]
    83d4:	e2833702 	add	r3, r3, #524288	; 0x80000
    83d8:	e58d300c 	str	r3, [sp, #12]
    83dc:	e1a00000 	nop			; (mov r0, r0)
    83e0:	e59f001c 	ldr	r0, [pc, #28]	; 8404 <set_tick_and_enable_timer_TS+0x9c>
    83e4:	e59d100c 	ldr	r1, [sp, #12]
    83e8:	ebffff2a 	bl	8098 <PUT32>
    83ec:	e59f0014 	ldr	r0, [pc, #20]	; 8408 <set_tick_and_enable_timer_TS+0xa0>
    83f0:	e3a01002 	mov	r1, #2
    83f4:	ebffff27 	bl	8098 <PUT32>
    83f8:	e28dd014 	add	sp, sp, #20
    83fc:	e8bd8000 	pop	{pc}
    8400:	20003004 	andcs	r3, r0, r4
    8404:	20003010 	andcs	r3, r0, r0, lsl r0
    8408:	20003000 	andcs	r3, r0, r0

0000840c <led_off>:
    840c:	e92d4008 	push	{r3, lr}
    8410:	e59f0008 	ldr	r0, [pc, #8]	; 8420 <led_off+0x14>
    8414:	e3a01801 	mov	r1, #65536	; 0x10000
    8418:	ebffff1e 	bl	8098 <PUT32>
    841c:	e8bd8008 	pop	{r3, pc}
    8420:	2020001c 	eorcs	r0, r0, ip, lsl r0

00008424 <led_on>:
    8424:	e92d4008 	push	{r3, lr}
    8428:	e59f0008 	ldr	r0, [pc, #8]	; 8438 <led_on+0x14>
    842c:	e3a01801 	mov	r1, #65536	; 0x10000
    8430:	ebffff18 	bl	8098 <PUT32>
    8434:	e8bd8008 	pop	{r3, pc}
    8438:	20200028 	eorcs	r0, r0, r8, lsr #32

0000843c <init_hw>:
    843c:	e52de004 	push	{lr}		; (str lr, [sp, #-4]!)
    8440:	e24dd00c 	sub	sp, sp, #12
    8444:	e59f0098 	ldr	r0, [pc, #152]	; 84e4 <init_hw+0xa8>
    8448:	ebffff18 	bl	80b0 <GET32>
    844c:	e58d0004 	str	r0, [sp, #4]
    8450:	e59d3004 	ldr	r3, [sp, #4]
    8454:	e3c33707 	bic	r3, r3, #1835008	; 0x1c0000
    8458:	e58d3004 	str	r3, [sp, #4]
    845c:	e59d3004 	ldr	r3, [sp, #4]
    8460:	e3833701 	orr	r3, r3, #262144	; 0x40000
    8464:	e58d3004 	str	r3, [sp, #4]
    8468:	e59f0074 	ldr	r0, [pc, #116]	; 84e4 <init_hw+0xa8>
    846c:	e59d1004 	ldr	r1, [sp, #4]
    8470:	ebffff08 	bl	8098 <PUT32>
    8474:	e59f006c 	ldr	r0, [pc, #108]	; 84e8 <init_hw+0xac>
    8478:	e3a01801 	mov	r1, #65536	; 0x10000
    847c:	ebffff05 	bl	8098 <PUT32>
    8480:	e59f0064 	ldr	r0, [pc, #100]	; 84ec <init_hw+0xb0>
    8484:	ebffff09 	bl	80b0 <GET32>
    8488:	e58d0000 	str	r0, [sp]
    848c:	e59d3000 	ldr	r3, [sp]
    8490:	e2833702 	add	r3, r3, #524288	; 0x80000
    8494:	e58d3000 	str	r3, [sp]
    8498:	e59f0050 	ldr	r0, [pc, #80]	; 84f0 <init_hw+0xb4>
    849c:	e59d1000 	ldr	r1, [sp]
    84a0:	ebfffefc 	bl	8098 <PUT32>
    84a4:	e59f0048 	ldr	r0, [pc, #72]	; 84f4 <init_hw+0xb8>
    84a8:	e3a01002 	mov	r1, #2
    84ac:	ebfffef9 	bl	8098 <PUT32>
    84b0:	e59f0040 	ldr	r0, [pc, #64]	; 84f8 <init_hw+0xbc>
    84b4:	e3a01002 	mov	r1, #2
    84b8:	ebfffef6 	bl	8098 <PUT32>
    84bc:	e92d0001 	push	{r0}
    84c0:	e10f0000 	mrs	r0, CPSR
    84c4:	e3800080 	orr	r0, r0, #128	; 0x80
    84c8:	e121f000 	msr	CPSR_c, r0
    84cc:	e8bd0001 	pop	{r0}
    84d0:	e3a00805 	mov	r0, #327680	; 0x50000
    84d4:	e3a01a32 	mov	r1, #204800	; 0x32000
    84d8:	ebffff80 	bl	82e0 <phyAlloc_init>
    84dc:	e28dd00c 	add	sp, sp, #12
    84e0:	e8bd8000 	pop	{pc}
    84e4:	20200004 	eorcs	r0, r0, r4
    84e8:	2020001c 	eorcs	r0, r0, ip, lsl r0
    84ec:	20003004 	andcs	r3, r0, r4
    84f0:	20003010 	andcs	r3, r0, r0, lsl r0
    84f4:	20003000 	andcs	r3, r0, r0
    84f8:	2000b210 	andcs	fp, r0, r0, lsl r2

000084fc <init_ctx>:
    84fc:	e52de004 	push	{lr}		; (str lr, [sp, #-4]!)
    8500:	e24dd014 	sub	sp, sp, #20
    8504:	e58d000c 	str	r0, [sp, #12]
    8508:	e58d1008 	str	r1, [sp, #8]
    850c:	e58d2004 	str	r2, [sp, #4]
    8510:	e59d0004 	ldr	r0, [sp, #4]
    8514:	ebffff32 	bl	81e4 <phyAlloc_alloc>
    8518:	e1a02000 	mov	r2, r0
    851c:	e59d300c 	ldr	r3, [sp, #12]
    8520:	e5832008 	str	r2, [r3, #8]
    8524:	e59d300c 	ldr	r3, [sp, #12]
    8528:	e5933008 	ldr	r3, [r3, #8]
    852c:	e2833e7f 	add	r3, r3, #2032	; 0x7f0
    8530:	e283300c 	add	r3, r3, #12
    8534:	e59d200c 	ldr	r2, [sp, #12]
    8538:	e5823000 	str	r3, [r2]
    853c:	e59d300c 	ldr	r3, [sp, #12]
    8540:	e59d2008 	ldr	r2, [sp, #8]
    8544:	e5832004 	str	r2, [r3, #4]
    8548:	e28dd014 	add	sp, sp, #20
    854c:	e8bd8000 	pop	{pc}

00008550 <init_pcb>:
    8550:	e52de004 	push	{lr}		; (str lr, [sp, #-4]!)
    8554:	e24dd01c 	sub	sp, sp, #28
    8558:	e58d000c 	str	r0, [sp, #12]
    855c:	e58d1008 	str	r1, [sp, #8]
    8560:	e58d2004 	str	r2, [sp, #4]
    8564:	e58d3000 	str	r3, [sp]
    8568:	e59d300c 	ldr	r3, [sp, #12]
    856c:	e59d2008 	ldr	r2, [sp, #8]
    8570:	e5832008 	str	r2, [r3, #8]
    8574:	e59d300c 	ldr	r3, [sp, #12]
    8578:	e59d2000 	ldr	r2, [sp]
    857c:	e5832004 	str	r2, [r3, #4]
    8580:	e3a0000c 	mov	r0, #12
    8584:	ebffff16 	bl	81e4 <phyAlloc_alloc>
    8588:	e58d0014 	str	r0, [sp, #20]
    858c:	e59d300c 	ldr	r3, [sp, #12]
    8590:	e3a02000 	mov	r2, #0
    8594:	e583200c 	str	r2, [r3, #12]
    8598:	e59d0014 	ldr	r0, [sp, #20]
    859c:	e59d1008 	ldr	r1, [sp, #8]
    85a0:	e59d2004 	ldr	r2, [sp, #4]
    85a4:	ebffffd4 	bl	84fc <init_ctx>
    85a8:	e59d300c 	ldr	r3, [sp, #12]
    85ac:	e59d2020 	ldr	r2, [sp, #32]
    85b0:	e583201c 	str	r2, [r3, #28]
    85b4:	e59d300c 	ldr	r3, [sp, #12]
    85b8:	e59d2014 	ldr	r2, [sp, #20]
    85bc:	e5832010 	str	r2, [r3, #16]
    85c0:	e59d300c 	ldr	r3, [sp, #12]
    85c4:	e3a02000 	mov	r2, #0
    85c8:	e5832014 	str	r2, [r3, #20]
    85cc:	e28dd01c 	add	sp, sp, #28
    85d0:	e8bd8000 	pop	{pc}

000085d4 <create_process>:
    85d4:	e52de004 	push	{lr}		; (str lr, [sp, #-4]!)
    85d8:	e24dd024 	sub	sp, sp, #36	; 0x24
    85dc:	e58d0014 	str	r0, [sp, #20]
    85e0:	e58d1010 	str	r1, [sp, #16]
    85e4:	e58d200c 	str	r2, [sp, #12]
    85e8:	e58d3008 	str	r3, [sp, #8]
    85ec:	e3a00020 	mov	r0, #32
    85f0:	ebfffefb 	bl	81e4 <phyAlloc_alloc>
    85f4:	e58d001c 	str	r0, [sp, #28]
    85f8:	e59d3008 	ldr	r3, [sp, #8]
    85fc:	e58d3000 	str	r3, [sp]
    8600:	e59d001c 	ldr	r0, [sp, #28]
    8604:	e59d1014 	ldr	r1, [sp, #20]
    8608:	e59d200c 	ldr	r2, [sp, #12]
    860c:	e59d3010 	ldr	r3, [sp, #16]
    8610:	ebffffce 	bl	8550 <init_pcb>
    8614:	e59f30a8 	ldr	r3, [pc, #168]	; 86c4 <create_process+0xf0>
    8618:	e5933000 	ldr	r3, [r3]
    861c:	e5933014 	ldr	r3, [r3, #20]
    8620:	e3530000 	cmp	r3, #0
    8624:	0a000018 	beq	868c <create_process+0xb8>
    8628:	e59f3094 	ldr	r3, [pc, #148]	; 86c4 <create_process+0xf0>
    862c:	e5933000 	ldr	r3, [r3]
    8630:	e5933014 	ldr	r3, [r3, #20]
    8634:	e3530001 	cmp	r3, #1
    8638:	0a000013 	beq	868c <create_process+0xb8>
    863c:	e59f3080 	ldr	r3, [pc, #128]	; 86c4 <create_process+0xf0>
    8640:	e5933000 	ldr	r3, [r3]
    8644:	e5933014 	ldr	r3, [r3, #20]
    8648:	e3530003 	cmp	r3, #3
    864c:	0a00000e 	beq	868c <create_process+0xb8>
    8650:	e59f306c 	ldr	r3, [pc, #108]	; 86c4 <create_process+0xf0>
    8654:	e5933000 	ldr	r3, [r3]
    8658:	e5933014 	ldr	r3, [r3, #20]
    865c:	e3530002 	cmp	r3, #2
    8660:	0a000009 	beq	868c <create_process+0xb8>
    8664:	e59f3058 	ldr	r3, [pc, #88]	; 86c4 <create_process+0xf0>
    8668:	e59d201c 	ldr	r2, [sp, #28]
    866c:	e5832000 	str	r2, [r3]
    8670:	e59f304c 	ldr	r3, [pc, #76]	; 86c4 <create_process+0xf0>
    8674:	e59d201c 	ldr	r2, [sp, #28]
    8678:	e5832000 	str	r2, [r3]
    867c:	e59f3040 	ldr	r3, [pc, #64]	; 86c4 <create_process+0xf0>
    8680:	e59d201c 	ldr	r2, [sp, #28]
    8684:	e5832004 	str	r2, [r3, #4]
    8688:	ea00000b 	b	86bc <create_process+0xe8>
    868c:	e59f3030 	ldr	r3, [pc, #48]	; 86c4 <create_process+0xf0>
    8690:	e5933004 	ldr	r3, [r3, #4]
    8694:	e59d201c 	ldr	r2, [sp, #28]
    8698:	e5832000 	str	r2, [r3]
    869c:	e59f3020 	ldr	r3, [pc, #32]	; 86c4 <create_process+0xf0>
    86a0:	e59d201c 	ldr	r2, [sp, #28]
    86a4:	e5832004 	str	r2, [r3, #4]
    86a8:	e59f3014 	ldr	r3, [pc, #20]	; 86c4 <create_process+0xf0>
    86ac:	e5933004 	ldr	r3, [r3, #4]
    86b0:	e59f200c 	ldr	r2, [pc, #12]	; 86c4 <create_process+0xf0>
    86b4:	e5922000 	ldr	r2, [r2]
    86b8:	e5832000 	str	r2, [r3]
    86bc:	e28dd024 	add	sp, sp, #36	; 0x24
    86c0:	e8bd8000 	pop	{pc}
    86c4:	00008d8c 	andeq	r8, r0, ip, lsl #27

000086c8 <start_current_process>:
    86c8:	e92d4008 	push	{r3, lr}
    86cc:	e92d0001 	push	{r0}
    86d0:	e10f0000 	mrs	r0, CPSR
    86d4:	e3c00080 	bic	r0, r0, #128	; 0x80
    86d8:	e121f000 	msr	CPSR_c, r0
    86dc:	e8bd0001 	pop	{r0}
    86e0:	e59f3054 	ldr	r3, [pc, #84]	; 873c <start_current_process+0x74>
    86e4:	e5933000 	ldr	r3, [r3]
    86e8:	e593301c 	ldr	r3, [r3, #28]
    86ec:	e1a00003 	mov	r0, r3
    86f0:	ebffff1c 	bl	8368 <set_tick_and_enable_timer_TS>
    86f4:	e59f3040 	ldr	r3, [pc, #64]	; 873c <start_current_process+0x74>
    86f8:	e5933000 	ldr	r3, [r3]
    86fc:	e3a02002 	mov	r2, #2
    8700:	e5832014 	str	r2, [r3, #20]
    8704:	e59f3030 	ldr	r3, [pc, #48]	; 873c <start_current_process+0x74>
    8708:	e5933000 	ldr	r3, [r3]
    870c:	e5933008 	ldr	r3, [r3, #8]
    8710:	e12fff33 	blx	r3
    8714:	e92d0001 	push	{r0}
    8718:	e10f0000 	mrs	r0, CPSR
    871c:	e3800080 	orr	r0, r0, #128	; 0x80
    8720:	e121f000 	msr	CPSR_c, r0
    8724:	e8bd0001 	pop	{r0}
    8728:	e59f300c 	ldr	r3, [pc, #12]	; 873c <start_current_process+0x74>
    872c:	e5933000 	ldr	r3, [r3]
    8730:	e3a02003 	mov	r2, #3
    8734:	e5832014 	str	r2, [r3, #20]
    8738:	e8bd8008 	pop	{r3, pc}
    873c:	00008d94 	muleq	r0, r4, sp

00008740 <terminate_process>:
    8740:	e52de004 	push	{lr}		; (str lr, [sp, #-4]!)
    8744:	e24dd00c 	sub	sp, sp, #12
    8748:	e59f3100 	ldr	r3, [pc, #256]	; 8850 <terminate_process+0x110>
    874c:	e5933000 	ldr	r3, [r3]
    8750:	e58d3004 	str	r3, [sp, #4]
    8754:	ea000035 	b	8830 <terminate_process+0xf0>
    8758:	e59d3004 	ldr	r3, [sp, #4]
    875c:	e5933000 	ldr	r3, [r3]
    8760:	e58d3004 	str	r3, [sp, #4]
    8764:	e59d3004 	ldr	r3, [sp, #4]
    8768:	e5932000 	ldr	r2, [r3]
    876c:	e59d3004 	ldr	r3, [sp, #4]
    8770:	e1520003 	cmp	r2, r3
    8774:	1a000004 	bne	878c <terminate_process+0x4c>
    8778:	e59f30d0 	ldr	r3, [pc, #208]	; 8850 <terminate_process+0x110>
    877c:	e59d2004 	ldr	r2, [sp, #4]
    8780:	e5832000 	str	r2, [r3]
    8784:	ea000000 	b	878c <terminate_process+0x4c>
    8788:	e1a00000 	nop			; (mov r0, r0)
    878c:	e59d3004 	ldr	r3, [sp, #4]
    8790:	e5933000 	ldr	r3, [r3]
    8794:	e5933014 	ldr	r3, [r3, #20]
    8798:	e3530003 	cmp	r3, #3
    879c:	0a000005 	beq	87b8 <terminate_process+0x78>
    87a0:	e59d3004 	ldr	r3, [sp, #4]
    87a4:	e5932000 	ldr	r2, [r3]
    87a8:	e59f30a0 	ldr	r3, [pc, #160]	; 8850 <terminate_process+0x110>
    87ac:	e5933000 	ldr	r3, [r3]
    87b0:	e1520003 	cmp	r2, r3
    87b4:	1affffe7 	bne	8758 <terminate_process+0x18>
    87b8:	e59d3004 	ldr	r3, [sp, #4]
    87bc:	e5933000 	ldr	r3, [r3]
    87c0:	e5933014 	ldr	r3, [r3, #20]
    87c4:	e3530003 	cmp	r3, #3
    87c8:	1a000018 	bne	8830 <terminate_process+0xf0>
    87cc:	e59d3004 	ldr	r3, [sp, #4]
    87d0:	e5933000 	ldr	r3, [r3]
    87d4:	e5933000 	ldr	r3, [r3]
    87d8:	e58d3000 	str	r3, [sp]
    87dc:	e59d3004 	ldr	r3, [sp, #4]
    87e0:	e5933000 	ldr	r3, [r3]
    87e4:	e5933010 	ldr	r3, [r3, #16]
    87e8:	e5933008 	ldr	r3, [r3, #8]
    87ec:	e1a00003 	mov	r0, r3
    87f0:	e3a01b02 	mov	r1, #2048	; 0x800
    87f4:	ebfffea7 	bl	8298 <phyAlloc_free>
    87f8:	e59d3004 	ldr	r3, [sp, #4]
    87fc:	e5933000 	ldr	r3, [r3]
    8800:	e5933010 	ldr	r3, [r3, #16]
    8804:	e1a00003 	mov	r0, r3
    8808:	e3a0100c 	mov	r1, #12
    880c:	ebfffea1 	bl	8298 <phyAlloc_free>
    8810:	e59d3004 	ldr	r3, [sp, #4]
    8814:	e5933000 	ldr	r3, [r3]
    8818:	e1a00003 	mov	r0, r3
    881c:	e3a01020 	mov	r1, #32
    8820:	ebfffe9c 	bl	8298 <phyAlloc_free>
    8824:	e59d3004 	ldr	r3, [sp, #4]
    8828:	e59d2000 	ldr	r2, [sp]
    882c:	e5832000 	str	r2, [r3]
    8830:	e59d3004 	ldr	r3, [sp, #4]
    8834:	e5932000 	ldr	r2, [r3]
    8838:	e59f3010 	ldr	r3, [pc, #16]	; 8850 <terminate_process+0x110>
    883c:	e5933000 	ldr	r3, [r3]
    8840:	e1520003 	cmp	r2, r3
    8844:	1affffcf 	bne	8788 <terminate_process+0x48>
    8848:	e28dd00c 	add	sp, sp, #12
    884c:	e8bd8000 	pop	{pc}
    8850:	00008d8c 	andeq	r8, r0, ip, lsl #27

00008854 <update_waiting>:
    8854:	e24dd008 	sub	sp, sp, #8
    8858:	e59f3050 	ldr	r3, [pc, #80]	; 88b0 <update_waiting+0x5c>
    885c:	e5933000 	ldr	r3, [r3]
    8860:	e58d3004 	str	r3, [sp, #4]
    8864:	e59d3004 	ldr	r3, [sp, #4]
    8868:	e593300c 	ldr	r3, [r3, #12]
    886c:	e3530000 	cmp	r3, #0
    8870:	0a000004 	beq	8888 <update_waiting+0x34>
    8874:	e59d3004 	ldr	r3, [sp, #4]
    8878:	e593300c 	ldr	r3, [r3, #12]
    887c:	e2432001 	sub	r2, r3, #1
    8880:	e59d3004 	ldr	r3, [sp, #4]
    8884:	e583200c 	str	r2, [r3, #12]
    8888:	e59d3004 	ldr	r3, [sp, #4]
    888c:	e5933000 	ldr	r3, [r3]
    8890:	e58d3004 	str	r3, [sp, #4]
    8894:	e59f3014 	ldr	r3, [pc, #20]	; 88b0 <update_waiting+0x5c>
    8898:	e5933000 	ldr	r3, [r3]
    889c:	e59d2004 	ldr	r2, [sp, #4]
    88a0:	e1520003 	cmp	r2, r3
    88a4:	1affffee 	bne	8864 <update_waiting+0x10>
    88a8:	e28dd008 	add	sp, sp, #8
    88ac:	e12fff1e 	bx	lr
    88b0:	00008d94 	muleq	r0, r4, sp

000088b4 <elect>:
    88b4:	e52de004 	push	{lr}		; (str lr, [sp, #-4]!)
    88b8:	e24dd00c 	sub	sp, sp, #12
    88bc:	e59f3060 	ldr	r3, [pc, #96]	; 8924 <elect+0x70>
    88c0:	e5933000 	ldr	r3, [r3]
    88c4:	e58d3004 	str	r3, [sp, #4]
    88c8:	e59f3054 	ldr	r3, [pc, #84]	; 8924 <elect+0x70>
    88cc:	e5932000 	ldr	r2, [r3]
    88d0:	e59d3004 	ldr	r3, [sp, #4]
    88d4:	e1520003 	cmp	r2, r3
    88d8:	1a000000 	bne	88e0 <elect+0x2c>
    88dc:	ebffffdc 	bl	8854 <update_waiting>
    88e0:	e59f303c 	ldr	r3, [pc, #60]	; 8924 <elect+0x70>
    88e4:	e5933000 	ldr	r3, [r3]
    88e8:	e5932000 	ldr	r2, [r3]
    88ec:	e59f3030 	ldr	r3, [pc, #48]	; 8924 <elect+0x70>
    88f0:	e5832000 	str	r2, [r3]
    88f4:	e59f3028 	ldr	r3, [pc, #40]	; 8924 <elect+0x70>
    88f8:	e5933000 	ldr	r3, [r3]
    88fc:	e593300c 	ldr	r3, [r3, #12]
    8900:	e3530000 	cmp	r3, #0
    8904:	0a000004 	beq	891c <elect+0x68>
    8908:	e59f3014 	ldr	r3, [pc, #20]	; 8924 <elect+0x70>
    890c:	e5933000 	ldr	r3, [r3]
    8910:	e5933014 	ldr	r3, [r3, #20]
    8914:	e3530003 	cmp	r3, #3
    8918:	1affffea 	bne	88c8 <elect+0x14>
    891c:	e28dd00c 	add	sp, sp, #12
    8920:	e8bd8000 	pop	{pc}
    8924:	00008d94 	muleq	r0, r4, sp

00008928 <start_sched>:
    8928:	e92d4008 	push	{r3, lr}
    892c:	e59f3034 	ldr	r3, [pc, #52]	; 8968 <start_sched+0x40>
    8930:	e5932000 	ldr	r2, [r3]
    8934:	e59f3030 	ldr	r3, [pc, #48]	; 896c <start_sched+0x44>
    8938:	e5832000 	str	r2, [r3]
    893c:	e92d0001 	push	{r0}
    8940:	e10f0000 	mrs	r0, CPSR
    8944:	e3c00080 	bic	r0, r0, #128	; 0x80
    8948:	e121f000 	msr	CPSR_c, r0
    894c:	e8bd0001 	pop	{r0}
    8950:	e59f3014 	ldr	r3, [pc, #20]	; 896c <start_sched+0x44>
    8954:	e5933000 	ldr	r3, [r3]
    8958:	e593301c 	ldr	r3, [r3, #28]
    895c:	e1a00003 	mov	r0, r3
    8960:	ebfffe80 	bl	8368 <set_tick_and_enable_timer_TS>
    8964:	e8bd8008 	pop	{r3, pc}
    8968:	00008d8c 	andeq	r8, r0, ip, lsl #27
    896c:	00008d94 	muleq	r0, r4, sp

00008970 <ctx_switch_from_irq>:
    8970:	e52de004 	push	{lr}		; (str lr, [sp, #-4]!)
    8974:	e24dd00c 	sub	sp, sp, #12
    8978:	e92d0001 	push	{r0}
    897c:	e10f0000 	mrs	r0, CPSR
    8980:	e3800080 	orr	r0, r0, #128	; 0x80
    8984:	e121f000 	msr	CPSR_c, r0
    8988:	e8bd0001 	pop	{r0}
    898c:	e24ee004 	sub	lr, lr, #4
    8990:	f96d0513 	srsdb	sp!, #19
    8994:	f1020013 	cps	#19
    8998:	e59f3160 	ldr	r3, [pc, #352]	; 8b00 <ctx_switch_from_irq+0x190>
    899c:	e5933000 	ldr	r3, [r3]
    89a0:	e3530000 	cmp	r3, #0
    89a4:	0a000013 	beq	89f8 <ctx_switch_from_irq+0x88>
    89a8:	e59f3150 	ldr	r3, [pc, #336]	; 8b00 <ctx_switch_from_irq+0x190>
    89ac:	e5933000 	ldr	r3, [r3]
    89b0:	e5933014 	ldr	r3, [r3, #20]
    89b4:	e3530000 	cmp	r3, #0
    89b8:	0a00000e 	beq	89f8 <ctx_switch_from_irq+0x88>
    89bc:	e92d1fff 	push	{r0, r1, r2, r3, r4, r5, r6, r7, r8, r9, sl, fp, ip}
    89c0:	e59f3138 	ldr	r3, [pc, #312]	; 8b00 <ctx_switch_from_irq+0x190>
    89c4:	e5933000 	ldr	r3, [r3]
    89c8:	e5933010 	ldr	r3, [r3, #16]
    89cc:	e1a0200d 	mov	r2, sp
    89d0:	e5832000 	str	r2, [r3]
    89d4:	e59f3124 	ldr	r3, [pc, #292]	; 8b00 <ctx_switch_from_irq+0x190>
    89d8:	e5933000 	ldr	r3, [r3]
    89dc:	e5933010 	ldr	r3, [r3, #16]
    89e0:	e1a0200e 	mov	r2, lr
    89e4:	e5832004 	str	r2, [r3, #4]
    89e8:	e59f3110 	ldr	r3, [pc, #272]	; 8b00 <ctx_switch_from_irq+0x190>
    89ec:	e5933000 	ldr	r3, [r3]
    89f0:	e3a02001 	mov	r2, #1
    89f4:	e5832014 	str	r2, [r3, #20]
    89f8:	ebffffad 	bl	88b4 <elect>
    89fc:	e59f30fc 	ldr	r3, [pc, #252]	; 8b00 <ctx_switch_from_irq+0x190>
    8a00:	e5933000 	ldr	r3, [r3]
    8a04:	e5933014 	ldr	r3, [r3, #20]
    8a08:	e3530003 	cmp	r3, #3
    8a0c:	1a000014 	bne	8a64 <ctx_switch_from_irq+0xf4>
    8a10:	e59f30e8 	ldr	r3, [pc, #232]	; 8b00 <ctx_switch_from_irq+0x190>
    8a14:	e5933000 	ldr	r3, [r3]
    8a18:	e58d3004 	str	r3, [sp, #4]
    8a1c:	ea000002 	b	8a2c <ctx_switch_from_irq+0xbc>
    8a20:	e59d3004 	ldr	r3, [sp, #4]
    8a24:	e5933000 	ldr	r3, [r3]
    8a28:	e58d3004 	str	r3, [sp, #4]
    8a2c:	e59d3004 	ldr	r3, [sp, #4]
    8a30:	e5933000 	ldr	r3, [r3]
    8a34:	e5933014 	ldr	r3, [r3, #20]
    8a38:	e3530003 	cmp	r3, #3
    8a3c:	0afffff7 	beq	8a20 <ctx_switch_from_irq+0xb0>
    8a40:	e59d3004 	ldr	r3, [sp, #4]
    8a44:	e5932000 	ldr	r2, [r3]
    8a48:	e59f30b0 	ldr	r3, [pc, #176]	; 8b00 <ctx_switch_from_irq+0x190>
    8a4c:	e5832000 	str	r2, [r3]
    8a50:	ebffff3a 	bl	8740 <terminate_process>
    8a54:	ea000002 	b	8a64 <ctx_switch_from_irq+0xf4>
    8a58:	ebffff1a 	bl	86c8 <start_current_process>
    8a5c:	ebffff94 	bl	88b4 <elect>
    8a60:	ea000000 	b	8a68 <ctx_switch_from_irq+0xf8>
    8a64:	e1a00000 	nop			; (mov r0, r0)
    8a68:	e59f3090 	ldr	r3, [pc, #144]	; 8b00 <ctx_switch_from_irq+0x190>
    8a6c:	e5933000 	ldr	r3, [r3]
    8a70:	e5933014 	ldr	r3, [r3, #20]
    8a74:	e3530000 	cmp	r3, #0
    8a78:	0afffff6 	beq	8a58 <ctx_switch_from_irq+0xe8>
    8a7c:	e59f307c 	ldr	r3, [pc, #124]	; 8b00 <ctx_switch_from_irq+0x190>
    8a80:	e5933000 	ldr	r3, [r3]
    8a84:	e5933014 	ldr	r3, [r3, #20]
    8a88:	e3530001 	cmp	r3, #1
    8a8c:	1a000003 	bne	8aa0 <ctx_switch_from_irq+0x130>
    8a90:	e59f3068 	ldr	r3, [pc, #104]	; 8b00 <ctx_switch_from_irq+0x190>
    8a94:	e5933000 	ldr	r3, [r3]
    8a98:	e3a02002 	mov	r2, #2
    8a9c:	e5832014 	str	r2, [r3, #20]
    8aa0:	e59f3058 	ldr	r3, [pc, #88]	; 8b00 <ctx_switch_from_irq+0x190>
    8aa4:	e5933000 	ldr	r3, [r3]
    8aa8:	e5933010 	ldr	r3, [r3, #16]
    8aac:	e5933000 	ldr	r3, [r3]
    8ab0:	e1a0d003 	mov	sp, r3
    8ab4:	e59f3044 	ldr	r3, [pc, #68]	; 8b00 <ctx_switch_from_irq+0x190>
    8ab8:	e5933000 	ldr	r3, [r3]
    8abc:	e5933010 	ldr	r3, [r3, #16]
    8ac0:	e5933004 	ldr	r3, [r3, #4]
    8ac4:	e1a0e003 	mov	lr, r3
    8ac8:	e8bd1fff 	pop	{r0, r1, r2, r3, r4, r5, r6, r7, r8, r9, sl, fp, ip}
    8acc:	e92d0001 	push	{r0}
    8ad0:	e10f0000 	mrs	r0, CPSR
    8ad4:	e3c00080 	bic	r0, r0, #128	; 0x80
    8ad8:	e121f000 	msr	CPSR_c, r0
    8adc:	e8bd0001 	pop	{r0}
    8ae0:	e59f3018 	ldr	r3, [pc, #24]	; 8b00 <ctx_switch_from_irq+0x190>
    8ae4:	e5933000 	ldr	r3, [r3]
    8ae8:	e593301c 	ldr	r3, [r3, #28]
    8aec:	e1a00003 	mov	r0, r3
    8af0:	ebfffe1c 	bl	8368 <set_tick_and_enable_timer_TS>
    8af4:	f8bd0a00 	rfeia	sp!
    8af8:	e28dd00c 	add	sp, sp, #12
    8afc:	e8bd8000 	pop	{pc}
    8b00:	00008d94 	muleq	r0, r4, sp

00008b04 <ctx_switch>:
    8b04:	e59f3108 	ldr	r3, [pc, #264]	; 8c14 <ctx_switch+0x110>
    8b08:	e5933000 	ldr	r3, [r3]
    8b0c:	e5933014 	ldr	r3, [r3, #20]
    8b10:	e3530000 	cmp	r3, #0
    8b14:	1a000001 	bne	8b20 <ctx_switch+0x1c>
    8b18:	ebfffeea 	bl	86c8 <start_current_process>
    8b1c:	ea000021 	b	8ba8 <ctx_switch+0xa4>
    8b20:	e59f30ec 	ldr	r3, [pc, #236]	; 8c14 <ctx_switch+0x110>
    8b24:	e5933000 	ldr	r3, [r3]
    8b28:	e5933014 	ldr	r3, [r3, #20]
    8b2c:	e3530003 	cmp	r3, #3
    8b30:	1a00000c 	bne	8b68 <ctx_switch+0x64>
    8b34:	e59f30d8 	ldr	r3, [pc, #216]	; 8c14 <ctx_switch+0x110>
    8b38:	e5934000 	ldr	r4, [r3]
    8b3c:	ea000000 	b	8b44 <ctx_switch+0x40>
    8b40:	e5944000 	ldr	r4, [r4]
    8b44:	e5943000 	ldr	r3, [r4]
    8b48:	e5933014 	ldr	r3, [r3, #20]
    8b4c:	e3530003 	cmp	r3, #3
    8b50:	0afffffa 	beq	8b40 <ctx_switch+0x3c>
    8b54:	e5942000 	ldr	r2, [r4]
    8b58:	e59f30b4 	ldr	r3, [pc, #180]	; 8c14 <ctx_switch+0x110>
    8b5c:	e5832000 	str	r2, [r3]
    8b60:	ebfffef6 	bl	8740 <terminate_process>
    8b64:	ea00000f 	b	8ba8 <ctx_switch+0xa4>
    8b68:	e92d1fff 	push	{r0, r1, r2, r3, r4, r5, r6, r7, r8, r9, sl, fp, ip}
    8b6c:	e59f30a0 	ldr	r3, [pc, #160]	; 8c14 <ctx_switch+0x110>
    8b70:	e5933000 	ldr	r3, [r3]
    8b74:	e5933010 	ldr	r3, [r3, #16]
    8b78:	e1a0200d 	mov	r2, sp
    8b7c:	e5832000 	str	r2, [r3]
    8b80:	e59f308c 	ldr	r3, [pc, #140]	; 8c14 <ctx_switch+0x110>
    8b84:	e5933000 	ldr	r3, [r3]
    8b88:	e5933010 	ldr	r3, [r3, #16]
    8b8c:	e1a0200e 	mov	r2, lr
    8b90:	e5832004 	str	r2, [r3, #4]
    8b94:	e59f3078 	ldr	r3, [pc, #120]	; 8c14 <ctx_switch+0x110>
    8b98:	e5933000 	ldr	r3, [r3]
    8b9c:	e3a02001 	mov	r2, #1
    8ba0:	e5832014 	str	r2, [r3, #20]
    8ba4:	ebffff42 	bl	88b4 <elect>
    8ba8:	e59f3064 	ldr	r3, [pc, #100]	; 8c14 <ctx_switch+0x110>
    8bac:	e5933000 	ldr	r3, [r3]
    8bb0:	e5933014 	ldr	r3, [r3, #20]
    8bb4:	e3530000 	cmp	r3, #0
    8bb8:	1a000000 	bne	8bc0 <ctx_switch+0xbc>
    8bbc:	ebfffec1 	bl	86c8 <start_current_process>
    8bc0:	e59f304c 	ldr	r3, [pc, #76]	; 8c14 <ctx_switch+0x110>
    8bc4:	e5933000 	ldr	r3, [r3]
    8bc8:	e5933014 	ldr	r3, [r3, #20]
    8bcc:	e3530001 	cmp	r3, #1
    8bd0:	1a00000f 	bne	8c14 <ctx_switch+0x110>
    8bd4:	e59f3038 	ldr	r3, [pc, #56]	; 8c14 <ctx_switch+0x110>
    8bd8:	e5933000 	ldr	r3, [r3]
    8bdc:	e3a02002 	mov	r2, #2
    8be0:	e5832014 	str	r2, [r3, #20]
    8be4:	e59f3028 	ldr	r3, [pc, #40]	; 8c14 <ctx_switch+0x110>
    8be8:	e5933000 	ldr	r3, [r3]
    8bec:	e5933010 	ldr	r3, [r3, #16]
    8bf0:	e5933000 	ldr	r3, [r3]
    8bf4:	e1a0d003 	mov	sp, r3
    8bf8:	e59f3014 	ldr	r3, [pc, #20]	; 8c14 <ctx_switch+0x110>
    8bfc:	e5933000 	ldr	r3, [r3]
    8c00:	e5933010 	ldr	r3, [r3, #16]
    8c04:	e5933004 	ldr	r3, [r3, #4]
    8c08:	e1a0e003 	mov	lr, r3
    8c0c:	e8bd1fff 	pop	{r0, r1, r2, r3, r4, r5, r6, r7, r8, r9, sl, fp, ip}
    8c10:	e12fff1e 	bx	lr
    8c14:	00008d94 	muleq	r0, r4, sp

00008c18 <sys_reboot>:
    8c18:	e52de004 	push	{lr}		; (str lr, [sp, #-4]!)
    8c1c:	e92d0001 	push	{r0}
    8c20:	e10f0000 	mrs	r0, CPSR
    8c24:	e3800080 	orr	r0, r0, #128	; 0x80
    8c28:	e121f000 	msr	CPSR_c, r0
    8c2c:	e8bd0001 	pop	{r0}
    8c30:	e3a03001 	mov	r3, #1
    8c34:	e1a00003 	mov	r0, r3
    8c38:	ef000000 	svc	0x00000000
    8c3c:	e92d0001 	push	{r0}
    8c40:	e10f0000 	mrs	r0, CPSR
    8c44:	e3c00080 	bic	r0, r0, #128	; 0x80
    8c48:	e121f000 	msr	CPSR_c, r0
    8c4c:	e8bd0001 	pop	{r0}
    8c50:	e49df004 	pop	{pc}		; (ldr pc, [sp], #4)

00008c54 <sys_wait>:
    8c54:	e52de004 	push	{lr}		; (str lr, [sp, #-4]!)
    8c58:	e24dd00c 	sub	sp, sp, #12
    8c5c:	e58d0004 	str	r0, [sp, #4]
    8c60:	e92d0001 	push	{r0}
    8c64:	e10f0000 	mrs	r0, CPSR
    8c68:	e3800080 	orr	r0, r0, #128	; 0x80
    8c6c:	e121f000 	msr	CPSR_c, r0
    8c70:	e8bd0001 	pop	{r0}
    8c74:	e3a03002 	mov	r3, #2
    8c78:	e1a00003 	mov	r0, r3
    8c7c:	e59d3004 	ldr	r3, [sp, #4]
    8c80:	e1a01003 	mov	r1, r3
    8c84:	ef000000 	svc	0x00000000
    8c88:	e92d0001 	push	{r0}
    8c8c:	e10f0000 	mrs	r0, CPSR
    8c90:	e3c00080 	bic	r0, r0, #128	; 0x80
    8c94:	e121f000 	msr	CPSR_c, r0
    8c98:	e8bd0001 	pop	{r0}
    8c9c:	e28dd00c 	add	sp, sp, #12
    8ca0:	e8bd8000 	pop	{pc}

00008ca4 <doSysCallReboot>:
    8ca4:	e52de004 	push	{lr}		; (str lr, [sp, #-4]!)
    8ca8:	e24dd014 	sub	sp, sp, #20
    8cac:	e59f3048 	ldr	r3, [pc, #72]	; 8cfc <doSysCallReboot+0x58>
    8cb0:	e58d300c 	str	r3, [sp, #12]
    8cb4:	e59f3044 	ldr	r3, [pc, #68]	; 8d00 <doSysCallReboot+0x5c>
    8cb8:	e58d3008 	str	r3, [sp, #8]
    8cbc:	e3a0345a 	mov	r3, #1509949440	; 0x5a000000
    8cc0:	e58d3004 	str	r3, [sp, #4]
    8cc4:	e3a03020 	mov	r3, #32
    8cc8:	e58d3000 	str	r3, [sp]
    8ccc:	e59d3004 	ldr	r3, [sp, #4]
    8cd0:	e3833001 	orr	r3, r3, #1
    8cd4:	e59d0008 	ldr	r0, [sp, #8]
    8cd8:	e1a01003 	mov	r1, r3
    8cdc:	ebfffced 	bl	8098 <PUT32>
    8ce0:	e59d2004 	ldr	r2, [sp, #4]
    8ce4:	e59d3000 	ldr	r3, [sp]
    8ce8:	e1823003 	orr	r3, r2, r3
    8cec:	e59d000c 	ldr	r0, [sp, #12]
    8cf0:	e1a01003 	mov	r1, r3
    8cf4:	ebfffce7 	bl	8098 <PUT32>
    8cf8:	eafffffe 	b	8cf8 <doSysCallReboot+0x54>
    8cfc:	2010001c 	andscs	r0, r0, ip, lsl r0
    8d00:	20100024 	andscs	r0, r0, r4, lsr #32

00008d04 <doSysCallWait>:
    8d04:	e52d4004 	push	{r4}		; (str r4, [sp, #-4]!)
    8d08:	e24dd00c 	sub	sp, sp, #12
    8d0c:	e1a04001 	mov	r4, r1
    8d10:	e58d4004 	str	r4, [sp, #4]
    8d14:	e59f3018 	ldr	r3, [pc, #24]	; 8d34 <doSysCallWait+0x30>
    8d18:	e5933000 	ldr	r3, [r3]
    8d1c:	e59d2004 	ldr	r2, [sp, #4]
    8d20:	e2822001 	add	r2, r2, #1
    8d24:	e583200c 	str	r2, [r3, #12]
    8d28:	e28dd00c 	add	sp, sp, #12
    8d2c:	e8bd0010 	pop	{r4}
    8d30:	e12fff1e 	bx	lr
    8d34:	00008d94 	muleq	r0, r4, sp

00008d38 <SWIHandler>:
    8d38:	e92d4010 	push	{r4, lr}
    8d3c:	e24dd008 	sub	sp, sp, #8
    8d40:	e3a03000 	mov	r3, #0
    8d44:	e58d3004 	str	r3, [sp, #4]
    8d48:	e1a04000 	mov	r4, r0
    8d4c:	e58d4004 	str	r4, [sp, #4]
    8d50:	e59d3004 	ldr	r3, [sp, #4]
    8d54:	e3530001 	cmp	r3, #1
    8d58:	0a000002 	beq	8d68 <SWIHandler+0x30>
    8d5c:	e3530002 	cmp	r3, #2
    8d60:	0a000002 	beq	8d70 <SWIHandler+0x38>
    8d64:	ea000003 	b	8d78 <SWIHandler+0x40>
    8d68:	ebffffcd 	bl	8ca4 <doSysCallReboot>
    8d6c:	ea000001 	b	8d78 <SWIHandler+0x40>
    8d70:	ebffffe3 	bl	8d04 <doSysCallWait>
    8d74:	e1a00000 	nop			; (mov r0, r0)
    8d78:	e28dd008 	add	sp, sp, #8
    8d7c:	e8bd8010 	pop	{r4, pc}

Disassembly of section .bss:

00008d80 <freelist>:
    8d80:	00000000 	andeq	r0, r0, r0

00008d84 <top>:
    8d84:	00000000 	andeq	r0, r0, r0

00008d88 <heap_limit>:
    8d88:	00000000 	andeq	r0, r0, r0

00008d8c <CL>:
	...

00008d94 <current_process>:
    8d94:	00000000 	andeq	r0, r0, r0

Disassembly of section .ARM.attributes:

00000000 <.ARM.attributes>:
   0:	00003141 	andeq	r3, r0, r1, asr #2
   4:	61656100 	cmnvs	r5, r0, lsl #2
   8:	01006962 	tsteq	r0, r2, ror #18
   c:	00000027 	andeq	r0, r0, r7, lsr #32
  10:	005a3605 	subseq	r3, sl, r5, lsl #12
  14:	01080706 	tsteq	r8, r6, lsl #14
  18:	020a0109 	andeq	r0, sl, #1073741826	; 0x40000002
  1c:	01140412 	tsteq	r4, r2, lsl r4
  20:	03170115 	tsteq	r7, #1073741829	; 0x40000005
  24:	011a0118 	tsteq	sl, r8, lsl r1
  28:	011c031b 	tsteq	ip, fp, lsl r3
  2c:	012c0122 	teqeq	ip, r2, lsr #2
  30:	Address 0x0000000000000030 is out of bounds.


Disassembly of section .comment:

00000000 <.comment>:
   0:	3a434347 	bcc	10d0d24 <__bss_end+0x10c7f8c>
   4:	4e472820 	cdpmi	8, 4, cr2, cr7, cr0, {1}
   8:	34202955 	strtcc	r2, [r0], #-2389	; 0x955
   c:	312e372e 	teqcc	lr, lr, lsr #14
	...

Disassembly of section .debug_line:

00000000 <.debug_line>:
   0:	00000061 	andeq	r0, r0, r1, rrx
   4:	00200002 	eoreq	r0, r0, r2
   8:	01020000 	mrseq	r0, (UNDEF: 2)
   c:	000d0efb 	strdeq	r0, [sp], -fp
  10:	01010101 	tsteq	r1, r1, lsl #2
  14:	01000000 	mrseq	r0, (UNDEF: 0)
  18:	00010000 	andeq	r0, r1, r0
  1c:	74636576 	strbtvc	r6, [r3], #-1398	; 0x576
  20:	2e73726f 	cdpcs	2, 7, cr7, cr3, cr15, {3}
  24:	00000073 	andeq	r0, r0, r3, ror r0
  28:	05000000 	streq	r0, [r0, #-0]
  2c:	00800002 	addeq	r0, r0, r2
  30:	2f2f1900 	svccs	0x002f1900
  34:	2f2f2f2f 	svccs	0x002f2f2f
  38:	080b032f 	stmdaeq	fp, {r0, r1, r2, r3, r5, r8, r9}
  3c:	2f2f2f20 	svccs	0x002f2f20
  40:	2f322f2f 	svccs	0x00322f2f
  44:	2f2f322f 	svccs	0x002f322f
  48:	302f2f31 	eorcc	r2, pc, r1, lsr pc	; <UNPREDICTABLE>
  4c:	2f2f2f30 	svccs	0x002f2f30
  50:	2f322f2f 	svccs	0x00322f2f
  54:	2f322f32 	svccs	0x00322f32
  58:	2f322f32 	svccs	0x00322f32
  5c:	31303232 	teqcc	r0, r2, lsr r2
  60:	01000202 	tsteq	r0, r2, lsl #4
  64:	00005f01 	andeq	r5, r0, r1, lsl #30
  68:	2e000200 	cdpcs	2, 0, cr0, cr0, cr0, {0}
  6c:	02000000 	andeq	r0, r0, #0
  70:	0d0efb01 	vstreq	d15, [lr, #-4]
  74:	01010100 	mrseq	r0, (UNDEF: 17)
  78:	00000001 	andeq	r0, r0, r1
  7c:	01000001 	tsteq	r0, r1
  80:	72656b00 	rsbvc	r6, r5, #0
  84:	2e6c656e 	cdpcs	5, 6, cr6, cr12, cr14, {3}
  88:	00000063 	andeq	r0, r0, r3, rrx
  8c:	68637300 	stmdavs	r3!, {r8, r9, ip, sp, lr}^
  90:	505f6465 	subspl	r6, pc, r5, ror #8
  94:	682e5354 	stmdavs	lr!, {r2, r4, r6, r8, r9, ip, lr}
  98:	00000000 	andeq	r0, r0, r0
  9c:	02050000 	andeq	r0, r5, #0
  a0:	000080d0 	ldrdeq	r8, [r0], -r0
  a4:	2a6d2f16 	bcs	1b4bd04 <__bss_end+0x1b42f6c>
  a8:	4c4c8367 	mcrrmi	3, 6, r8, ip, cr7
  ac:	672a6c2f 	strvs	r6, [sl, -pc, lsr #24]!
  b0:	2f4d4c83 	svccs	0x004d4c83
  b4:	3280854b 	addcc	r8, r0, #314572800	; 0x12c00000
  b8:	9f2f2f68 	svcls	0x002f2f68
  bc:	02009f9f 	andeq	r9, r0, #636	; 0x27c
  c0:	022f0104 	eoreq	r0, pc, #1
  c4:	01010008 	tsteq	r1, r8
  c8:	00000059 	andeq	r0, r0, r9, asr r0
  cc:	00210002 	eoreq	r0, r1, r2
  d0:	01020000 	mrseq	r0, (UNDEF: 2)
  d4:	000d0efb 	strdeq	r0, [sp], -fp
  d8:	01010101 	tsteq	r1, r1, lsl #2
  dc:	01000000 	mrseq	r0, (UNDEF: 0)
  e0:	00010000 	andeq	r0, r1, r0
  e4:	41796870 	cmnmi	r9, r0, ror r8
  e8:	636f6c6c 	cmnvs	pc, #27648	; 0x6c00
  ec:	0000632e 	andeq	r6, r0, lr, lsr #6
  f0:	00000000 	andeq	r0, r0, r0
  f4:	81e40205 	mvnhi	r0, r5, lsl #4
  f8:	0c030000 	stceq	0, cr0, [r3], {-0}
  fc:	2f4c6701 	svccs	0x004c6701
 100:	02002f2f 	andeq	r2, r0, #188	; 0xbc
 104:	002c0104 	eoreq	r0, ip, r4, lsl #2
 108:	06020402 	streq	r0, [r2], -r2, lsl #8
 10c:	4b86064a 	blmi	fe181a3c <__bss_end+0xfe178ca4>
 110:	4cbbf44b 	cfldrsmi	mvf15, [fp], #300	; 0x12c
 114:	83da2f4c 	bicshi	r2, sl, #304	; 0x130
 118:	4b678330 	blmi	19e0de0 <__bss_end+0x19d8048>
 11c:	9f676786 	svcls	0x00676786
 120:	01000802 	tsteq	r0, r2, lsl #16
 124:	00005901 	andeq	r5, r0, r1, lsl #18
 128:	1b000200 	blne	930 <_start-0x76d0>
 12c:	02000000 	andeq	r0, r0, #0
 130:	0d0efb01 	vstreq	d15, [lr, #-4]
 134:	01010100 	mrseq	r0, (UNDEF: 17)
 138:	00000001 	andeq	r0, r0, r1
 13c:	01000001 	tsteq	r0, r1
 140:	2e776800 	cdpcs	8, 7, cr6, cr7, cr0, {0}
 144:	00000063 	andeq	r0, r0, r3, rrx
 148:	05000000 	streq	r0, [r0, #-0]
 14c:	00831c02 	addeq	r1, r3, r2, lsl #24
 150:	011e0300 	tsteq	lr, r0, lsl #6
 154:	6867674b 	stmdavs	r7!, {r0, r1, r3, r6, r8, r9, sl, sp, lr}^
 158:	6767a167 	strbvs	sl, [r7, -r7, ror #2]!
 15c:	673067f4 			; <UNDEFINED> instruction: 0x673067f4
 160:	67306730 			; <UNDEFINED> instruction: 0x67306730
 164:	03676830 	cmneq	r7, #3145728	; 0x300000
 168:	672f9e09 	strvs	r9, [pc, -r9, lsl #28]!
 16c:	51672f4e 	cmnpl	r7, lr, asr #30
 170:	6767674f 	strbvs	r6, [r7, -pc, asr #14]!
 174:	67676969 	strbvs	r6, [r7, -r9, ror #18]!
 178:	a068696a 	rsbge	r6, r8, sl, ror #18
 17c:	00100267 	andseq	r0, r0, r7, ror #4
 180:	00f60101 	rscseq	r0, r6, r1, lsl #2
 184:	00020000 	andeq	r0, r2, r0
 188:	00000031 	andeq	r0, r0, r1, lsr r0
 18c:	0efb0102 	cdpeq	1, 15, cr0, cr11, cr2, {0}
 190:	0101000d 	tsteq	r1, sp
 194:	00000101 	andeq	r0, r0, r1, lsl #2
 198:	00000100 	andeq	r0, r0, r0, lsl #2
 19c:	63730001 	cmnvs	r3, #1
 1a0:	5f646568 	svcpl	0x00646568
 1a4:	2e535450 	mrccs	4, 2, r5, cr3, cr0, {2}
 1a8:	00000063 	andeq	r0, r0, r3, rrx
 1ac:	68637300 	stmdavs	r3!, {r8, r9, ip, sp, lr}^
 1b0:	505f6465 	subspl	r6, pc, r5, ror #8
 1b4:	682e5354 	stmdavs	lr!, {r2, r4, r6, r8, r9, ip, lr}
 1b8:	00000000 	andeq	r0, r0, r0
 1bc:	02050000 	andeq	r0, r5, #0
 1c0:	000084fc 	strdeq	r8, [r0], -ip
 1c4:	bb9f9f17 	bllt	fe7e7e28 <__bss_end+0xfe7df090>
 1c8:	67bb4d67 	ldrvs	r4, [fp, r7, ror #26]!
 1cc:	83676767 	cmnhi	r7, #27000832	; 0x19c0000
 1d0:	4c676767 	stclmi	7, cr6, [r7], #-412	; 0xfffffe64
 1d4:	00d867bc 	ldrheq	r6, [r8], #124	; 0x7c
 1d8:	06010402 	streq	r0, [r1], -r2, lsl #8
 1dc:	c908069e 	stmdbgt	r8, {r1, r2, r3, r4, r7, r9, sl}
 1e0:	83856767 	orrhi	r6, r5, #27000832	; 0x19c0000
 1e4:	2f68a067 	svccs	0x0068a067
 1e8:	83839f9f 	orrhi	r9, r3, #636	; 0x27c
 1ec:	4b4c839f 	blmi	1321070 <__bss_end+0x13182d8>
 1f0:	a0673069 	rsbge	r3, r7, r9, rrx
 1f4:	0402007e 	streq	r0, [r2], #-126	; 0x7e
 1f8:	002e0601 	eoreq	r0, lr, r1, lsl #12
 1fc:	9e020402 	cdpls	4, 0, cr0, cr2, cr2, {0}
 200:	839fc106 	orrshi	ip, pc, #-2147483647	; 0x80000001
 204:	009fbbd7 			; <UNDEFINED> instruction: 0x009fbbd7
 208:	03010402 	movweq	r0, #5122	; 0x1402
 20c:	1c036673 	stcne	6, cr6, [r3], {115}	; 0x73
 210:	692f69ba 	stmdbvs	pc!, {r1, r3, r4, r5, r7, r8, fp, sp, lr}	; <UNPREDICTABLE>
 214:	9f67a184 	svcls	0x0067a184
 218:	a0684b68 	rsbge	r4, r8, r8, ror #22
 21c:	02009f30 	andeq	r9, r0, #192	; 0xc0
 220:	9e060104 	adflss	f0, f6, f4
 224:	2f689f06 	svccs	0x00689f06
 228:	689f9f83 	ldmvs	pc, {r0, r1, r7, r8, r9, sl, fp, ip, pc}	; <UNPREDICTABLE>
 22c:	2f2f9f4b 	svccs	0x002f9f4b
 230:	04020032 	streq	r0, [r2], #-50	; 0x32
 234:	06820601 	streq	r0, [r2], r1, lsl #12
 238:	9f9f2f9f 	svcls	0x009f2f9f
 23c:	679f2f84 	ldrvs	r2, [pc, r4, lsl #31]
 240:	0402002f 	streq	r0, [r2], #-47	; 0x2f
 244:	83a16501 			; <UNDEFINED> instruction: 0x83a16501
 248:	472f3030 			; <UNDEFINED> instruction: 0x472f3030
 24c:	01040200 	mrseq	r0, R12_usr
 250:	a3062e06 	movwge	r2, #28166	; 0x6e06
 254:	9f9f849f 	svcls	0x009f849f
 258:	2f9f9f30 	svccs	0x009f9f30
 25c:	4ba01369 	blmi	fe805008 <__bss_end+0xfe7fc270>
 260:	002f4b9f 	mlaeq	pc, pc, fp, r4	; <UNPREDICTABLE>
 264:	2d010402 	cfstrscs	mvf0, [r1, #-8]
 268:	2f4c6785 	svccs	0x004c6785
 26c:	30849f9f 	umullcc	r9, r4, pc, pc	; <UNPREDICTABLE>
 270:	839f30a0 	orrshi	r3, pc, #160	; 0xa0
 274:	022f9f9f 	eoreq	r9, pc, #636	; 0x27c
 278:	01010004 	tsteq	r1, r4
 27c:	00000067 	andeq	r0, r0, r7, rrx
 280:	002f0002 	eoreq	r0, pc, r2
 284:	01020000 	mrseq	r0, (UNDEF: 2)
 288:	000d0efb 	strdeq	r0, [sp], -fp
 28c:	01010101 	tsteq	r1, r1, lsl #2
 290:	01000000 	mrseq	r0, (UNDEF: 0)
 294:	00010000 	andeq	r0, r1, r0
 298:	63737973 	cmnvs	r3, #1884160	; 0x1cc000
 29c:	2e6c6c61 	cdpcs	12, 6, cr6, cr12, cr1, {3}
 2a0:	00000063 	andeq	r0, r0, r3, rrx
 2a4:	68637300 	stmdavs	r3!, {r8, r9, ip, sp, lr}^
 2a8:	505f6465 	subspl	r6, pc, r5, ror #8
 2ac:	682e5252 	stmdavs	lr!, {r1, r4, r6, r9, ip, lr}
 2b0:	00000000 	andeq	r0, r0, r0
 2b4:	02050000 	andeq	r0, r5, #0
 2b8:	00008c18 	andeq	r8, r0, r8, lsl ip
 2bc:	4b9f2f16 	blmi	fe7cbf1c <__bss_end+0xfe7c3184>
 2c0:	67309f2f 	ldrvs	r9, [r0, -pc, lsr #30]!
 2c4:	2f4b4b9f 	svccs	0x004b4b9f
 2c8:	4b4b4c9f 	blmi	12d354c <__bss_end+0x12ca7b4>
 2cc:	9f4b4b4b 	svcls	0x004b4b4b
 2d0:	01040200 	mrseq	r0, R12_usr
 2d4:	4b4c69bb 	blmi	131a9c8 <__bss_end+0x1311c30>
 2d8:	4b4b849f 	blmi	12e155c <__bss_end+0x12d87c4>
 2dc:	302fbc4b 	eorcc	fp, pc, fp, asr #24
 2e0:	0402302f 	streq	r3, [r2], #-47	; 0x2f
 2e4:	Address 0x00000000000002e4 is out of bounds.


Disassembly of section .debug_info:

00000000 <.debug_info>:
   0:	00000075 	andeq	r0, r0, r5, ror r0
   4:	00000002 	andeq	r0, r0, r2
   8:	01040000 	mrseq	r0, (UNDEF: 4)
   c:	00000000 	andeq	r0, r0, r0
  10:	00008000 	andeq	r8, r0, r0
  14:	000080d0 	ldrdeq	r8, [r0], -r0
  18:	74636576 	strbtvc	r6, [r3], #-1398	; 0x576
  1c:	2e73726f 	cdpcs	2, 7, cr7, cr3, cr15, {3}
  20:	682f0073 	stmdavs	pc!, {r0, r1, r4, r5, r6}	; <UNPREDICTABLE>
  24:	2f656d6f 	svccs	0x00656d6f
  28:	6d6f6376 	stclvs	3, cr6, [pc, #-472]!	; fffffe58 <__bss_end+0xffff70c0>
  2c:	442f6574 	strtmi	r6, [pc], #-1396	; 34 <_start-0x7fcc>
  30:	6d75636f 	ldclvs	3, cr6, [r5, #-444]!	; 0xfffffe44
  34:	73746e65 	cmnvc	r4, #1616	; 0x650
  38:	2d70542f 	cfldrdcs	mvd5, [r0, #-188]!	; 0xffffff44
  3c:	70736152 	rsbsvc	r6, r3, r2, asr r1
  40:	72726562 	rsbsvc	r6, r2, #411041792	; 0x18800000
  44:	736f2f79 	cmnvc	pc, #484	; 0x1e4
  48:	2d656970 	stclcs	9, cr6, [r5, #-448]!	; 0xfffffe40
  4c:	72617473 	rsbvc	r7, r1, #1929379840	; 0x73000000
  50:	69542f74 	ldmdbvs	r4, {r2, r4, r5, r6, r8, r9, sl, fp, sp}^
  54:	7320656d 	teqvc	r0, #457179136	; 0x1b400000
  58:	6563696c 	strbvs	r6, [r3, #-2412]!	; 0x96c
  5c:	2d734f2f 	ldclcs	15, cr4, [r3, #-188]!	; 0xffffff44
  60:	70736152 	rsbsvc	r6, r3, r2, asr r1
  64:	72656265 	rsbvc	r6, r5, #1342177286	; 0x50000006
  68:	47007972 	smlsdxmi	r0, r2, r9, r7
  6c:	4120554e 	teqmi	r0, lr, asr #10
  70:	2e322053 	mrccs	0, 1, r2, cr2, cr3, {2}
  74:	01003232 	tsteq	r0, r2, lsr r2
  78:	00021180 	andeq	r1, r2, r0, lsl #3
  7c:	14000200 	strne	r0, [r0], #-512	; 0x200
  80:	04000000 	streq	r0, [r0], #-0
  84:	00002c01 	andeq	r2, r0, r1, lsl #24
  88:	00ef0100 	rsceq	r0, pc, r0, lsl #2
  8c:	00450000 	subeq	r0, r5, r0
  90:	80d00000 	sbcshi	r0, r0, r0
  94:	81e40000 	mvnhi	r0, r0
  98:	00650000 	rsbeq	r0, r5, r0
  9c:	19020000 	stmdbne	r2, {}	; <UNPREDICTABLE>
  a0:	02000001 	andeq	r0, r0, #1
  a4:	00003005 	andeq	r3, r0, r5
  a8:	01190300 	tsteq	r9, r0, lsl #6
  ac:	02040000 	andeq	r0, r4, #0
  b0:	00005505 	andeq	r5, r0, r5, lsl #10
  b4:	454e0400 	strbmi	r0, [lr, #-1024]	; 0x400
  b8:	05000057 	streq	r0, [r0, #-87]	; 0x57
  bc:	0000003d 	andeq	r0, r0, sp, lsr r0
  c0:	00e70501 	rsceq	r0, r7, r1, lsl #10
  c4:	05020000 	streq	r0, [r2, #-0]
  c8:	000000c7 	andeq	r0, r0, r7, asr #1
  cc:	1d020003 	stcne	0, cr0, [r2, #-12]
  d0:	02000000 	andeq	r0, r0, #0
  d4:	00006007 	andeq	r6, r0, r7
  d8:	66040600 	strvs	r0, [r4], -r0, lsl #12
  dc:	07000000 	streq	r0, [r0, -r0]
  e0:	00e10801 	rsceq	r0, r1, r1, lsl #16
  e4:	020c0000 	andeq	r0, ip, #0
  e8:	00009d0e 	andeq	r9, r0, lr, lsl #26
  ec:	70730900 	rsbsvc	r0, r3, r0, lsl #18
  f0:	9d0f0200 	sfmls	f0, 4, [pc, #-0]	; f8 <_start-0x7f08>
  f4:	02000000 	andeq	r0, r0, #0
  f8:	70090023 	andvc	r0, r9, r3, lsr #32
  fc:	10020063 	andne	r0, r2, r3, rrx
 100:	0000009d 	muleq	r0, sp, r0
 104:	0a042302 	beq	108d14 <__bss_end+0xfff7c>
 108:	00000111 	andeq	r0, r0, r1, lsl r1
 10c:	009d1102 	addseq	r1, sp, r2, lsl #2
 110:	23020000 	movwcs	r0, #8192	; 0x2000
 114:	040b0008 	streq	r0, [fp], #-8
 118:	00010b08 	andeq	r0, r1, r8, lsl #22
 11c:	14022000 	strne	r2, [r2], #-0
 120:	0000011c 	andeq	r0, r0, ip, lsl r1
 124:	0000140a 	andeq	r1, r0, sl, lsl #8
 128:	1c150200 	lfmne	f0, 4, [r5], {-0}
 12c:	02000001 	andeq	r0, r0, #1
 130:	000a0023 	andeq	r0, sl, r3, lsr #32
 134:	02000000 	andeq	r0, r0, #0
 138:	00009d16 	andeq	r9, r0, r6, lsl sp
 13c:	04230200 	strteq	r0, [r3], #-512	; 0x200
 140:	00009d0a 	andeq	r9, r0, sl, lsl #26
 144:	55170200 	ldrpl	r0, [r7, #-512]	; 0x200
 148:	02000000 	andeq	r0, r0, #0
 14c:	fe0a0823 	cdp2	8, 0, cr0, cr10, cr3, {1}
 150:	02000000 	andeq	r0, r0, #0
 154:	00012218 	andeq	r2, r1, r8, lsl r2
 158:	0c230200 	sfmeq	f0, 4, [r3], #-0
 15c:	00011f0a 	andeq	r1, r1, sl, lsl #30
 160:	29190200 	ldmdbcs	r9, {r9}
 164:	02000001 	andeq	r0, r0, #1
 168:	f80a1023 			; <UNDEFINED> instruction: 0xf80a1023
 16c:	02000000 	andeq	r0, r0, #0
 170:	0000251a 	andeq	r2, r0, sl, lsl r5
 174:	14230200 	strtne	r0, [r3], #-512	; 0x200
 178:	0000b20a 	andeq	fp, r0, sl, lsl #4
 17c:	9d1b0200 	lfmls	f0, 4, [fp, #-0]
 180:	02000000 	andeq	r0, r0, #0
 184:	a90a1823 	stmdbge	sl, {r0, r1, r5, fp, ip}
 188:	02000000 	andeq	r0, r0, #0
 18c:	00012f1c 	andeq	r2, r1, ip, lsl pc
 190:	1c230200 	sfmne	f0, 4, [r3], #-0
 194:	9f040600 	svcls	0x00040600
 198:	0c000000 	stceq	0, cr0, [r0], {-0}
 19c:	01ca0704 	biceq	r0, sl, r4, lsl #14
 1a0:	04060000 	streq	r0, [r6], #-0
 1a4:	00000068 	andeq	r0, r0, r8, rrx
 1a8:	6905040d 	stmdbvs	r5, {r0, r2, r3, sl}
 1ac:	0800746e 	stmdaeq	r0, {r1, r2, r3, r5, r6, sl, ip, sp, lr}
 1b0:	000000ba 	strheq	r0, [r0], -sl
 1b4:	5f1f0208 	svcpl	0x001f0208
 1b8:	0a000001 	beq	1c4 <_start-0x7e3c>
 1bc:	00000093 	muleq	r0, r3, r0
 1c0:	011c2002 	tsteq	ip, r2
 1c4:	23020000 	movwcs	r0, #8192	; 0x2000
 1c8:	00d20a00 	sbcseq	r0, r2, r0, lsl #20
 1cc:	21020000 	mrscs	r0, (UNDEF: 2)
 1d0:	0000011c 	andeq	r0, r0, ip, lsl r1
 1d4:	00042302 	andeq	r2, r4, r2, lsl #6
 1d8:	00a3010e 	adceq	r0, r3, lr, lsl #2
 1dc:	05010000 	streq	r0, [r1, #-0]
 1e0:	000080d0 	ldrdeq	r8, [r0], -r0
 1e4:	00008110 	andeq	r8, r0, r0, lsl r1
 1e8:	00000000 	andeq	r0, r0, r0
 1ec:	00018701 	andeq	r8, r1, r1, lsl #14
 1f0:	008e0f00 	addeq	r0, lr, r0, lsl #30
 1f4:	06010000 	streq	r0, [r1], -r0
 1f8:	0000012f 	andeq	r0, r0, pc, lsr #2
 1fc:	007c9102 	rsbseq	r9, ip, r2, lsl #2
 200:	00db010e 	sbcseq	r0, fp, lr, lsl #2
 204:	0f010000 	svceq	0x00010000
 208:	00008110 	andeq	r8, r0, r0, lsl r1
 20c:	00008150 	andeq	r8, r0, r0, asr r1
 210:	00000020 	andeq	r0, r0, r0, lsr #32
 214:	0001af01 	andeq	sl, r1, r1, lsl #30
 218:	000f0f00 	andeq	r0, pc, r0, lsl #30
 21c:	10010000 	andne	r0, r1, r0
 220:	0000012f 	andeq	r0, r0, pc, lsr #2
 224:	007c9102 	rsbseq	r9, ip, r2, lsl #2
 228:	0025010e 	eoreq	r0, r5, lr, lsl #2
 22c:	19010000 	stmdbne	r1, {}	; <UNPREDICTABLE>
 230:	00008150 	andeq	r8, r0, r0, asr r1
 234:	0000818c 	andeq	r8, r0, ip, lsl #3
 238:	00000040 	andeq	r0, r0, r0, asr #32
 23c:	0001d701 	andeq	sp, r1, r1, lsl #14
 240:	00380f00 	eorseq	r0, r8, r0, lsl #30
 244:	1a010000 	bne	4024c <__bss_end+0x374b4>
 248:	0000012f 	andeq	r0, r0, pc, lsr #2
 24c:	007c9102 	rsbseq	r9, ip, r2, lsl #2
 250:	00090110 	andeq	r0, r9, r0, lsl r1
 254:	22010000 	andcs	r0, r1, #0
 258:	00012f01 	andeq	r2, r1, r1, lsl #30
 25c:	00818c00 	addeq	r8, r1, r0, lsl #24
 260:	0081e400 	addeq	lr, r1, r0, lsl #8
 264:	00006000 	andeq	r6, r0, r0
 268:	5d110100 	ldfpls	f0, [r1, #-0]
 26c:	02000002 	andeq	r0, r0, #2
 270:	00011c24 	andeq	r1, r1, r4, lsr #24
 274:	03050100 	movweq	r0, #20736	; 0x5100
 278:	00008d94 	muleq	r0, r4, sp
 27c:	004c4312 	subeq	r4, ip, r2, lsl r3
 280:	01362502 	teqeq	r6, r2, lsl #10
 284:	05010000 	streq	r0, [r1, #-0]
 288:	008d8c03 	addeq	r8, sp, r3, lsl #24
 28c:	015e0000 	cmpeq	lr, r0
 290:	00020000 	andeq	r0, r2, r0
 294:	00000113 	andeq	r0, r0, r3, lsl r1
 298:	002c0104 	eoreq	r0, ip, r4, lsl #2
 29c:	27010000 	strcs	r0, [r1, -r0]
 2a0:	45000001 	strmi	r0, [r0, #-1]
 2a4:	e4000000 	str	r0, [r0], #-0
 2a8:	1c000081 	stcne	0, cr0, [r0], {129}	; 0x81
 2ac:	c8000083 	stmdagt	r0, {r0, r1, r7}
 2b0:	02000000 	andeq	r0, r0, #0
 2b4:	08006c66 	stmdaeq	r0, {r1, r2, r5, r6, sl, fp, sp, lr}
 2b8:	004d0301 	subeq	r0, sp, r1, lsl #6
 2bc:	59030000 	stmdbpl	r3, {}	; <UNPREDICTABLE>
 2c0:	01000001 	tsteq	r0, r1
 2c4:	00004d04 	andeq	r4, r0, r4, lsl #26
 2c8:	00230200 	eoreq	r0, r3, r0, lsl #4
 2cc:	00028a03 	andeq	r8, r2, r3, lsl #20
 2d0:	53050100 	movwpl	r0, #20736	; 0x5100
 2d4:	02000000 	andeq	r0, r0, #0
 2d8:	04000423 	streq	r0, [r0], #-1059	; 0x423
 2dc:	00002504 	andeq	r2, r0, r4, lsl #10
 2e0:	07040500 	streq	r0, [r4, -r0, lsl #10]
 2e4:	000001ca 	andeq	r0, r0, sl, asr #3
 2e8:	015e0106 	cmpeq	lr, r6, lsl #2
 2ec:	0c010000 	stceq	0, cr0, [r1], {-0}
 2f0:	00009f01 	andeq	r9, r0, r1, lsl #30
 2f4:	0081e400 	addeq	lr, r1, r0, lsl #8
 2f8:	00829800 	addeq	r9, r2, r0, lsl #16
 2fc:	00008000 	andeq	r8, r0, r0
 300:	009f0100 	addseq	r0, pc, r0, lsl #2
 304:	8a070000 	bhi	1c030c <__bss_end+0x1b7574>
 308:	01000002 	tsteq	r0, r2
 30c:	0000530c 	andeq	r5, r0, ip, lsl #6
 310:	74910200 	ldrvc	r0, [r1], #512	; 0x200
 314:	01006608 	tsteq	r0, r8, lsl #12
 318:	00004d0e 	andeq	r4, r0, lr, lsl #26
 31c:	09540100 	ldmdbeq	r4, {r8}^
 320:	00000132 	andeq	r0, r0, r2, lsr r1
 324:	00a10e01 	adceq	r0, r1, r1, lsl #28
 328:	55010000 	strpl	r0, [r1, #-0]
 32c:	04040a00 	streq	r0, [r4], #-2560	; 0xa00
 330:	00004d04 	andeq	r4, r0, r4, lsl #26
 334:	40010b00 	andmi	r0, r1, r0, lsl #22
 338:	01000001 	tsteq	r0, r1
 33c:	82980122 	addshi	r0, r8, #-2147483640	; 0x80000008
 340:	82e00000 	rschi	r0, r0, #0
 344:	00ac0000 	adceq	r0, ip, r0
 348:	e9010000 	stmdb	r1, {}	; <UNPREDICTABLE>
 34c:	0c000000 	stceq	0, cr0, [r0], {-0}
 350:	00727470 	rsbseq	r7, r2, r0, ror r4
 354:	009f2201 	addseq	r2, pc, r1, lsl #4
 358:	91020000 	mrsls	r0, (UNDEF: 2)
 35c:	028a0774 	addeq	r0, sl, #30408704	; 0x1d00000
 360:	22010000 	andcs	r0, r1, #0
 364:	00000053 	andeq	r0, r0, r3, asr r0
 368:	08709102 	ldmdaeq	r0!, {r1, r8, ip, pc}^
 36c:	24010066 	strcs	r0, [r1], #-102	; 0x66
 370:	0000004d 	andeq	r0, r0, sp, asr #32
 374:	0b005401 	bleq	15380 <__bss_end+0xc5e8>
 378:	00016d01 	andeq	r6, r1, r1, lsl #26
 37c:	012c0100 	teqeq	ip, r0, lsl #2
 380:	000082e0 	andeq	r8, r0, r0, ror #5
 384:	0000831c 	andeq	r8, r0, ip, lsl r3
 388:	000000d8 	ldrdeq	r0, [r0], -r8
 38c:	00012001 	andeq	r2, r1, r1
 390:	014e0700 	cmpeq	lr, r0, lsl #14
 394:	2c010000 	stccs	0, cr0, [r1], {-0}
 398:	00000120 	andeq	r0, r0, r0, lsr #2
 39c:	077c9102 	ldrbeq	r9, [ip, -r2, lsl #2]!
 3a0:	00000186 	andeq	r0, r0, r6, lsl #3
 3a4:	00532c01 	subseq	r2, r3, r1, lsl #24
 3a8:	91020000 	mrsls	r0, (UNDEF: 2)
 3ac:	04040078 	streq	r0, [r4], #-120	; 0x78
 3b0:	00000126 	andeq	r0, r0, r6, lsr #2
 3b4:	99080105 	stmdbls	r8, {r0, r2, r8}
 3b8:	08000001 	stmdaeq	r0, {r0}
 3bc:	00706f74 	rsbseq	r6, r0, r4, ror pc
 3c0:	01200801 	teqeq	r0, r1, lsl #16
 3c4:	03050000 	movweq	r0, #20480	; 0x5000
 3c8:	00008d84 	andeq	r8, r0, r4, lsl #27
 3cc:	00017b09 	andeq	r7, r1, r9, lsl #22
 3d0:	20090100 	andcs	r0, r9, r0, lsl #2
 3d4:	05000001 	streq	r0, [r0, #-1]
 3d8:	008d8803 	addeq	r8, sp, r3, lsl #16
 3dc:	01370d00 	teqeq	r7, r0, lsl #26
 3e0:	06010000 	streq	r0, [r1], -r0
 3e4:	0000004d 	andeq	r0, r0, sp, asr #32
 3e8:	80030501 	andhi	r0, r3, r1, lsl #10
 3ec:	0000008d 	andeq	r0, r0, sp, lsl #1
 3f0:	000000f5 	strdeq	r0, [r0], -r5
 3f4:	01e30002 	mvneq	r0, r2
 3f8:	01040000 	mrseq	r0, (UNDEF: 4)
 3fc:	0000002c 	andeq	r0, r0, ip, lsr #32
 400:	00019e01 	andeq	r9, r1, r1, lsl #28
 404:	00004500 	andeq	r4, r0, r0, lsl #10
 408:	00831c00 	addeq	r1, r3, r0, lsl #24
 40c:	0084fc00 	addeq	pc, r4, r0, lsl #24
 410:	00012500 	andeq	r2, r1, r0, lsl #10
 414:	07020200 	streq	r0, [r2, -r0, lsl #4]
 418:	000001c4 	andeq	r0, r0, r4, asr #3
 41c:	ca070402 	bgt	1c142c <__bss_end+0x1b8694>
 420:	02000001 	andeq	r0, r0, #1
 424:	01900801 	orrseq	r0, r0, r1, lsl #16
 428:	01030000 	mrseq	r0, (UNDEF: 3)
 42c:	000001aa 	andeq	r0, r0, sl, lsr #3
 430:	831c1e01 	tsthi	ip, #16
 434:	83680000 	cmnhi	r8, #0
 438:	00f80000 	rscseq	r0, r8, r0
 43c:	61010000 	mrsvs	r0, (UNDEF: 1)
 440:	04000000 	streq	r0, [r0], #-0
 444:	01007872 	tsteq	r0, r2, ror r8
 448:	00002c20 	andeq	r2, r0, r0, lsr #24
 44c:	74910200 	ldrvc	r0, [r1], #512	; 0x200
 450:	df010500 	svcle	0x00010500
 454:	01000001 	tsteq	r0, r1
 458:	83680127 	cmnhi	r8, #-1073741815	; 0xc0000009
 45c:	840c0000 	strhi	r0, [ip], #-0
 460:	01240000 	teqeq	r4, r0
 464:	97010000 	strls	r0, [r1, -r0]
 468:	06000000 	streq	r0, [r0], -r0
 46c:	000000a9 	andeq	r0, r0, r9, lsr #1
 470:	00972701 	addseq	r2, r7, r1, lsl #14
 474:	91020000 	mrsls	r0, (UNDEF: 2)
 478:	7872046c 	ldmdavc	r2!, {r2, r3, r5, r6, sl}^
 47c:	2c290100 	stfcss	f0, [r9], #-0
 480:	02000000 	andeq	r0, r0, #0
 484:	07007491 			; <UNDEFINED> instruction: 0x07007491
 488:	6e690504 	cdpvs	5, 6, cr0, cr9, cr4, {0}
 48c:	01080074 	tsteq	r8, r4, ror r0
 490:	000001fc 	strdeq	r0, [r0], -ip
 494:	840c4301 	strhi	r4, [ip], #-769	; 0x301
 498:	84240000 	strthi	r0, [r4], #-0
 49c:	01500000 	cmpeq	r0, r0
 4a0:	08010000 	stmdaeq	r1, {}	; <UNPREDICTABLE>
 4a4:	0001a301 	andeq	sl, r1, r1, lsl #6
 4a8:	24490100 	strbcs	r0, [r9], #-256	; 0x100
 4ac:	3c000084 	stccc	0, cr0, [r0], {132}	; 0x84
 4b0:	70000084 	andvc	r0, r0, r4, lsl #1
 4b4:	01000001 	tsteq	r0, r1
 4b8:	01d70109 	bicseq	r0, r7, r9, lsl #2
 4bc:	52010000 	andpl	r0, r1, #0
 4c0:	0000843c 	andeq	r8, r0, ip, lsr r4
 4c4:	000084fc 	strdeq	r8, [r0], -ip
 4c8:	00000190 	muleq	r0, r0, r1
 4cc:	61720401 	cmnvs	r2, r1, lsl #8
 4d0:	2c540100 	ldfcse	f0, [r4], {-0}
 4d4:	02000000 	andeq	r0, r0, #0
 4d8:	72047491 	andvc	r7, r4, #-1862270976	; 0x91000000
 4dc:	55010078 	strpl	r0, [r1, #-120]	; 0x78
 4e0:	0000002c 	andeq	r0, r0, ip, lsr #32
 4e4:	00709102 	rsbseq	r9, r0, r2, lsl #2
 4e8:	00039600 	andeq	r9, r3, r0, lsl #12
 4ec:	89000200 	stmdbhi	r0, {r9}
 4f0:	04000002 	streq	r0, [r0], #-2
 4f4:	00002c01 	andeq	r2, r0, r1, lsl #24
 4f8:	02200100 	eoreq	r0, r0, #0
 4fc:	00450000 	subeq	r0, r5, r0
 500:	84fc0000 	ldrbthi	r0, [ip], #0
 504:	8c180000 	ldchi	0, cr0, [r8], {-0}
 508:	01820000 	orreq	r0, r2, r0
 50c:	19020000 	stmdbne	r2, {}	; <UNPREDICTABLE>
 510:	02000001 	andeq	r0, r0, #1
 514:	00003005 	andeq	r3, r0, r5
 518:	01190300 	tsteq	r9, r0, lsl #6
 51c:	02040000 	andeq	r0, r4, #0
 520:	00005505 	andeq	r5, r0, r5, lsl #10
 524:	454e0400 	strbmi	r0, [lr, #-1024]	; 0x400
 528:	05000057 	streq	r0, [r0, #-87]	; 0x57
 52c:	0000003d 	andeq	r0, r0, sp, lsr r0
 530:	00e70501 	rsceq	r0, r7, r1, lsl #10
 534:	05020000 	streq	r0, [r2, #-0]
 538:	000000c7 	andeq	r0, r0, r7, asr #1
 53c:	1d020003 	stcne	0, cr0, [r2, #-12]
 540:	02000000 	andeq	r0, r0, #0
 544:	00006007 	andeq	r6, r0, r7
 548:	66040600 	strvs	r0, [r4], -r0, lsl #12
 54c:	07000000 	streq	r0, [r0, -r0]
 550:	00e10801 	rsceq	r0, r1, r1, lsl #16
 554:	020c0000 	andeq	r0, ip, #0
 558:	00009d0e 	andeq	r9, r0, lr, lsl #26
 55c:	70730900 	rsbsvc	r0, r3, r0, lsl #18
 560:	9d0f0200 	sfmls	f0, 4, [pc, #-0]	; 568 <_start-0x7a98>
 564:	02000000 	andeq	r0, r0, #0
 568:	70090023 	andvc	r0, r9, r3, lsr #32
 56c:	10020063 	andne	r0, r2, r3, rrx
 570:	0000009d 	muleq	r0, sp, r0
 574:	0a042302 	beq	109184 <__bss_end+0x1003ec>
 578:	00000111 	andeq	r0, r0, r1, lsl r1
 57c:	009d1102 	addseq	r1, sp, r2, lsl #2
 580:	23020000 	movwcs	r0, #8192	; 0x2000
 584:	040b0008 	streq	r0, [fp], #-8
 588:	00010b08 	andeq	r0, r1, r8, lsl #22
 58c:	14022000 	strne	r2, [r2], #-0
 590:	0000011c 	andeq	r0, r0, ip, lsl r1
 594:	0000140a 	andeq	r1, r0, sl, lsl #8
 598:	1c150200 	lfmne	f0, 4, [r5], {-0}
 59c:	02000001 	andeq	r0, r0, #1
 5a0:	000a0023 	andeq	r0, sl, r3, lsr #32
 5a4:	02000000 	andeq	r0, r0, #0
 5a8:	00009d16 	andeq	r9, r0, r6, lsl sp
 5ac:	04230200 	strteq	r0, [r3], #-512	; 0x200
 5b0:	00009d0a 	andeq	r9, r0, sl, lsl #26
 5b4:	55170200 	ldrpl	r0, [r7, #-512]	; 0x200
 5b8:	02000000 	andeq	r0, r0, #0
 5bc:	fe0a0823 	cdp2	8, 0, cr0, cr10, cr3, {1}
 5c0:	02000000 	andeq	r0, r0, #0
 5c4:	00012218 	andeq	r2, r1, r8, lsl r2
 5c8:	0c230200 	sfmeq	f0, 4, [r3], #-0
 5cc:	00011f0a 	andeq	r1, r1, sl, lsl #30
 5d0:	29190200 	ldmdbcs	r9, {r9}
 5d4:	02000001 	andeq	r0, r0, #1
 5d8:	f80a1023 			; <UNDEFINED> instruction: 0xf80a1023
 5dc:	02000000 	andeq	r0, r0, #0
 5e0:	0000251a 	andeq	r2, r0, sl, lsl r5
 5e4:	14230200 	strtne	r0, [r3], #-512	; 0x200
 5e8:	0000b20a 	andeq	fp, r0, sl, lsl #4
 5ec:	9d1b0200 	lfmls	f0, 4, [fp, #-0]
 5f0:	02000000 	andeq	r0, r0, #0
 5f4:	a90a1823 	stmdbge	sl, {r0, r1, r5, fp, ip}
 5f8:	02000000 	andeq	r0, r0, #0
 5fc:	00012f1c 	andeq	r2, r1, ip, lsl pc
 600:	1c230200 	sfmne	f0, 4, [r3], #-0
 604:	9f040600 	svcls	0x00040600
 608:	0c000000 	stceq	0, cr0, [r0], {-0}
 60c:	01ca0704 	biceq	r0, sl, r4, lsl #14
 610:	04060000 	streq	r0, [r6], #-0
 614:	00000068 	andeq	r0, r0, r8, rrx
 618:	6905040d 	stmdbvs	r5, {r0, r2, r3, sl}
 61c:	0800746e 	stmdaeq	r0, {r1, r2, r3, r5, r6, sl, ip, sp, lr}
 620:	000000ba 	strheq	r0, [r0], -sl
 624:	5f1f0208 	svcpl	0x001f0208
 628:	0a000001 	beq	634 <_start-0x79cc>
 62c:	00000093 	muleq	r0, r3, r0
 630:	011c2002 	tsteq	ip, r2
 634:	23020000 	movwcs	r0, #8192	; 0x2000
 638:	00d20a00 	sbcseq	r0, r2, r0, lsl #20
 63c:	21020000 	mrscs	r0, (UNDEF: 2)
 640:	0000011c 	andeq	r0, r0, ip, lsl r1
 644:	00042302 	andeq	r2, r4, r2, lsl #6
 648:	022c010e 	eoreq	r0, ip, #-2147483645	; 0x80000003
 64c:	06010000 	streq	r0, [r1], -r0
 650:	0084fc01 	addeq	pc, r4, r1, lsl #24
 654:	00855000 	addeq	r5, r5, r0
 658:	0001bc00 	andeq	fp, r1, r0, lsl #24
 65c:	01a20100 			; <UNDEFINED> instruction: 0x01a20100
 660:	6d0f0000 	stcvs	0, cr0, [pc, #-0]	; 668 <_start-0x7998>
 664:	01000002 	tsteq	r0, r2
 668:	00012906 	andeq	r2, r1, r6, lsl #18
 66c:	74910200 	ldrvc	r0, [r1], #512	; 0x200
 670:	01006610 	tsteq	r0, r0, lsl r6
 674:	00005506 	andeq	r5, r0, r6, lsl #10
 678:	70910200 	addsvc	r0, r1, r0, lsl #4
 67c:	00028a0f 	andeq	r8, r2, pc, lsl #20
 680:	22060100 	andcs	r0, r6, #0
 684:	02000001 	andeq	r0, r0, #1
 688:	0e006c91 	mcreq	12, 0, r6, cr0, cr1, {4}
 68c:	0002a101 	andeq	sl, r2, r1, lsl #2
 690:	010d0100 	mrseq	r0, (UNDEF: 29)
 694:	00008550 	andeq	r8, r0, r0, asr r5
 698:	000085d4 	ldrdeq	r8, [r0], -r4
 69c:	000001e8 	andeq	r0, r0, r8, ror #3
 6a0:	00020f01 	andeq	r0, r2, r1, lsl #30
 6a4:	63701000 	cmnvs	r0, #0
 6a8:	0d010062 	stceq	0, cr0, [r1, #-392]	; 0xfffffe78
 6ac:	0000011c 	andeq	r0, r0, ip, lsl r1
 6b0:	106c9102 	rsbne	r9, ip, r2, lsl #2
 6b4:	0d010066 	stceq	0, cr0, [r1, #-408]	; 0xfffffe68
 6b8:	00000055 	andeq	r0, r0, r5, asr r0
 6bc:	0f689102 	svceq	0x00689102
 6c0:	0000028a 	andeq	r0, r0, sl, lsl #5
 6c4:	01220d01 	teqeq	r2, r1, lsl #26
 6c8:	91020000 	mrsls	r0, (UNDEF: 2)
 6cc:	00040f64 	andeq	r0, r4, r4, ror #30
 6d0:	0d010000 	stceq	0, cr0, [r1, #-0]
 6d4:	0000009d 	muleq	r0, sp, r0
 6d8:	0f609102 	svceq	0x00609102
 6dc:	000000a9 	andeq	r0, r0, r9, lsr #1
 6e0:	012f0d01 	teqeq	pc, r1, lsl #26
 6e4:	91020000 	mrsls	r0, (UNDEF: 2)
 6e8:	74631100 	strbtvc	r1, [r3], #-256	; 0x100
 6ec:	10010078 	andne	r0, r1, r8, ror r0
 6f0:	00000129 	andeq	r0, r0, r9, lsr #2
 6f4:	00749102 	rsbseq	r9, r4, r2, lsl #2
 6f8:	02aa010e 	adceq	r0, sl, #-2147483645	; 0x80000003
 6fc:	18010000 	stmdane	r1, {}	; <UNPREDICTABLE>
 700:	0085d401 	addeq	sp, r5, r1, lsl #8
 704:	0086c800 	addeq	ip, r6, r0, lsl #16
 708:	00021400 	andeq	r1, r2, r0, lsl #8
 70c:	026e0100 	rsbeq	r0, lr, #0
 710:	66100000 	ldrvs	r0, [r0], -r0
 714:	55180100 	ldrpl	r0, [r8, #-256]	; 0x100
 718:	02000000 	andeq	r0, r0, #0
 71c:	040f6c91 	streq	r6, [pc], #-3217	; 724 <_start-0x78dc>
 720:	01000000 	mrseq	r0, (UNDEF: 0)
 724:	00009d18 	andeq	r9, r0, r8, lsl sp
 728:	68910200 	ldmvs	r1, {r9}
 72c:	0002840f 	andeq	r8, r2, pc, lsl #8
 730:	22180100 	andscs	r0, r8, #0
 734:	02000001 	andeq	r0, r0, #1
 738:	a90f6491 	stmdbge	pc, {r0, r4, r7, sl, sp, lr}	; <UNPREDICTABLE>
 73c:	01000000 	mrseq	r0, (UNDEF: 0)
 740:	00012f18 	andeq	r2, r1, r8, lsl pc
 744:	60910200 	addsvs	r0, r1, r0, lsl #4
 748:	00023512 	andeq	r3, r2, r2, lsl r5
 74c:	1c1a0100 	ldfnes	f0, [sl], {-0}
 750:	02000001 	andeq	r0, r0, #1
 754:	13007491 	movwne	r7, #1169	; 0x491
 758:	00025701 	andeq	r5, r2, r1, lsl #14
 75c:	c8290100 	stmdagt	r9!, {r8}
 760:	40000086 	andmi	r0, r0, r6, lsl #1
 764:	40000087 	andmi	r0, r0, r7, lsl #1
 768:	01000002 	tsteq	r0, r2
 76c:	028f0114 	addeq	r0, pc, #5
 770:	32010000 	andcc	r0, r1, #0
 774:	00008740 	andeq	r8, r0, r0, asr #14
 778:	00008854 	andeq	r8, r0, r4, asr r8
 77c:	00000260 	andeq	r0, r0, r0, ror #4
 780:	0002b901 	andeq	fp, r2, r1, lsl #18
 784:	02041200 	andeq	r1, r4, #0
 788:	33010000 	movwcc	r0, #4096	; 0x1000
 78c:	0000011c 	andeq	r0, r0, ip, lsl r1
 790:	11749102 	cmnne	r4, r2, lsl #2
 794:	00706d74 	rsbseq	r6, r0, r4, ror sp
 798:	011c3401 	tsteq	ip, r1, lsl #8
 79c:	91020000 	mrsls	r0, (UNDEF: 2)
 7a0:	01150070 	tsteq	r5, r0, ror r0
 7a4:	00000275 	andeq	r0, r0, r5, ror r2
 7a8:	88545401 	ldmdahi	r4, {r0, sl, ip, lr}^
 7ac:	88b40000 	ldmhi	r4!, {}	; <UNPREDICTABLE>
 7b0:	028c0000 	addeq	r0, ip, #0
 7b4:	e1010000 	mrs	r0, (UNDEF: 1)
 7b8:	11000002 	tstne	r0, r2
 7bc:	00706d74 	rsbseq	r6, r0, r4, ror sp
 7c0:	011c5601 	tsteq	ip, r1, lsl #12
 7c4:	91020000 	mrsls	r0, (UNDEF: 2)
 7c8:	0114007c 	tsteq	r4, ip, ror r0
 7cc:	00000251 	andeq	r0, r0, r1, asr r2
 7d0:	88b46201 	ldmhi	r4!, {r0, r9, sp, lr}
 7d4:	89280000 	stmdbhi	r8!, {}	; <UNPREDICTABLE>
 7d8:	02ac0000 	adceq	r0, ip, #0
 7dc:	09010000 	stmdbeq	r1, {}	; <UNPREDICTABLE>
 7e0:	11000003 	tstne	r0, r3
 7e4:	00706d74 	rsbseq	r6, r0, r4, ror sp
 7e8:	011c6301 	tsteq	ip, r1, lsl #6
 7ec:	91020000 	mrsls	r0, (UNDEF: 2)
 7f0:	01130074 	tsteq	r3, r4, ror r0
 7f4:	00000209 	andeq	r0, r0, r9, lsl #4
 7f8:	89286d01 	stmdbhi	r8!, {r0, r8, sl, fp, sp, lr}
 7fc:	89700000 	ldmdbhi	r0!, {}^	; <UNPREDICTABLE>
 800:	02d80000 	sbcseq	r0, r8, #0
 804:	14010000 	strne	r0, [r1], #-0
 808:	00023d01 	andeq	r3, r2, r1, lsl #26
 80c:	70730100 	rsbsvc	r0, r3, r0, lsl #2
 810:	04000089 	streq	r0, [r0], #-137	; 0x89
 814:	f800008b 			; <UNDEFINED> instruction: 0xf800008b
 818:	01000002 	tsteq	r0, r2
 81c:	00000346 	andeq	r0, r0, r6, asr #6
 820:	706d7411 	rsbvc	r7, sp, r1, lsl r4
 824:	1c790100 	ldfnee	f0, [r9], #-0
 828:	02000001 	andeq	r0, r0, #1
 82c:	16007491 			; <UNDEFINED> instruction: 0x16007491
 830:	00021501 	andeq	r1, r2, r1, lsl #10
 834:	049c0100 	ldreq	r0, [ip], #256	; 0x100
 838:	1800008b 	stmdane	r0, {r0, r1, r3, r7}
 83c:	0200008c 	andeq	r0, r0, #140	; 0x8c
 840:	7601007d 			; <UNDEFINED> instruction: 0x7601007d
 844:	17000003 	strne	r0, [r0, -r3]
 848:	00008b34 	andeq	r8, r0, r4, lsr fp
 84c:	00008b68 	andeq	r8, r0, r8, ror #22
 850:	706d7411 	rsbvc	r7, sp, r1, lsl r4
 854:	1ca10100 	stfnes	f0, [r1]
 858:	01000001 	tsteq	r0, r1
 85c:	18000054 	stmdane	r0, {r2, r4, r6}
 860:	0000025d 	andeq	r0, r0, sp, asr r2
 864:	011c2402 	tsteq	ip, r2, lsl #8
 868:	05010000 	streq	r0, [r1, #-0]
 86c:	008d9403 	addeq	r9, sp, r3, lsl #8
 870:	4c431900 	mcrrmi	9, 0, r1, r3, cr0
 874:	36250200 	strtcc	r0, [r5], -r0, lsl #4
 878:	01000001 	tsteq	r0, r1
 87c:	8d8c0305 	stchi	3, cr0, [ip, #20]
 880:	73000000 	movwvc	r0, #0
 884:	02000002 	andeq	r0, r0, #2
 888:	00040400 	andeq	r0, r4, r0, lsl #8
 88c:	2c010400 	cfstrscs	mvf0, [r1], {-0}
 890:	01000000 	mrseq	r0, (UNDEF: 0)
 894:	00000347 	andeq	r0, r0, r7, asr #6
 898:	00000045 	andeq	r0, r0, r5, asr #32
 89c:	00008c18 	andeq	r8, r0, r8, lsl ip
 8a0:	00008d80 	andeq	r8, r0, r0, lsl #27
 8a4:	0000027c 	andeq	r0, r0, ip, ror r2
 8a8:	00011902 	andeq	r1, r1, r2, lsl #18
 8ac:	30050200 	andcc	r0, r5, r0, lsl #4
 8b0:	03000000 	movweq	r0, #0
 8b4:	00000119 	andeq	r0, r0, r9, lsl r1
 8b8:	55050204 	strpl	r0, [r5, #-516]	; 0x204
 8bc:	04000000 	streq	r0, [r0], #-0
 8c0:	0057454e 	subseq	r4, r7, lr, asr #10
 8c4:	003d0500 	eorseq	r0, sp, r0, lsl #10
 8c8:	05010000 	streq	r0, [r1, #-0]
 8cc:	000000e7 	andeq	r0, r0, r7, ror #1
 8d0:	00c70502 	sbceq	r0, r7, r2, lsl #10
 8d4:	00030000 	andeq	r0, r3, r0
 8d8:	00001d02 	andeq	r1, r0, r2, lsl #26
 8dc:	60070200 	andvs	r0, r7, r0, lsl #4
 8e0:	06000000 	streq	r0, [r0], -r0
 8e4:	00006604 	andeq	r6, r0, r4, lsl #12
 8e8:	08010700 	stmdaeq	r1, {r8, r9, sl}
 8ec:	000000e1 	andeq	r0, r0, r1, ror #1
 8f0:	9d0e020c 	sfmls	f0, 4, [lr, #-48]	; 0xffffffd0
 8f4:	09000000 	stmdbeq	r0, {}	; <UNPREDICTABLE>
 8f8:	02007073 	andeq	r7, r0, #115	; 0x73
 8fc:	00009d0f 	andeq	r9, r0, pc, lsl #26
 900:	00230200 	eoreq	r0, r3, r0, lsl #4
 904:	00637009 	rsbeq	r7, r3, r9
 908:	009d1002 	addseq	r1, sp, r2
 90c:	23020000 	movwcs	r0, #8192	; 0x2000
 910:	01110a04 	tsteq	r1, r4, lsl #20
 914:	11020000 	mrsne	r0, (UNDEF: 2)
 918:	0000009d 	muleq	r0, sp, r0
 91c:	00082302 	andeq	r2, r8, r2, lsl #6
 920:	0b08040b 	bleq	201954 <__bss_end+0x1f8bbc>
 924:	20000001 	andcs	r0, r0, r1
 928:	011c1402 	tsteq	ip, r2, lsl #8
 92c:	140a0000 	strne	r0, [sl], #-0
 930:	02000000 	andeq	r0, r0, #0
 934:	00011c15 	andeq	r1, r1, r5, lsl ip
 938:	00230200 	eoreq	r0, r3, r0, lsl #4
 93c:	0000000a 	andeq	r0, r0, sl
 940:	9d160200 	lfmls	f0, 4, [r6, #-0]
 944:	02000000 	andeq	r0, r0, #0
 948:	9d0a0423 	cfstrsls	mvf0, [sl, #-140]	; 0xffffff74
 94c:	02000000 	andeq	r0, r0, #0
 950:	00005517 	andeq	r5, r0, r7, lsl r5
 954:	08230200 	stmdaeq	r3!, {r9}
 958:	0000fe0a 	andeq	pc, r0, sl, lsl #28
 95c:	22180200 	andscs	r0, r8, #0
 960:	02000001 	andeq	r0, r0, #1
 964:	1f0a0c23 	svcne	0x000a0c23
 968:	02000001 	andeq	r0, r0, #1
 96c:	00012919 	andeq	r2, r1, r9, lsl r9
 970:	10230200 	eorne	r0, r3, r0, lsl #4
 974:	0000f80a 	andeq	pc, r0, sl, lsl #16
 978:	251a0200 	ldrcs	r0, [sl, #-512]	; 0x200
 97c:	02000000 	andeq	r0, r0, #0
 980:	b20a1423 	andlt	r1, sl, #587202560	; 0x23000000
 984:	02000000 	andeq	r0, r0, #0
 988:	00009d1b 	andeq	r9, r0, fp, lsl sp
 98c:	18230200 	stmdane	r3!, {r9}
 990:	0000a90a 	andeq	sl, r0, sl, lsl #18
 994:	2f1c0200 	svccs	0x001c0200
 998:	02000001 	andeq	r0, r0, #1
 99c:	06001c23 	streq	r1, [r0], -r3, lsr #24
 9a0:	00009f04 	andeq	r9, r0, r4, lsl #30
 9a4:	07040c00 	streq	r0, [r4, -r0, lsl #24]
 9a8:	000001ca 	andeq	r0, r0, sl, asr #3
 9ac:	00680406 	rsbeq	r0, r8, r6, lsl #8
 9b0:	040d0000 	streq	r0, [sp], #-0
 9b4:	746e6905 	strbtvc	r6, [lr], #-2309	; 0x905
 9b8:	00ba0800 	adcseq	r0, sl, r0, lsl #16
 9bc:	02080000 	andeq	r0, r8, #0
 9c0:	00015f1f 	andeq	r5, r1, pc, lsl pc
 9c4:	00930a00 	addseq	r0, r3, r0, lsl #20
 9c8:	20020000 	andcs	r0, r2, r0
 9cc:	0000011c 	andeq	r0, r0, ip, lsl r1
 9d0:	0a002302 	beq	95e0 <__bss_end+0x848>
 9d4:	000000d2 	ldrdeq	r0, [r0], -r2
 9d8:	011c2102 	tsteq	ip, r2, lsl #2
 9dc:	23020000 	movwcs	r0, #8192	; 0x2000
 9e0:	010e0004 	tsteq	lr, r4
 9e4:	000002ec 	andeq	r0, r0, ip, ror #5
 9e8:	8c180501 	cfldr32hi	mvfx0, [r8], {1}
 9ec:	8c540000 	mrahi	r0, r4, acc0
 9f0:	03240000 	teqeq	r4, #0
 9f4:	0f010000 	svceq	0x00010000
 9f8:	0002b901 	andeq	fp, r2, r1, lsl #18
 9fc:	010c0100 	mrseq	r0, (UNDEF: 28)
 a00:	00008c54 	andeq	r8, r0, r4, asr ip
 a04:	00008ca4 	andeq	r8, r0, r4, lsr #25
 a08:	00000344 	andeq	r0, r0, r4, asr #6
 a0c:	00019d01 	andeq	r9, r1, r1, lsl #26
 a10:	03211000 	teqeq	r1, #0
 a14:	0c010000 	stceq	0, cr0, [r1], {-0}
 a18:	00000122 	andeq	r0, r0, r2, lsr #2
 a1c:	00749102 	rsbseq	r9, r4, r2, lsl #2
 a20:	02dc0111 	sbcseq	r0, ip, #1073741828	; 0x40000004
 a24:	14010000 	strne	r0, [r1], #-0
 a28:	00008ca4 	andeq	r8, r0, r4, lsr #25
 a2c:	00008d04 	andeq	r8, r0, r4, lsl #26
 a30:	00000370 	andeq	r0, r0, r0, ror r3
 a34:	0001fe01 	andeq	pc, r1, r1, lsl #28
 a38:	03341200 	teqeq	r4, #0
 a3c:	15010000 	strne	r0, [r1, #-0]
 a40:	000001fe 	strdeq	r0, [r0], -lr
 a44:	12749102 	rsbsne	r9, r4, #-2147483648	; 0x80000000
 a48:	0000032c 	andeq	r0, r0, ip, lsr #6
 a4c:	01fe1601 	mvnseq	r1, r1, lsl #12
 a50:	91020000 	mrsls	r0, (UNDEF: 2)
 a54:	02d01270 	sbcseq	r1, r0, #7
 a58:	17010000 	strne	r0, [r1, -r0]
 a5c:	000001fe 	strdeq	r0, [r0], -lr
 a60:	126c9102 	rsbne	r9, ip, #-2147483648	; 0x80000000
 a64:	000002f7 	strdeq	r0, [r0], -r7
 a68:	01fe1801 	mvnseq	r1, r1, lsl #16
 a6c:	91020000 	mrsls	r0, (UNDEF: 2)
 a70:	10011368 	andne	r1, r1, r8, ror #6
 a74:	01000003 	tsteq	r0, r3
 a78:	00012f19 	andeq	r2, r1, r9, lsl pc
 a7c:	00140100 	andseq	r0, r4, r0, lsl #2
 a80:	012f1500 	teqeq	pc, r0, lsl #10
 a84:	01160000 	tsteq	r6, r0
 a88:	000002c2 	andeq	r0, r0, r2, asr #5
 a8c:	8d041e01 	stchi	14, cr1, [r4, #-4]
 a90:	8d380000 	ldchi	0, cr0, [r8, #-0]
 a94:	039c0000 	orrseq	r0, ip, #0
 a98:	2b010000 	blcs	40aa0 <__bss_end+0x37d08>
 a9c:	12000002 	andne	r0, r0, #2
 aa0:	00000321 	andeq	r0, r0, r1, lsr #6
 aa4:	01221f01 	teqeq	r2, r1, lsl #30
 aa8:	91020000 	mrsls	r0, (UNDEF: 2)
 aac:	01110074 	tsteq	r1, r4, ror r0
 ab0:	00000316 	andeq	r0, r0, r6, lsl r3
 ab4:	8d382401 	cfldrshi	mvf2, [r8, #-4]!
 ab8:	8d800000 	stchi	0, cr0, [r0]
 abc:	03c80000 	biceq	r0, r8, #0
 ac0:	53010000 	movwpl	r0, #4096	; 0x1000
 ac4:	12000002 	andne	r0, r0, #2
 ac8:	0000033c 	andeq	r0, r0, ip, lsr r3
 acc:	012f2501 	teqeq	pc, r1, lsl #10
 ad0:	91020000 	mrsls	r0, (UNDEF: 2)
 ad4:	5d170074 	ldcpl	0, cr0, [r7, #-464]	; 0xfffffe30
 ad8:	02000002 	andeq	r0, r0, #2
 adc:	00011c24 	andeq	r1, r1, r4, lsr #24
 ae0:	03050100 	movweq	r0, #20736	; 0x5100
 ae4:	00008d94 	muleq	r0, r4, sp
 ae8:	004c4318 	subeq	r4, ip, r8, lsl r3
 aec:	01362502 	teqeq	r6, r2, lsl #10
 af0:	05010000 	streq	r0, [r1, #-0]
 af4:	008d8c03 	addeq	r8, sp, r3, lsl #24
	...

Disassembly of section .debug_abbrev:

00000000 <.debug_abbrev>:
   0:	10001101 	andne	r1, r0, r1, lsl #2
   4:	12011106 	andne	r1, r1, #-2147483647	; 0x80000001
   8:	1b080301 	blne	200c14 <__bss_end+0x1f7e7c>
   c:	13082508 	movwne	r2, #34056	; 0x8508
  10:	00000005 	andeq	r0, r0, r5
  14:	25011101 	strcs	r1, [r1, #-257]	; 0x101
  18:	030b130e 	movweq	r1, #45838	; 0xb30e
  1c:	110e1b0e 	tstne	lr, lr, lsl #22
  20:	10011201 	andne	r1, r1, r1, lsl #4
  24:	02000006 	andeq	r0, r0, #6
  28:	0e030016 	mcreq	0, 0, r0, cr3, cr6, {0}
  2c:	0b3b0b3a 	bleq	ec2d1c <__bss_end+0xeb9f84>
  30:	00001349 	andeq	r1, r0, r9, asr #6
  34:	03010403 	movweq	r0, #5123	; 0x1403
  38:	3a0b0b0e 	bcc	2c2c78 <__bss_end+0x2b9ee0>
  3c:	010b3b0b 	tsteq	fp, fp, lsl #22
  40:	04000013 	streq	r0, [r0], #-19
  44:	08030028 	stmdaeq	r3, {r3, r5}
  48:	00000d1c 	andeq	r0, r0, ip, lsl sp
  4c:	03002805 	movweq	r2, #2053	; 0x805
  50:	000d1c0e 	andeq	r1, sp, lr, lsl #24
  54:	000f0600 	andeq	r0, pc, r0, lsl #12
  58:	13490b0b 	movtne	r0, #39691	; 0x9b0b
  5c:	15070000 	strne	r0, [r7, #-0]
  60:	000c2700 	andeq	r2, ip, r0, lsl #14
  64:	01130800 	tsteq	r3, r0, lsl #16
  68:	0b0b0e03 	bleq	2c387c <__bss_end+0x2baae4>
  6c:	0b3b0b3a 	bleq	ec2d5c <__bss_end+0xeb9fc4>
  70:	00001301 	andeq	r1, r0, r1, lsl #6
  74:	03000d09 	movweq	r0, #3337	; 0xd09
  78:	3b0b3a08 	blcc	2ce8a0 <__bss_end+0x2c5b08>
  7c:	3813490b 	ldmdacc	r3, {r0, r1, r3, r8, fp, lr}
  80:	0a00000a 	beq	b0 <_start-0x7f50>
  84:	0e03000d 	cdpeq	0, 0, cr0, cr3, cr13, {0}
  88:	0b3b0b3a 	bleq	ec2d78 <__bss_end+0xeb9fe0>
  8c:	0a381349 	beq	e04db8 <__bss_end+0xdfc020>
  90:	0f0b0000 	svceq	0x000b0000
  94:	000b0b00 	andeq	r0, fp, r0, lsl #22
  98:	00240c00 	eoreq	r0, r4, r0, lsl #24
  9c:	0b3e0b0b 	bleq	f82cd0 <__bss_end+0xf79f38>
  a0:	00000e03 	andeq	r0, r0, r3, lsl #28
  a4:	0b00240d 	bleq	90e0 <__bss_end+0x348>
  a8:	030b3e0b 	movweq	r3, #48651	; 0xbe0b
  ac:	0e000008 	cdpeq	0, 0, cr0, cr0, cr8, {0}
  b0:	0c3f012e 	ldfeqs	f0, [pc], #-184	; 0 <_start-0x8000>
  b4:	0b3a0e03 	bleq	e838c8 <__bss_end+0xe7ab30>
  b8:	01110b3b 	tsteq	r1, fp, lsr fp
  bc:	06400112 			; <UNDEFINED> instruction: 0x06400112
  c0:	010c4297 			; <UNDEFINED> instruction: 0x010c4297
  c4:	0f000013 	svceq	0x00000013
  c8:	0e030034 	mcreq	0, 0, r0, cr3, cr4, {1}
  cc:	0b3b0b3a 	bleq	ec2dbc <__bss_end+0xeba024>
  d0:	0a021349 	beq	84dfc <__bss_end+0x7c064>
  d4:	2e100000 	cdpcs	0, 1, cr0, cr0, cr0, {0}
  d8:	030c3f00 	movweq	r3, #52992	; 0xcf00
  dc:	3b0b3a0e 	blcc	2ce91c <__bss_end+0x2c5b84>
  e0:	490c270b 	stmdbmi	ip, {r0, r1, r3, r8, r9, sl, sp}
  e4:	12011113 	andne	r1, r1, #-1073741820	; 0xc0000004
  e8:	96064001 	strls	r4, [r6], -r1
  ec:	00000c42 	andeq	r0, r0, r2, asr #24
  f0:	03003411 	movweq	r3, #1041	; 0x411
  f4:	3b0b3a0e 	blcc	2ce934 <__bss_end+0x2c5b9c>
  f8:	3f13490b 	svccc	0x0013490b
  fc:	000a020c 	andeq	r0, sl, ip, lsl #4
 100:	00341200 	eorseq	r1, r4, r0, lsl #4
 104:	0b3a0803 	bleq	e82118 <__bss_end+0xe79380>
 108:	13490b3b 	movtne	r0, #39739	; 0x9b3b
 10c:	0a020c3f 	beq	83210 <__bss_end+0x7a478>
 110:	01000000 	mrseq	r0, (UNDEF: 0)
 114:	0e250111 	mcreq	1, 1, r0, cr5, cr1, {0}
 118:	0e030b13 	vmoveq.32	d3[0], r0
 11c:	01110e1b 	tsteq	r1, fp, lsl lr
 120:	06100112 			; <UNDEFINED> instruction: 0x06100112
 124:	13020000 	movwne	r0, #8192	; 0x2000
 128:	0b080301 	bleq	200d34 <__bss_end+0x1f7f9c>
 12c:	3b0b3a0b 	blcc	2ce960 <__bss_end+0x2c5bc8>
 130:	0013010b 	andseq	r0, r3, fp, lsl #2
 134:	000d0300 	andeq	r0, sp, r0, lsl #6
 138:	0b3a0e03 	bleq	e8394c <__bss_end+0xe7abb4>
 13c:	13490b3b 	movtne	r0, #39739	; 0x9b3b
 140:	00000a38 	andeq	r0, r0, r8, lsr sl
 144:	0b000f04 	bleq	3d5c <_start-0x42a4>
 148:	0013490b 	andseq	r4, r3, fp, lsl #18
 14c:	00240500 	eoreq	r0, r4, r0, lsl #10
 150:	0b3e0b0b 	bleq	f82d84 <__bss_end+0xf79fec>
 154:	00000e03 	andeq	r0, r0, r3, lsl #28
 158:	3f012e06 	svccc	0x00012e06
 15c:	3a0e030c 	bcc	380d94 <__bss_end+0x377ffc>
 160:	270b3b0b 	strcs	r3, [fp, -fp, lsl #22]
 164:	1113490c 	tstne	r3, ip, lsl #18
 168:	40011201 	andmi	r1, r1, r1, lsl #4
 16c:	0c429706 	mcrreq	7, 0, r9, r2, cr6
 170:	00001301 	andeq	r1, r0, r1, lsl #6
 174:	03000507 	movweq	r0, #1287	; 0x507
 178:	3b0b3a0e 	blcc	2ce9b8 <__bss_end+0x2c5c20>
 17c:	0213490b 	andseq	r4, r3, #180224	; 0x2c000
 180:	0800000a 	stmdaeq	r0, {r1, r3}
 184:	08030034 	stmdaeq	r3, {r2, r4, r5}
 188:	0b3b0b3a 	bleq	ec2e78 <__bss_end+0xeba0e0>
 18c:	0a021349 	beq	84eb8 <__bss_end+0x7c120>
 190:	34090000 	strcc	r0, [r9], #-0
 194:	3a0e0300 	bcc	380d9c <__bss_end+0x378004>
 198:	490b3b0b 	stmdbmi	fp, {r0, r1, r3, r8, r9, fp, ip, sp}
 19c:	000a0213 	andeq	r0, sl, r3, lsl r2
 1a0:	000f0a00 	andeq	r0, pc, r0, lsl #20
 1a4:	00000b0b 	andeq	r0, r0, fp, lsl #22
 1a8:	3f012e0b 	svccc	0x00012e0b
 1ac:	3a0e030c 	bcc	380de4 <__bss_end+0x37804c>
 1b0:	270b3b0b 	strcs	r3, [fp, -fp, lsl #22]
 1b4:	1201110c 	andne	r1, r1, #3
 1b8:	97064001 	strls	r4, [r6, -r1]
 1bc:	13010c42 	movwne	r0, #7234	; 0x1c42
 1c0:	050c0000 	streq	r0, [ip, #-0]
 1c4:	3a080300 	bcc	200dcc <__bss_end+0x1f8034>
 1c8:	490b3b0b 	stmdbmi	fp, {r0, r1, r3, r8, r9, fp, ip, sp}
 1cc:	000a0213 	andeq	r0, sl, r3, lsl r2
 1d0:	00340d00 	eorseq	r0, r4, r0, lsl #26
 1d4:	0b3a0e03 	bleq	e839e8 <__bss_end+0xe7ac50>
 1d8:	13490b3b 	movtne	r0, #39739	; 0x9b3b
 1dc:	0a020c3f 	beq	832e0 <__bss_end+0x7a548>
 1e0:	01000000 	mrseq	r0, (UNDEF: 0)
 1e4:	0e250111 	mcreq	1, 1, r0, cr5, cr1, {0}
 1e8:	0e030b13 	vmoveq.32	d3[0], r0
 1ec:	01110e1b 	tsteq	r1, fp, lsl lr
 1f0:	06100112 			; <UNDEFINED> instruction: 0x06100112
 1f4:	24020000 	strcs	r0, [r2], #-0
 1f8:	3e0b0b00 	vmlacc.f64	d0, d11, d0
 1fc:	000e030b 	andeq	r0, lr, fp, lsl #6
 200:	012e0300 	teqeq	lr, r0, lsl #6
 204:	0e030c3f 	mcreq	12, 0, r0, cr3, cr15, {1}
 208:	0b3b0b3a 	bleq	ec2ef8 <__bss_end+0xeba160>
 20c:	01120111 	tsteq	r2, r1, lsl r1
 210:	42960640 	addsmi	r0, r6, #67108864	; 0x4000000
 214:	0013010c 	andseq	r0, r3, ip, lsl #2
 218:	00340400 	eorseq	r0, r4, r0, lsl #8
 21c:	0b3a0803 	bleq	e82230 <__bss_end+0xe79498>
 220:	13490b3b 	movtne	r0, #39739	; 0x9b3b
 224:	00000a02 	andeq	r0, r0, r2, lsl #20
 228:	3f012e05 	svccc	0x00012e05
 22c:	3a0e030c 	bcc	380e64 <__bss_end+0x3780cc>
 230:	270b3b0b 	strcs	r3, [fp, -fp, lsl #22]
 234:	1201110c 	andne	r1, r1, #3
 238:	96064001 	strls	r4, [r6], -r1
 23c:	13010c42 	movwne	r0, #7234	; 0x1c42
 240:	05060000 	streq	r0, [r6, #-0]
 244:	3a0e0300 	bcc	380e4c <__bss_end+0x3780b4>
 248:	490b3b0b 	stmdbmi	fp, {r0, r1, r3, r8, r9, fp, ip, sp}
 24c:	000a0213 	andeq	r0, sl, r3, lsl r2
 250:	00240700 	eoreq	r0, r4, r0, lsl #14
 254:	0b3e0b0b 	bleq	f82e88 <__bss_end+0xf7a0f0>
 258:	00000803 	andeq	r0, r0, r3, lsl #16
 25c:	3f002e08 	svccc	0x00002e08
 260:	3a0e030c 	bcc	380e98 <__bss_end+0x378100>
 264:	110b3b0b 	tstne	fp, fp, lsl #22
 268:	40011201 	andmi	r1, r1, r1, lsl #4
 26c:	0c429606 	mcrreq	6, 0, r9, r2, cr6
 270:	2e090000 	cdpcs	0, 0, cr0, cr9, cr0, {0}
 274:	030c3f01 	movweq	r3, #52993	; 0xcf01
 278:	3b0b3a0e 	blcc	2ceab8 <__bss_end+0x2c5d20>
 27c:	1201110b 	andne	r1, r1, #-1073741822	; 0xc0000002
 280:	96064001 	strls	r4, [r6], -r1
 284:	00000c42 	andeq	r0, r0, r2, asr #24
 288:	01110100 	tsteq	r1, r0, lsl #2
 28c:	0b130e25 	bleq	4c3b28 <__bss_end+0x4bad90>
 290:	0e1b0e03 	cdpeq	14, 1, cr0, cr11, cr3, {0}
 294:	01120111 	tsteq	r2, r1, lsl r1
 298:	00000610 	andeq	r0, r0, r0, lsl r6
 29c:	03001602 	movweq	r1, #1538	; 0x602
 2a0:	3b0b3a0e 	blcc	2ceae0 <__bss_end+0x2c5d48>
 2a4:	0013490b 	andseq	r4, r3, fp, lsl #18
 2a8:	01040300 	mrseq	r0, LR_abt
 2ac:	0b0b0e03 	bleq	2c3ac0 <__bss_end+0x2bad28>
 2b0:	0b3b0b3a 	bleq	ec2fa0 <__bss_end+0xeba208>
 2b4:	00001301 	andeq	r1, r0, r1, lsl #6
 2b8:	03002804 	movweq	r2, #2052	; 0x804
 2bc:	000d1c08 	andeq	r1, sp, r8, lsl #24
 2c0:	00280500 	eoreq	r0, r8, r0, lsl #10
 2c4:	0d1c0e03 	ldceq	14, cr0, [ip, #-12]
 2c8:	0f060000 	svceq	0x00060000
 2cc:	490b0b00 	stmdbmi	fp, {r8, r9, fp}
 2d0:	07000013 	smladeq	r0, r3, r0, r0
 2d4:	0c270015 	stceq	0, cr0, [r7], #-84	; 0xffffffac
 2d8:	13080000 	movwne	r0, #32768	; 0x8000
 2dc:	0b0e0301 	bleq	380ee8 <__bss_end+0x378150>
 2e0:	3b0b3a0b 	blcc	2ceb14 <__bss_end+0x2c5d7c>
 2e4:	0013010b 	andseq	r0, r3, fp, lsl #2
 2e8:	000d0900 	andeq	r0, sp, r0, lsl #18
 2ec:	0b3a0803 	bleq	e82300 <__bss_end+0xe79568>
 2f0:	13490b3b 	movtne	r0, #39739	; 0x9b3b
 2f4:	00000a38 	andeq	r0, r0, r8, lsr sl
 2f8:	03000d0a 	movweq	r0, #3338	; 0xd0a
 2fc:	3b0b3a0e 	blcc	2ceb3c <__bss_end+0x2c5da4>
 300:	3813490b 	ldmdacc	r3, {r0, r1, r3, r8, fp, lr}
 304:	0b00000a 	bleq	334 <_start-0x7ccc>
 308:	0b0b000f 	bleq	2c034c <__bss_end+0x2b75b4>
 30c:	240c0000 	strcs	r0, [ip], #-0
 310:	3e0b0b00 	vmlacc.f64	d0, d11, d0
 314:	000e030b 	andeq	r0, lr, fp, lsl #6
 318:	00240d00 	eoreq	r0, r4, r0, lsl #26
 31c:	0b3e0b0b 	bleq	f82f50 <__bss_end+0xf7a1b8>
 320:	00000803 	andeq	r0, r0, r3, lsl #16
 324:	3f012e0e 	svccc	0x00012e0e
 328:	3a0e030c 	bcc	380f60 <__bss_end+0x3781c8>
 32c:	270b3b0b 	strcs	r3, [fp, -fp, lsl #22]
 330:	1201110c 	andne	r1, r1, #3
 334:	96064001 	strls	r4, [r6], -r1
 338:	13010c42 	movwne	r0, #7234	; 0x1c42
 33c:	050f0000 	streq	r0, [pc, #-0]	; 344 <_start-0x7cbc>
 340:	3a0e0300 	bcc	380f48 <__bss_end+0x3781b0>
 344:	490b3b0b 	stmdbmi	fp, {r0, r1, r3, r8, r9, fp, ip, sp}
 348:	000a0213 	andeq	r0, sl, r3, lsl r2
 34c:	00051000 	andeq	r1, r5, r0
 350:	0b3a0803 	bleq	e82364 <__bss_end+0xe795cc>
 354:	13490b3b 	movtne	r0, #39739	; 0x9b3b
 358:	00000a02 	andeq	r0, r0, r2, lsl #20
 35c:	03003411 	movweq	r3, #1041	; 0x411
 360:	3b0b3a08 	blcc	2ceb88 <__bss_end+0x2c5df0>
 364:	0213490b 	andseq	r4, r3, #180224	; 0x2c000
 368:	1200000a 	andne	r0, r0, #10
 36c:	0e030034 	mcreq	0, 0, r0, cr3, cr4, {1}
 370:	0b3b0b3a 	bleq	ec3060 <__bss_end+0xeba2c8>
 374:	0a021349 	beq	850a0 <__bss_end+0x7c308>
 378:	2e130000 	cdpcs	0, 1, cr0, cr3, cr0, {0}
 37c:	030c3f00 	movweq	r3, #52992	; 0xcf00
 380:	3b0b3a0e 	blcc	2cebc0 <__bss_end+0x2c5e28>
 384:	1201110b 	andne	r1, r1, #-1073741822	; 0xc0000002
 388:	96064001 	strls	r4, [r6], -r1
 38c:	00000c42 	andeq	r0, r0, r2, asr #24
 390:	3f012e14 	svccc	0x00012e14
 394:	3a0e030c 	bcc	380fcc <__bss_end+0x378234>
 398:	110b3b0b 	tstne	fp, fp, lsl #22
 39c:	40011201 	andmi	r1, r1, r1, lsl #4
 3a0:	0c429606 	mcrreq	6, 0, r9, r2, cr6
 3a4:	00001301 	andeq	r1, r0, r1, lsl #6
 3a8:	3f012e15 	svccc	0x00012e15
 3ac:	3a0e030c 	bcc	380fe4 <__bss_end+0x37824c>
 3b0:	110b3b0b 	tstne	fp, fp, lsl #22
 3b4:	40011201 	andmi	r1, r1, r1, lsl #4
 3b8:	0c429706 	mcrreq	7, 0, r9, r2, cr6
 3bc:	00001301 	andeq	r1, r0, r1, lsl #6
 3c0:	3f012e16 	svccc	0x00012e16
 3c4:	3a0e030c 	bcc	380ffc <__bss_end+0x378264>
 3c8:	110b3b0b 	tstne	fp, fp, lsl #22
 3cc:	40011201 	andmi	r1, r1, r1, lsl #4
 3d0:	0c42960a 	mcrreq	6, 0, r9, r2, cr10
 3d4:	00001301 	andeq	r1, r0, r1, lsl #6
 3d8:	11010b17 	tstne	r1, r7, lsl fp
 3dc:	00011201 	andeq	r1, r1, r1, lsl #4
 3e0:	00341800 	eorseq	r1, r4, r0, lsl #16
 3e4:	0b3a0e03 	bleq	e83bf8 <__bss_end+0xe7ae60>
 3e8:	13490b3b 	movtne	r0, #39739	; 0x9b3b
 3ec:	0a020c3f 	beq	834f0 <__bss_end+0x7a758>
 3f0:	34190000 	ldrcc	r0, [r9], #-0
 3f4:	3a080300 	bcc	200ffc <__bss_end+0x1f8264>
 3f8:	490b3b0b 	stmdbmi	fp, {r0, r1, r3, r8, r9, fp, ip, sp}
 3fc:	020c3f13 	andeq	r3, ip, #76	; 0x4c
 400:	0000000a 	andeq	r0, r0, sl
 404:	25011101 	strcs	r1, [r1, #-257]	; 0x101
 408:	030b130e 	movweq	r1, #45838	; 0xb30e
 40c:	110e1b0e 	tstne	lr, lr, lsl #22
 410:	10011201 	andne	r1, r1, r1, lsl #4
 414:	02000006 	andeq	r0, r0, #6
 418:	0e030016 	mcreq	0, 0, r0, cr3, cr6, {0}
 41c:	0b3b0b3a 	bleq	ec310c <__bss_end+0xeba374>
 420:	00001349 	andeq	r1, r0, r9, asr #6
 424:	03010403 	movweq	r0, #5123	; 0x1403
 428:	3a0b0b0e 	bcc	2c3068 <__bss_end+0x2ba2d0>
 42c:	010b3b0b 	tsteq	fp, fp, lsl #22
 430:	04000013 	streq	r0, [r0], #-19
 434:	08030028 	stmdaeq	r3, {r3, r5}
 438:	00000d1c 	andeq	r0, r0, ip, lsl sp
 43c:	03002805 	movweq	r2, #2053	; 0x805
 440:	000d1c0e 	andeq	r1, sp, lr, lsl #24
 444:	000f0600 	andeq	r0, pc, r0, lsl #12
 448:	13490b0b 	movtne	r0, #39691	; 0x9b0b
 44c:	15070000 	strne	r0, [r7, #-0]
 450:	000c2700 	andeq	r2, ip, r0, lsl #14
 454:	01130800 	tsteq	r3, r0, lsl #16
 458:	0b0b0e03 	bleq	2c3c6c <__bss_end+0x2baed4>
 45c:	0b3b0b3a 	bleq	ec314c <__bss_end+0xeba3b4>
 460:	00001301 	andeq	r1, r0, r1, lsl #6
 464:	03000d09 	movweq	r0, #3337	; 0xd09
 468:	3b0b3a08 	blcc	2cec90 <__bss_end+0x2c5ef8>
 46c:	3813490b 	ldmdacc	r3, {r0, r1, r3, r8, fp, lr}
 470:	0a00000a 	beq	4a0 <_start-0x7b60>
 474:	0e03000d 	cdpeq	0, 0, cr0, cr3, cr13, {0}
 478:	0b3b0b3a 	bleq	ec3168 <__bss_end+0xeba3d0>
 47c:	0a381349 	beq	e051a8 <__bss_end+0xdfc410>
 480:	0f0b0000 	svceq	0x000b0000
 484:	000b0b00 	andeq	r0, fp, r0, lsl #22
 488:	00240c00 	eoreq	r0, r4, r0, lsl #24
 48c:	0b3e0b0b 	bleq	f830c0 <__bss_end+0xf7a328>
 490:	00000e03 	andeq	r0, r0, r3, lsl #28
 494:	0b00240d 	bleq	94d0 <__bss_end+0x738>
 498:	030b3e0b 	movweq	r3, #48651	; 0xbe0b
 49c:	0e000008 	cdpeq	0, 0, cr0, cr0, cr8, {0}
 4a0:	0c3f002e 	ldceq	0, cr0, [pc], #-184	; 3f0 <_start-0x7c10>
 4a4:	0b3a0e03 	bleq	e83cb8 <__bss_end+0xe7af20>
 4a8:	01110b3b 	tsteq	r1, fp, lsr fp
 4ac:	06400112 			; <UNDEFINED> instruction: 0x06400112
 4b0:	000c4297 	muleq	ip, r7, r2
 4b4:	012e0f00 	teqeq	lr, r0, lsl #30
 4b8:	0e030c3f 	mcreq	12, 0, r0, cr3, cr15, {1}
 4bc:	0b3b0b3a 	bleq	ec31ac <__bss_end+0xeba414>
 4c0:	01110c27 	tsteq	r1, r7, lsr #24
 4c4:	06400112 			; <UNDEFINED> instruction: 0x06400112
 4c8:	010c4297 			; <UNDEFINED> instruction: 0x010c4297
 4cc:	10000013 	andne	r0, r0, r3, lsl r0
 4d0:	0e030005 	cdpeq	0, 0, cr0, cr3, cr5, {0}
 4d4:	0b3b0b3a 	bleq	ec31c4 <__bss_end+0xeba42c>
 4d8:	0a021349 	beq	85204 <__bss_end+0x7c46c>
 4dc:	2e110000 	cdpcs	0, 1, cr0, cr1, cr0, {0}
 4e0:	030c3f01 	movweq	r3, #52993	; 0xcf01
 4e4:	3b0b3a0e 	blcc	2ced24 <__bss_end+0x2c5f8c>
 4e8:	1201110b 	andne	r1, r1, #-1073741822	; 0xc0000002
 4ec:	96064001 	strls	r4, [r6], -r1
 4f0:	13010c42 	movwne	r0, #7234	; 0x1c42
 4f4:	34120000 	ldrcc	r0, [r2], #-0
 4f8:	3a0e0300 	bcc	381100 <__bss_end+0x378368>
 4fc:	490b3b0b 	stmdbmi	fp, {r0, r1, r3, r8, r9, fp, ip, sp}
 500:	000a0213 	andeq	r0, sl, r3, lsl r2
 504:	012e1300 	teqeq	lr, r0, lsl #6
 508:	0e030c3f 	mcreq	12, 0, r0, cr3, cr15, {1}
 50c:	0b3b0b3a 	bleq	ec31fc <__bss_end+0xeba464>
 510:	0c3c1349 	ldceq	3, cr1, [ip], #-292	; 0xfffffedc
 514:	18140000 	ldmdane	r4, {}	; <UNPREDICTABLE>
 518:	15000000 	strne	r0, [r0, #-0]
 51c:	13490026 	movtne	r0, #36902	; 0x9026
 520:	2e160000 	cdpcs	0, 1, cr0, cr6, cr0, {0}
 524:	030c3f01 	movweq	r3, #52993	; 0xcf01
 528:	3b0b3a0e 	blcc	2ced68 <__bss_end+0x2c5fd0>
 52c:	1201110b 	andne	r1, r1, #-1073741822	; 0xc0000002
 530:	97064001 	strls	r4, [r6, -r1]
 534:	13010c42 	movwne	r0, #7234	; 0x1c42
 538:	34170000 	ldrcc	r0, [r7], #-0
 53c:	3a0e0300 	bcc	381144 <__bss_end+0x3783ac>
 540:	490b3b0b 	stmdbmi	fp, {r0, r1, r3, r8, r9, fp, ip, sp}
 544:	020c3f13 	andeq	r3, ip, #76	; 0x4c
 548:	1800000a 	stmdane	r0, {r1, r3}
 54c:	08030034 	stmdaeq	r3, {r2, r4, r5}
 550:	0b3b0b3a 	bleq	ec3240 <__bss_end+0xeba4a8>
 554:	0c3f1349 	ldceq	3, cr1, [pc], #-292	; 438 <_start-0x7bc8>
 558:	00000a02 	andeq	r0, r0, r2, lsl #20
	...

Disassembly of section .debug_aranges:

00000000 <.debug_aranges>:
   0:	0000001c 	andeq	r0, r0, ip, lsl r0
   4:	00000002 	andeq	r0, r0, r2
   8:	00040000 	andeq	r0, r4, r0
   c:	00000000 	andeq	r0, r0, r0
  10:	00008000 	andeq	r8, r0, r0
  14:	000000d0 	ldrdeq	r0, [r0], -r0	; <UNPREDICTABLE>
	...
  20:	0000001c 	andeq	r0, r0, ip, lsl r0
  24:	00790002 	rsbseq	r0, r9, r2
  28:	00040000 	andeq	r0, r4, r0
  2c:	00000000 	andeq	r0, r0, r0
  30:	000080d0 	ldrdeq	r8, [r0], -r0
  34:	00000114 	andeq	r0, r0, r4, lsl r1
	...
  40:	0000001c 	andeq	r0, r0, ip, lsl r0
  44:	028e0002 	addeq	r0, lr, #2
  48:	00040000 	andeq	r0, r4, r0
  4c:	00000000 	andeq	r0, r0, r0
  50:	000081e4 	andeq	r8, r0, r4, ror #3
  54:	00000138 	andeq	r0, r0, r8, lsr r1
	...
  60:	0000001c 	andeq	r0, r0, ip, lsl r0
  64:	03f00002 	mvnseq	r0, #2
  68:	00040000 	andeq	r0, r4, r0
  6c:	00000000 	andeq	r0, r0, r0
  70:	0000831c 	andeq	r8, r0, ip, lsl r3
  74:	000001e0 	andeq	r0, r0, r0, ror #3
	...
  80:	0000001c 	andeq	r0, r0, ip, lsl r0
  84:	04e90002 	strbteq	r0, [r9], #2
  88:	00040000 	andeq	r0, r4, r0
  8c:	00000000 	andeq	r0, r0, r0
  90:	000084fc 	strdeq	r8, [r0], -ip
  94:	0000071c 	andeq	r0, r0, ip, lsl r7
	...
  a0:	0000001c 	andeq	r0, r0, ip, lsl r0
  a4:	08830002 	stmeq	r3, {r1}
  a8:	00040000 	andeq	r0, r4, r0
  ac:	00000000 	andeq	r0, r0, r0
  b0:	00008c18 	andeq	r8, r0, r8, lsl ip
  b4:	00000168 	andeq	r0, r0, r8, ror #2
	...

Disassembly of section .debug_loc:

00000000 <.debug_loc>:
   0:	00000000 	andeq	r0, r0, r0
   4:	00000004 	andeq	r0, r0, r4
   8:	007d0002 	rsbseq	r0, sp, r2
   c:	00000004 	andeq	r0, r0, r4
  10:	00000040 	andeq	r0, r0, r0, asr #32
  14:	087d0002 	ldmdaeq	sp!, {r1}^
	...
  20:	00000040 	andeq	r0, r0, r0, asr #32
  24:	00000044 	andeq	r0, r0, r4, asr #32
  28:	007d0002 	rsbseq	r0, sp, r2
  2c:	00000044 	andeq	r0, r0, r4, asr #32
  30:	00000080 	andeq	r0, r0, r0, lsl #1
  34:	087d0002 	ldmdaeq	sp!, {r1}^
	...
  40:	00000080 	andeq	r0, r0, r0, lsl #1
  44:	00000084 	andeq	r0, r0, r4, lsl #1
  48:	007d0002 	rsbseq	r0, sp, r2
  4c:	00000084 	andeq	r0, r0, r4, lsl #1
  50:	000000bc 	strheq	r0, [r0], -ip
  54:	087d0002 	ldmdaeq	sp!, {r1}^
	...
  60:	000000bc 	strheq	r0, [r0], -ip
  64:	000000c0 	andeq	r0, r0, r0, asr #1
  68:	007d0002 	rsbseq	r0, sp, r2
  6c:	000000c0 	andeq	r0, r0, r0, asr #1
  70:	00000114 	andeq	r0, r0, r4, lsl r1
  74:	087d0002 	ldmdaeq	sp!, {r1}^
	...
  84:	00000004 	andeq	r0, r0, r4
  88:	007d0002 	rsbseq	r0, sp, r2
  8c:	00000004 	andeq	r0, r0, r4
  90:	00000008 	andeq	r0, r0, r8
  94:	087d0002 	ldmdaeq	sp!, {r1}^
  98:	00000008 	andeq	r0, r0, r8
  9c:	000000b4 	strheq	r0, [r0], -r4
  a0:	107d0002 	rsbsne	r0, sp, r2
	...
  ac:	000000b4 	strheq	r0, [r0], -r4
  b0:	000000b8 	strheq	r0, [r0], -r8
  b4:	007d0002 	rsbseq	r0, sp, r2
  b8:	000000b8 	strheq	r0, [r0], -r8
  bc:	000000bc 	strheq	r0, [r0], -ip
  c0:	047d0002 	ldrbteq	r0, [sp], #-2
  c4:	000000bc 	strheq	r0, [r0], -ip
  c8:	000000fc 	strdeq	r0, [r0], -ip
  cc:	107d0002 	rsbsne	r0, sp, r2
	...
  d8:	000000fc 	strdeq	r0, [r0], -ip
  dc:	00000100 	andeq	r0, r0, r0, lsl #2
  e0:	007d0002 	rsbseq	r0, sp, r2
  e4:	00000100 	andeq	r0, r0, r0, lsl #2
  e8:	00000138 	andeq	r0, r0, r8, lsr r1
  ec:	087d0002 	ldmdaeq	sp!, {r1}^
	...
  fc:	00000004 	andeq	r0, r0, r4
 100:	007d0002 	rsbseq	r0, sp, r2
 104:	00000004 	andeq	r0, r0, r4
 108:	00000008 	andeq	r0, r0, r8
 10c:	047d0002 	ldrbteq	r0, [sp], #-2
 110:	00000008 	andeq	r0, r0, r8
 114:	0000004c 	andeq	r0, r0, ip, asr #32
 118:	107d0002 	rsbsne	r0, sp, r2
	...
 124:	0000004c 	andeq	r0, r0, ip, asr #32
 128:	00000050 	andeq	r0, r0, r0, asr r0
 12c:	007d0002 	rsbseq	r0, sp, r2
 130:	00000050 	andeq	r0, r0, r0, asr r0
 134:	00000054 	andeq	r0, r0, r4, asr r0
 138:	047d0002 	ldrbteq	r0, [sp], #-2
 13c:	00000054 	andeq	r0, r0, r4, asr r0
 140:	000000f0 	strdeq	r0, [r0], -r0	; <UNPREDICTABLE>
 144:	187d0002 	ldmdane	sp!, {r1}^
	...
 150:	000000f0 	strdeq	r0, [r0], -r0	; <UNPREDICTABLE>
 154:	000000f4 	strdeq	r0, [r0], -r4
 158:	007d0002 	rsbseq	r0, sp, r2
 15c:	000000f4 	strdeq	r0, [r0], -r4
 160:	00000108 	andeq	r0, r0, r8, lsl #2
 164:	087d0002 	ldmdaeq	sp!, {r1}^
	...
 170:	00000108 	andeq	r0, r0, r8, lsl #2
 174:	0000010c 	andeq	r0, r0, ip, lsl #2
 178:	007d0002 	rsbseq	r0, sp, r2
 17c:	0000010c 	andeq	r0, r0, ip, lsl #2
 180:	00000120 	andeq	r0, r0, r0, lsr #2
 184:	087d0002 	ldmdaeq	sp!, {r1}^
	...
 190:	00000120 	andeq	r0, r0, r0, lsr #2
 194:	00000124 	andeq	r0, r0, r4, lsr #2
 198:	007d0002 	rsbseq	r0, sp, r2
 19c:	00000124 	andeq	r0, r0, r4, lsr #2
 1a0:	00000128 	andeq	r0, r0, r8, lsr #2
 1a4:	047d0002 	ldrbteq	r0, [sp], #-2
 1a8:	00000128 	andeq	r0, r0, r8, lsr #2
 1ac:	000001e0 	andeq	r0, r0, r0, ror #3
 1b0:	107d0002 	rsbsne	r0, sp, r2
	...
 1c0:	00000004 	andeq	r0, r0, r4
 1c4:	007d0002 	rsbseq	r0, sp, r2
 1c8:	00000004 	andeq	r0, r0, r4
 1cc:	00000008 	andeq	r0, r0, r8
 1d0:	047d0002 	ldrbteq	r0, [sp], #-2
 1d4:	00000008 	andeq	r0, r0, r8
 1d8:	00000054 	andeq	r0, r0, r4, asr r0
 1dc:	187d0002 	ldmdane	sp!, {r1}^
	...
 1e8:	00000054 	andeq	r0, r0, r4, asr r0
 1ec:	00000058 	andeq	r0, r0, r8, asr r0
 1f0:	007d0002 	rsbseq	r0, sp, r2
 1f4:	00000058 	andeq	r0, r0, r8, asr r0
 1f8:	0000005c 	andeq	r0, r0, ip, asr r0
 1fc:	047d0002 	ldrbteq	r0, [sp], #-2
 200:	0000005c 	andeq	r0, r0, ip, asr r0
 204:	000000d8 	ldrdeq	r0, [r0], -r8
 208:	207d0002 	rsbscs	r0, sp, r2
	...
 214:	000000d8 	ldrdeq	r0, [r0], -r8
 218:	000000dc 	ldrdeq	r0, [r0], -ip
 21c:	007d0002 	rsbseq	r0, sp, r2
 220:	000000dc 	ldrdeq	r0, [r0], -ip
 224:	000000e0 	andeq	r0, r0, r0, ror #1
 228:	047d0002 	ldrbteq	r0, [sp], #-2
 22c:	000000e0 	andeq	r0, r0, r0, ror #1
 230:	000001cc 	andeq	r0, r0, ip, asr #3
 234:	287d0002 	ldmdacs	sp!, {r1}^
	...
 240:	000001cc 	andeq	r0, r0, ip, asr #3
 244:	000001d0 	ldrdeq	r0, [r0], -r0	; <UNPREDICTABLE>
 248:	007d0002 	rsbseq	r0, sp, r2
 24c:	000001d0 	ldrdeq	r0, [r0], -r0	; <UNPREDICTABLE>
 250:	00000244 	andeq	r0, r0, r4, asr #4
 254:	087d0002 	ldmdaeq	sp!, {r1}^
	...
 260:	00000244 	andeq	r0, r0, r4, asr #4
 264:	00000248 	andeq	r0, r0, r8, asr #4
 268:	007d0002 	rsbseq	r0, sp, r2
 26c:	00000248 	andeq	r0, r0, r8, asr #4
 270:	0000024c 	andeq	r0, r0, ip, asr #4
 274:	047d0002 	ldrbteq	r0, [sp], #-2
 278:	0000024c 	andeq	r0, r0, ip, asr #4
 27c:	00000358 	andeq	r0, r0, r8, asr r3
 280:	107d0002 	rsbsne	r0, sp, r2
	...
 28c:	00000358 	andeq	r0, r0, r8, asr r3
 290:	0000035c 	andeq	r0, r0, ip, asr r3
 294:	007d0002 	rsbseq	r0, sp, r2
 298:	0000035c 	andeq	r0, r0, ip, asr r3
 29c:	000003b8 			; <UNDEFINED> instruction: 0x000003b8
 2a0:	087d0002 	ldmdaeq	sp!, {r1}^
	...
 2ac:	000003b8 			; <UNDEFINED> instruction: 0x000003b8
 2b0:	000003bc 			; <UNDEFINED> instruction: 0x000003bc
 2b4:	007d0002 	rsbseq	r0, sp, r2
 2b8:	000003bc 			; <UNDEFINED> instruction: 0x000003bc
 2bc:	000003c0 	andeq	r0, r0, r0, asr #7
 2c0:	047d0002 	ldrbteq	r0, [sp], #-2
 2c4:	000003c0 	andeq	r0, r0, r0, asr #7
 2c8:	0000042c 	andeq	r0, r0, ip, lsr #8
 2cc:	107d0002 	rsbsne	r0, sp, r2
	...
 2d8:	0000042c 	andeq	r0, r0, ip, lsr #8
 2dc:	00000430 	andeq	r0, r0, r0, lsr r4
 2e0:	007d0002 	rsbseq	r0, sp, r2
 2e4:	00000430 	andeq	r0, r0, r0, lsr r4
 2e8:	00000474 	andeq	r0, r0, r4, ror r4
 2ec:	087d0002 	ldmdaeq	sp!, {r1}^
	...
 2f8:	00000474 	andeq	r0, r0, r4, ror r4
 2fc:	00000478 	andeq	r0, r0, r8, ror r4
 300:	007d0002 	rsbseq	r0, sp, r2
 304:	00000478 	andeq	r0, r0, r8, ror r4
 308:	0000047c 	andeq	r0, r0, ip, ror r4
 30c:	047d0002 	ldrbteq	r0, [sp], #-2
 310:	0000047c 	andeq	r0, r0, ip, ror r4
 314:	00000608 	andeq	r0, r0, r8, lsl #12
 318:	107d0002 	rsbsne	r0, sp, r2
	...
 328:	00000004 	andeq	r0, r0, r4
 32c:	007d0002 	rsbseq	r0, sp, r2
 330:	00000004 	andeq	r0, r0, r4
 334:	0000003c 	andeq	r0, r0, ip, lsr r0
 338:	047d0002 	ldrbteq	r0, [sp], #-2
	...
 344:	0000003c 	andeq	r0, r0, ip, lsr r0
 348:	00000040 	andeq	r0, r0, r0, asr #32
 34c:	007d0002 	rsbseq	r0, sp, r2
 350:	00000040 	andeq	r0, r0, r0, asr #32
 354:	00000044 	andeq	r0, r0, r4, asr #32
 358:	047d0002 	ldrbteq	r0, [sp], #-2
 35c:	00000044 	andeq	r0, r0, r4, asr #32
 360:	0000008c 	andeq	r0, r0, ip, lsl #1
 364:	107d0002 	rsbsne	r0, sp, r2
	...
 370:	0000008c 	andeq	r0, r0, ip, lsl #1
 374:	00000090 	muleq	r0, r0, r0
 378:	007d0002 	rsbseq	r0, sp, r2
 37c:	00000090 	muleq	r0, r0, r0
 380:	00000094 	muleq	r0, r4, r0
 384:	047d0002 	ldrbteq	r0, [sp], #-2
 388:	00000094 	muleq	r0, r4, r0
 38c:	000000ec 	andeq	r0, r0, ip, ror #1
 390:	187d0002 	ldmdane	sp!, {r1}^
	...
 39c:	000000ec 	andeq	r0, r0, ip, ror #1
 3a0:	000000f0 	strdeq	r0, [r0], -r0	; <UNPREDICTABLE>
 3a4:	007d0002 	rsbseq	r0, sp, r2
 3a8:	000000f0 	strdeq	r0, [r0], -r0	; <UNPREDICTABLE>
 3ac:	000000f4 	strdeq	r0, [r0], -r4
 3b0:	047d0002 	ldrbteq	r0, [sp], #-2
 3b4:	000000f4 	strdeq	r0, [r0], -r4
 3b8:	00000120 	andeq	r0, r0, r0, lsr #2
 3bc:	107d0002 	rsbsne	r0, sp, r2
	...
 3c8:	00000120 	andeq	r0, r0, r0, lsr #2
 3cc:	00000124 	andeq	r0, r0, r4, lsr #2
 3d0:	007d0002 	rsbseq	r0, sp, r2
 3d4:	00000124 	andeq	r0, r0, r4, lsr #2
 3d8:	00000128 	andeq	r0, r0, r8, lsr #2
 3dc:	087d0002 	ldmdaeq	sp!, {r1}^
 3e0:	00000128 	andeq	r0, r0, r8, lsr #2
 3e4:	00000168 	andeq	r0, r0, r8, ror #2
 3e8:	107d0002 	rsbsne	r0, sp, r2
	...

Disassembly of section .debug_str:

00000000 <.debug_str>:
   0:	5f626370 	svcpl	0x00626370
   4:	73677261 	cmnvc	r7, #268435462	; 0x10000006
   8:	616d6b00 	cmnvs	sp, r0, lsl #22
   c:	63006e69 	movwvs	r6, #3689	; 0xe69
  10:	00427470 	subeq	r7, r2, r0, ror r4
  14:	7478656e 	ldrbtvc	r6, [r8], #-1390	; 0x56e
  18:	6263705f 	rsbvs	r7, r3, #95	; 0x5f
  1c:	6e756600 	cdpvs	6, 7, cr6, cr5, cr0, {0}
  20:	745f7463 	ldrbvc	r7, [pc], #-1123	; 28 <_start-0x7fd8>
  24:	6e756600 	cdpvs	6, 7, cr6, cr5, cr0, {0}
  28:	00437463 	subeq	r7, r3, r3, ror #8
  2c:	20554e47 	subscs	r4, r5, r7, asr #28
  30:	2e342043 	cdpcs	0, 3, cr2, cr4, cr3, {2}
  34:	00312e37 	eorseq	r2, r1, r7, lsr lr
  38:	43747063 	cmnmi	r4, #99	; 0x63
  3c:	49415700 	stmdbmi	r1, {r8, r9, sl, ip, lr}^
  40:	474e4954 	smlsldmi	r4, lr, r4, r9
  44:	6f682f00 	svcvs	0x00682f00
  48:	762f656d 	strtvc	r6, [pc], -sp, ror #10
  4c:	746d6f63 	strbtvc	r6, [sp], #-3939	; 0xf63
  50:	6f442f65 	svcvs	0x00442f65
  54:	656d7563 	strbvs	r7, [sp, #-1379]!	; 0x563
  58:	2f73746e 	svccs	0x0073746e
  5c:	522d7054 	eorpl	r7, sp, #84	; 0x54
  60:	62707361 	rsbsvs	r7, r0, #-2080374783	; 0x84000001
  64:	79727265 	ldmdbvc	r2!, {r0, r2, r5, r6, r9, ip, sp, lr}^
  68:	70736f2f 	rsbsvc	r6, r3, pc, lsr #30
  6c:	732d6569 	teqvc	sp, #440401920	; 0x1a400000
  70:	74726174 	ldrbtvc	r6, [r2], #-372	; 0x174
  74:	6d69542f 	cfstrdvs	mvd5, [r9, #-188]!	; 0xffffff44
  78:	6c732065 	ldclvs	0, cr2, [r3], #-404	; 0xfffffe6c
  7c:	2f656369 	svccs	0x00656369
  80:	522d734f 	eorpl	r7, sp, #1006632961	; 0x3c000001
  84:	65707361 	ldrbvs	r7, [r0, #-865]!	; 0x361
  88:	72726562 	rsbsvc	r6, r2, #411041792	; 0x18800000
  8c:	70630079 	rsbvc	r0, r3, r9, ror r0
  90:	66004174 			; <UNDEFINED> instruction: 0x66004174
  94:	74737269 	ldrbtvc	r7, [r3], #-617	; 0x269
  98:	6263705f 	rsbvs	r7, r3, #95	; 0x5f
  9c:	62637000 	rsbvs	r7, r3, #0
  a0:	6600665f 			; <UNDEFINED> instruction: 0x6600665f
  a4:	41636e75 	smcmi	14053	; 0x36e5
  a8:	69727000 	ldmdbvs	r2!, {ip, sp, lr}^
  ac:	7469726f 	strbtvc	r7, [r9], #-623	; 0x26f
  b0:	64610079 	strbtvs	r0, [r1], #-121	; 0x79
  b4:	73657264 	cmnvc	r5, #1073741830	; 0x40000006
  b8:	68630073 	stmdavs	r3!, {r0, r1, r4, r5, r6}^
  bc:	656e6961 	strbvs	r6, [lr, #-2401]!	; 0x961
  c0:	696c5f64 	stmdbvs	ip!, {r2, r5, r6, r8, r9, sl, fp, ip, lr}^
  c4:	54007473 	strpl	r7, [r0], #-1139	; 0x473
  c8:	494d5245 	stmdbmi	sp, {r0, r2, r6, r9, ip, lr}^
  cc:	4554414e 	ldrbmi	r4, [r4, #-334]	; 0x14e
  d0:	616c0044 	cmnvs	ip, r4, asr #32
  d4:	705f7473 	subsvc	r7, pc, r3, ror r4	; <UNPREDICTABLE>
  d8:	66006263 	strvs	r6, [r0], -r3, ror #4
  dc:	42636e75 	rsbmi	r6, r3, #1872	; 0x750
  e0:	78746300 	ldmdavc	r4!, {r8, r9, sp, lr}^
  e4:	5200735f 	andpl	r7, r0, #2080374785	; 0x7c000001
  e8:	494e4e55 	stmdbmi	lr, {r0, r2, r4, r6, r9, sl, fp, lr}^
  ec:	6b00474e 	blvs	11e2c <__bss_end+0x9094>
  f0:	656e7265 	strbvs	r7, [lr, #-613]!	; 0x265
  f4:	00632e6c 	rsbeq	r2, r3, ip, ror #28
  f8:	74617473 	strbtvc	r7, [r1], #-1139	; 0x473
  fc:	65740065 	ldrbvs	r0, [r4, #-101]!	; 0x65
 100:	4173706d 	cmnmi	r3, sp, rrx
 104:	6e657474 	mcrvs	4, 3, r7, cr5, cr4, {3}
 108:	70006574 	andvc	r6, r0, r4, ror r5
 10c:	735f6263 	cmpvc	pc, #805306374	; 0x30000006
 110:	696e6900 	stmdbvs	lr!, {r8, fp, sp, lr}^
 114:	70735f74 	rsbsvc	r5, r3, r4, ror pc
 118:	61745300 	cmnvs	r4, r0, lsl #6
 11c:	70006574 	andvc	r6, r0, r4, ror r5
 120:	635f6263 	cmpvs	pc, #805306374	; 0x30000006
 124:	70007874 	andvc	r7, r0, r4, ror r8
 128:	6c417968 	mcrrvs	9, 6, r7, r1, cr8
 12c:	2e636f6c 	cdpcs	15, 6, cr6, cr3, cr12, {3}
 130:	72700063 	rsbsvc	r0, r0, #99	; 0x63
 134:	66007665 	strvs	r7, [r0], -r5, ror #12
 138:	6c656572 	cfstr64vs	mvdx6, [r5], #-456	; 0xfffffe38
 13c:	00747369 	rsbseq	r7, r4, r9, ror #6
 140:	41796870 	cmnmi	r9, r0, ror r8
 144:	636f6c6c 	cmnvs	pc, #27648	; 0x6c00
 148:	6572665f 	ldrbvs	r6, [r2, #-1631]!	; 0x65f
 14c:	65680065 	strbvs	r0, [r8, #-101]!	; 0x65
 150:	735f7061 	cmpvc	pc, #97	; 0x61
 154:	74726174 	ldrbtvc	r6, [r2], #-372	; 0x174
 158:	78656e00 	stmdavc	r5!, {r9, sl, fp, sp, lr}^
 15c:	68700074 	ldmdavs	r0!, {r2, r4, r5, r6}^
 160:	6c6c4179 	stfvse	f4, [ip], #-484	; 0xfffffe1c
 164:	615f636f 	cmpvs	pc, pc, ror #6
 168:	636f6c6c 	cmnvs	pc, #27648	; 0x6c00
 16c:	79687000 	stmdbvc	r8!, {ip, sp, lr}^
 170:	6f6c6c41 	svcvs	0x006c6c41
 174:	6e695f63 	cdpvs	15, 6, cr5, cr9, cr3, {3}
 178:	68007469 	stmdavs	r0, {r0, r3, r5, r6, sl, ip, sp, lr}
 17c:	5f706165 	svcpl	0x00706165
 180:	696d696c 	stmdbvs	sp!, {r2, r3, r5, r6, r8, fp, sp, lr}^
 184:	65680074 	strbvs	r0, [r8, #-116]!	; 0x74
 188:	735f7061 	cmpvc	pc, #97	; 0x61
 18c:	00657a69 	rsbeq	r7, r5, r9, ror #20
 190:	69736e75 	ldmdbvs	r3!, {r0, r2, r4, r5, r6, r9, sl, fp, sp, lr}^
 194:	64656e67 	strbtvs	r6, [r5], #-3687	; 0xe67
 198:	61686320 	cmnvs	r8, r0, lsr #6
 19c:	77680072 			; <UNDEFINED> instruction: 0x77680072
 1a0:	6c00632e 	stcvs	3, cr6, [r0], {46}	; 0x2e
 1a4:	6f5f6465 	svcvs	0x005f6465
 1a8:	6573006e 	ldrbvs	r0, [r3, #-110]!	; 0x6e
 1ac:	69745f74 	ldmdbvs	r4!, {r2, r4, r5, r6, r8, r9, sl, fp, ip, lr}^
 1b0:	615f6b63 	cmpvs	pc, r3, ror #22
 1b4:	655f646e 	ldrbvs	r6, [pc, #-1134]	; fffffd4e <__bss_end+0xffff6fb6>
 1b8:	6c62616e 	stfvse	f6, [r2], #-440	; 0xfffffe48
 1bc:	69745f65 	ldmdbvs	r4!, {r0, r2, r5, r6, r8, r9, sl, fp, ip, lr}^
 1c0:	0072656d 	rsbseq	r6, r2, sp, ror #10
 1c4:	726f6873 	rsbvc	r6, pc, #7536640	; 0x730000
 1c8:	6e752074 	mrcvs	0, 3, r2, cr5, cr4, {3}
 1cc:	6e676973 	mcrvs	9, 3, r6, cr7, cr3, {3}
 1d0:	69206465 	stmdbvs	r0!, {r0, r2, r5, r6, sl, sp, lr}
 1d4:	6900746e 	stmdbvs	r0, {r1, r2, r3, r5, r6, sl, ip, sp, lr}
 1d8:	5f74696e 	svcpl	0x0074696e
 1dc:	73007768 	movwvc	r7, #1896	; 0x768
 1e0:	745f7465 	ldrbvc	r7, [pc], #-1125	; 1e8 <_start-0x7e18>
 1e4:	5f6b6369 	svcpl	0x006b6369
 1e8:	5f646e61 	svcpl	0x00646e61
 1ec:	62616e65 	rsbvs	r6, r1, #1616	; 0x650
 1f0:	745f656c 	ldrbvc	r6, [pc], #-1388	; 1f8 <_start-0x7e08>
 1f4:	72656d69 	rsbvc	r6, r5, #6720	; 0x1a40
 1f8:	0053545f 	subseq	r5, r3, pc, asr r4
 1fc:	5f64656c 	svcpl	0x0064656c
 200:	0066666f 	rsbeq	r6, r6, pc, ror #12
 204:	636f7270 	cmnvs	pc, #7
 208:	61747300 	cmnvs	r4, r0, lsl #6
 20c:	735f7472 	cmpvc	pc, #1912602624	; 0x72000000
 210:	64656863 	strbtvs	r6, [r5], #-2147	; 0x863
 214:	78746300 	ldmdavc	r4!, {r8, r9, sp, lr}^
 218:	6977735f 	ldmdbvs	r7!, {r0, r1, r2, r3, r4, r6, r8, r9, ip, sp, lr}^
 21c:	00686374 	rsbeq	r6, r8, r4, ror r3
 220:	65686373 	strbvs	r6, [r8, #-883]!	; 0x373
 224:	54505f64 	ldrbpl	r5, [r0], #-3940	; 0xf64
 228:	00632e53 	rsbeq	r2, r3, r3, asr lr
 22c:	74696e69 	strbtvc	r6, [r9], #-3689	; 0xe69
 230:	7874635f 	ldmdavc	r4!, {r0, r1, r2, r3, r4, r6, r8, r9, sp, lr}^
 234:	77656e00 	strbvc	r6, [r5, -r0, lsl #28]!
 238:	6263705f 	rsbvs	r7, r3, #95	; 0x5f
 23c:	78746300 	ldmdavc	r4!, {r8, r9, sp, lr}^
 240:	6977735f 	ldmdbvs	r7!, {r0, r1, r2, r3, r4, r6, r8, r9, ip, sp, lr}^
 244:	5f686374 	svcpl	0x00686374
 248:	6d6f7266 	sfmvs	f7, 2, [pc, #-408]!	; b8 <_start-0x7f48>
 24c:	7172695f 	cmnvc	r2, pc, asr r9
 250:	656c6500 	strbvs	r6, [ip, #-1280]!	; 0x500
 254:	73007463 	movwvc	r7, #1123	; 0x463
 258:	74726174 	ldrbtvc	r6, [r2], #-372	; 0x174
 25c:	7275635f 	rsbsvc	r6, r5, #2080374785	; 0x7c000001
 260:	746e6572 	strbtvc	r6, [lr], #-1394	; 0x572
 264:	6f72705f 	svcvs	0x0072705f
 268:	73736563 	cmnvc	r3, #415236096	; 0x18c00000
 26c:	6e6f6300 	cdpvs	3, 6, cr6, cr15, cr0, {0}
 270:	74786574 	ldrbtvc	r6, [r8], #-1396	; 0x574
 274:	64707500 	ldrbtvs	r7, [r0], #-1280	; 0x500
 278:	5f657461 	svcpl	0x00657461
 27c:	74696177 	strbtvc	r6, [r9], #-375	; 0x177
 280:	00676e69 	rsbeq	r6, r7, r9, ror #28
 284:	63617473 	cmnvs	r1, #1929379840	; 0x73000000
 288:	69735f6b 	ldmdbvs	r3!, {r0, r1, r3, r5, r6, r8, r9, sl, fp, ip, lr}^
 28c:	7400657a 	strvc	r6, [r0], #-1402	; 0x57a
 290:	696d7265 	stmdbvs	sp!, {r0, r2, r5, r6, r9, ip, sp, lr}^
 294:	6574616e 	ldrbvs	r6, [r4, #-366]!	; 0x16e
 298:	6f72705f 	svcvs	0x0072705f
 29c:	73736563 	cmnvc	r3, #415236096	; 0x18c00000
 2a0:	696e6900 	stmdbvs	lr!, {r8, fp, sp, lr}^
 2a4:	63705f74 	cmnvs	r0, #464	; 0x1d0
 2a8:	72630062 	rsbvc	r0, r3, #98	; 0x62
 2ac:	65746165 	ldrbvs	r6, [r4, #-357]!	; 0x165
 2b0:	6f72705f 	svcvs	0x0072705f
 2b4:	73736563 	cmnvc	r3, #415236096	; 0x18c00000
 2b8:	73797300 	cmnvc	r9, #0
 2bc:	6961775f 	stmdbvs	r1!, {r0, r1, r2, r3, r4, r6, r8, r9, sl, ip, sp, lr}^
 2c0:	6f640074 	svcvs	0x00640074
 2c4:	43737953 	cmnmi	r3, #1359872	; 0x14c000
 2c8:	576c6c61 	strbpl	r6, [ip, -r1, ror #24]!
 2cc:	00746961 	rsbseq	r6, r4, r1, ror #18
 2d0:	505f4d50 	subspl	r4, pc, r0, asr sp	; <UNPREDICTABLE>
 2d4:	57535341 	ldrbpl	r5, [r3, -r1, asr #6]
 2d8:	0044524f 	subeq	r5, r4, pc, asr #4
 2dc:	79536f64 	ldmdbvc	r3, {r2, r5, r6, r8, r9, sl, fp, sp, lr}^
 2e0:	6c614373 	stclvs	3, cr4, [r1], #-460	; 0xfffffe34
 2e4:	6265526c 	rsbvs	r5, r5, #-1073741818	; 0xc0000006
 2e8:	00746f6f 	rsbseq	r6, r4, pc, ror #30
 2ec:	5f737973 	svcpl	0x00737973
 2f0:	6f626572 	svcvs	0x00626572
 2f4:	5000746f 	andpl	r7, r0, pc, ror #8
 2f8:	53525f4d 	cmppl	r2, #308	; 0x134
 2fc:	575f4354 			; <UNDEFINED> instruction: 0x575f4354
 300:	47464352 	smlsldmi	r4, r6, r2, r3
 304:	4c55465f 	mrrcmi	6, 5, r4, r5, cr15
 308:	45525f4c 	ldrbmi	r5, [r2, #-3916]	; 0xf4c
 30c:	00544553 	subseq	r4, r4, r3, asr r5
 310:	33545550 	cmpcc	r4, #335544320	; 0x14000000
 314:	57530032 	smmlarpl	r3, r2, r0, r0
 318:	6e614849 	cdpvs	8, 6, cr4, cr1, cr9, {2}
 31c:	72656c64 	rsbvc	r6, r5, #25600	; 0x6400
 320:	51626e00 	cmnpl	r2, r0, lsl #28
 324:	746e6175 	strbtvc	r6, [lr], #-373	; 0x175
 328:	00736d75 	rsbseq	r6, r3, r5, ror sp
 32c:	575f4d50 			; <UNDEFINED> instruction: 0x575f4d50
 330:	00474f44 	subeq	r4, r7, r4, asr #30
 334:	525f4d50 	subspl	r4, pc, #5120	; 0x1400
 338:	00435453 	subeq	r5, r3, r3, asr r4
 33c:	536d756e 	cmnpl	sp, #461373440	; 0x1b800000
 340:	61437379 	hvcvs	14137	; 0x3739
 344:	73006c6c 	movwvc	r6, #3180	; 0xc6c
 348:	61637379 	smcvs	14137	; 0x3739
 34c:	632e6c6c 	teqvs	lr, #27648	; 0x6c00
	...

Disassembly of section .debug_frame:

00000000 <.debug_frame>:
   0:	0000000c 	andeq	r0, r0, ip
   4:	ffffffff 			; <UNDEFINED> instruction: 0xffffffff
   8:	7c020001 	stcvc	0, cr0, [r2], {1}
   c:	000d0c0e 	andeq	r0, sp, lr, lsl #24
  10:	00000010 	andeq	r0, r0, r0, lsl r0
  14:	00000000 	andeq	r0, r0, r0
  18:	000080d0 	ldrdeq	r8, [r0], -r0
  1c:	00000040 	andeq	r0, r0, r0, asr #32
  20:	00080e42 	andeq	r0, r8, r2, asr #28
  24:	00000010 	andeq	r0, r0, r0, lsl r0
  28:	00000000 	andeq	r0, r0, r0
  2c:	00008110 	andeq	r8, r0, r0, lsl r1
  30:	00000040 	andeq	r0, r0, r0, asr #32
  34:	00080e42 	andeq	r0, r8, r2, asr #28
  38:	00000010 	andeq	r0, r0, r0, lsl r0
  3c:	00000000 	andeq	r0, r0, r0
  40:	00008150 	andeq	r8, r0, r0, asr r1
  44:	0000003c 	andeq	r0, r0, ip, lsr r0
  48:	00080e42 	andeq	r0, r8, r2, asr #28
  4c:	00000014 	andeq	r0, r0, r4, lsl r0
  50:	00000000 	andeq	r0, r0, r0
  54:	0000818c 	andeq	r8, r0, ip, lsl #3
  58:	00000058 	andeq	r0, r0, r8, asr r0
  5c:	83080e42 	movwhi	r0, #36418	; 0x8e42
  60:	00018e02 	andeq	r8, r1, r2, lsl #28
  64:	0000000c 	andeq	r0, r0, ip
  68:	ffffffff 			; <UNDEFINED> instruction: 0xffffffff
  6c:	7c020001 	stcvc	0, cr0, [r2], {1}
  70:	000d0c0e 	andeq	r0, sp, lr, lsl #24
  74:	00000018 	andeq	r0, r0, r8, lsl r0
  78:	00000064 	andeq	r0, r0, r4, rrx
  7c:	000081e4 	andeq	r8, r0, r4, ror #3
  80:	000000b4 	strheq	r0, [r0], -r4
  84:	84080e42 	strhi	r0, [r8], #-3650	; 0xe42
  88:	42018502 	andmi	r8, r1, #8388608	; 0x800000
  8c:	0000100e 	andeq	r1, r0, lr
  90:	00000014 	andeq	r0, r0, r4, lsl r0
  94:	00000064 	andeq	r0, r0, r4, rrx
  98:	00008298 	muleq	r0, r8, r2
  9c:	00000048 	andeq	r0, r0, r8, asr #32
  a0:	84040e42 	strhi	r0, [r4], #-3650	; 0xe42
  a4:	100e4201 	andne	r4, lr, r1, lsl #4
  a8:	00000010 	andeq	r0, r0, r0, lsl r0
  ac:	00000064 	andeq	r0, r0, r4, rrx
  b0:	000082e0 	andeq	r8, r0, r0, ror #5
  b4:	0000003c 	andeq	r0, r0, ip, lsr r0
  b8:	00080e42 	andeq	r0, r8, r2, asr #28
  bc:	0000000c 	andeq	r0, r0, ip
  c0:	ffffffff 			; <UNDEFINED> instruction: 0xffffffff
  c4:	7c020001 	stcvc	0, cr0, [r2], {1}
  c8:	000d0c0e 	andeq	r0, sp, lr, lsl #24
  cc:	00000014 	andeq	r0, r0, r4, lsl r0
  d0:	000000bc 	strheq	r0, [r0], -ip
  d4:	0000831c 	andeq	r8, r0, ip, lsl r3
  d8:	0000004c 	andeq	r0, r0, ip, asr #32
  dc:	8e040e42 	cdphi	14, 0, cr0, cr4, cr2, {2}
  e0:	100e4201 	andne	r4, lr, r1, lsl #4
  e4:	00000014 	andeq	r0, r0, r4, lsl r0
  e8:	000000bc 	strheq	r0, [r0], -ip
  ec:	00008368 	andeq	r8, r0, r8, ror #6
  f0:	000000a4 	andeq	r0, r0, r4, lsr #1
  f4:	8e040e42 	cdphi	14, 0, cr0, cr4, cr2, {2}
  f8:	180e4201 	stmdane	lr, {r0, r9, lr}
  fc:	00000014 	andeq	r0, r0, r4, lsl r0
 100:	000000bc 	strheq	r0, [r0], -ip
 104:	0000840c 	andeq	r8, r0, ip, lsl #8
 108:	00000018 	andeq	r0, r0, r8, lsl r0
 10c:	83080e42 	movwhi	r0, #36418	; 0x8e42
 110:	00018e02 	andeq	r8, r1, r2, lsl #28
 114:	00000014 	andeq	r0, r0, r4, lsl r0
 118:	000000bc 	strheq	r0, [r0], -ip
 11c:	00008424 	andeq	r8, r0, r4, lsr #8
 120:	00000018 	andeq	r0, r0, r8, lsl r0
 124:	83080e42 	movwhi	r0, #36418	; 0x8e42
 128:	00018e02 	andeq	r8, r1, r2, lsl #28
 12c:	00000014 	andeq	r0, r0, r4, lsl r0
 130:	000000bc 	strheq	r0, [r0], -ip
 134:	0000843c 	andeq	r8, r0, ip, lsr r4
 138:	000000c0 	andeq	r0, r0, r0, asr #1
 13c:	8e040e42 	cdphi	14, 0, cr0, cr4, cr2, {2}
 140:	100e4201 	andne	r4, lr, r1, lsl #4
 144:	0000000c 	andeq	r0, r0, ip
 148:	ffffffff 			; <UNDEFINED> instruction: 0xffffffff
 14c:	7c020001 	stcvc	0, cr0, [r2], {1}
 150:	000d0c0e 	andeq	r0, sp, lr, lsl #24
 154:	00000014 	andeq	r0, r0, r4, lsl r0
 158:	00000144 	andeq	r0, r0, r4, asr #2
 15c:	000084fc 	strdeq	r8, [r0], -ip
 160:	00000054 	andeq	r0, r0, r4, asr r0
 164:	8e040e42 	cdphi	14, 0, cr0, cr4, cr2, {2}
 168:	180e4201 	stmdane	lr, {r0, r9, lr}
 16c:	00000014 	andeq	r0, r0, r4, lsl r0
 170:	00000144 	andeq	r0, r0, r4, asr #2
 174:	00008550 	andeq	r8, r0, r0, asr r5
 178:	00000084 	andeq	r0, r0, r4, lsl #1
 17c:	8e040e42 	cdphi	14, 0, cr0, cr4, cr2, {2}
 180:	200e4201 	andcs	r4, lr, r1, lsl #4
 184:	00000014 	andeq	r0, r0, r4, lsl r0
 188:	00000144 	andeq	r0, r0, r4, asr #2
 18c:	000085d4 	ldrdeq	r8, [r0], -r4
 190:	000000f4 	strdeq	r0, [r0], -r4
 194:	8e040e42 	cdphi	14, 0, cr0, cr4, cr2, {2}
 198:	280e4201 	stmdacs	lr, {r0, r9, lr}
 19c:	00000014 	andeq	r0, r0, r4, lsl r0
 1a0:	00000144 	andeq	r0, r0, r4, asr #2
 1a4:	000086c8 	andeq	r8, r0, r8, asr #13
 1a8:	00000078 	andeq	r0, r0, r8, ror r0
 1ac:	83080e42 	movwhi	r0, #36418	; 0x8e42
 1b0:	00018e02 	andeq	r8, r1, r2, lsl #28
 1b4:	00000014 	andeq	r0, r0, r4, lsl r0
 1b8:	00000144 	andeq	r0, r0, r4, asr #2
 1bc:	00008740 	andeq	r8, r0, r0, asr #14
 1c0:	00000114 	andeq	r0, r0, r4, lsl r1
 1c4:	8e040e42 	cdphi	14, 0, cr0, cr4, cr2, {2}
 1c8:	100e4201 	andne	r4, lr, r1, lsl #4
 1cc:	00000010 	andeq	r0, r0, r0, lsl r0
 1d0:	00000144 	andeq	r0, r0, r4, asr #2
 1d4:	00008854 	andeq	r8, r0, r4, asr r8
 1d8:	00000060 	andeq	r0, r0, r0, rrx
 1dc:	00080e42 	andeq	r0, r8, r2, asr #28
 1e0:	00000014 	andeq	r0, r0, r4, lsl r0
 1e4:	00000144 	andeq	r0, r0, r4, asr #2
 1e8:	000088b4 			; <UNDEFINED> instruction: 0x000088b4
 1ec:	00000074 	andeq	r0, r0, r4, ror r0
 1f0:	8e040e42 	cdphi	14, 0, cr0, cr4, cr2, {2}
 1f4:	100e4201 	andne	r4, lr, r1, lsl #4
 1f8:	00000014 	andeq	r0, r0, r4, lsl r0
 1fc:	00000144 	andeq	r0, r0, r4, asr #2
 200:	00008928 	andeq	r8, r0, r8, lsr #18
 204:	00000048 	andeq	r0, r0, r8, asr #32
 208:	83080e42 	movwhi	r0, #36418	; 0x8e42
 20c:	00018e02 	andeq	r8, r1, r2, lsl #28
 210:	00000014 	andeq	r0, r0, r4, lsl r0
 214:	00000144 	andeq	r0, r0, r4, asr #2
 218:	00008970 	andeq	r8, r0, r0, ror r9
 21c:	00000194 	muleq	r0, r4, r1
 220:	8e040e42 	cdphi	14, 0, cr0, cr4, cr2, {2}
 224:	100e4201 	andne	r4, lr, r1, lsl #4
 228:	0000000c 	andeq	r0, r0, ip
 22c:	00000144 	andeq	r0, r0, r4, asr #2
 230:	00008b04 	andeq	r8, r0, r4, lsl #22
 234:	00000114 	andeq	r0, r0, r4, lsl r1
 238:	0000000c 	andeq	r0, r0, ip
 23c:	ffffffff 			; <UNDEFINED> instruction: 0xffffffff
 240:	7c020001 	stcvc	0, cr0, [r2], {1}
 244:	000d0c0e 	andeq	r0, sp, lr, lsl #24
 248:	00000014 	andeq	r0, r0, r4, lsl r0
 24c:	00000238 	andeq	r0, r0, r8, lsr r2
 250:	00008c18 	andeq	r8, r0, r8, lsl ip
 254:	0000003c 	andeq	r0, r0, ip, lsr r0
 258:	8e040e42 	cdphi	14, 0, cr0, cr4, cr2, {2}
 25c:	00000001 	andeq	r0, r0, r1
 260:	00000014 	andeq	r0, r0, r4, lsl r0
 264:	00000238 	andeq	r0, r0, r8, lsr r2
 268:	00008c54 	andeq	r8, r0, r4, asr ip
 26c:	00000050 	andeq	r0, r0, r0, asr r0
 270:	8e040e42 	cdphi	14, 0, cr0, cr4, cr2, {2}
 274:	100e4201 	andne	r4, lr, r1, lsl #4
 278:	00000014 	andeq	r0, r0, r4, lsl r0
 27c:	00000238 	andeq	r0, r0, r8, lsr r2
 280:	00008ca4 	andeq	r8, r0, r4, lsr #25
 284:	00000060 	andeq	r0, r0, r0, rrx
 288:	8e040e42 	cdphi	14, 0, cr0, cr4, cr2, {2}
 28c:	180e4201 	stmdane	lr, {r0, r9, lr}
 290:	00000014 	andeq	r0, r0, r4, lsl r0
 294:	00000238 	andeq	r0, r0, r8, lsr r2
 298:	00008d04 	andeq	r8, r0, r4, lsl #26
 29c:	00000034 	andeq	r0, r0, r4, lsr r0
 2a0:	84040e42 	strhi	r0, [r4], #-3650	; 0xe42
 2a4:	100e4201 	andne	r4, lr, r1, lsl #4
 2a8:	00000018 	andeq	r0, r0, r8, lsl r0
 2ac:	00000238 	andeq	r0, r0, r8, lsr r2
 2b0:	00008d38 	andeq	r8, r0, r8, lsr sp
 2b4:	00000048 	andeq	r0, r0, r8, asr #32
 2b8:	84080e42 	strhi	r0, [r8], #-3650	; 0xe42
 2bc:	42018e02 	andmi	r8, r1, #32
 2c0:	0000100e 	andeq	r1, r0, lr
