
kernel.elf:     file format elf32-littlearm


Disassembly of section .text:

00008000 <_start>:
    8000:	e59ff018 	ldr	pc, [pc, #24]	; 8020 <reset_handler>
    8004:	e59ff018 	ldr	pc, [pc, #24]	; 8024 <undefined_handler>
    8008:	e59ff018 	ldr	pc, [pc, #24]	; 8028 <swi_handler>
    800c:	e59ff018 	ldr	pc, [pc, #24]	; 802c <prefetch_handler>
    8010:	e59ff018 	ldr	pc, [pc, #24]	; 8030 <data_handler>
    8014:	e59ff018 	ldr	pc, [pc, #24]	; 8034 <unused_handler>
    8018:	e59ff018 	ldr	pc, [pc, #24]	; 8038 <irq_handler>
    801c:	e59ff018 	ldr	pc, [pc, #24]	; 803c <fiq_handler>

00008020 <reset_handler>:
    8020:	00008040 	andeq	r8, r0, r0, asr #32

00008024 <undefined_handler>:
    8024:	00008084 	andeq	r8, r0, r4, lsl #1

00008028 <swi_handler>:
    8028:	00008088 	andeq	r8, r0, r8, lsl #1

0000802c <prefetch_handler>:
    802c:	0000808c 	andeq	r8, r0, ip, lsl #1

00008030 <data_handler>:
    8030:	00008090 	muleq	r0, r0, r0

00008034 <unused_handler>:
    8034:	00008094 	muleq	r0, r4, r0

00008038 <irq_handler>:
    8038:	000080cc 	andeq	r8, r0, ip, asr #1

0000803c <fiq_handler>:
    803c:	00008098 	muleq	r0, r8, r0

00008040 <reset>:
    8040:	e3a00902 	mov	r0, #32768	; 0x8000
    8044:	e3a01000 	mov	r1, #0
    8048:	e8b003fc 	ldm	r0!, {r2, r3, r4, r5, r6, r7, r8, r9}
    804c:	e8a103fc 	stmia	r1!, {r2, r3, r4, r5, r6, r7, r8, r9}
    8050:	e8b003fc 	ldm	r0!, {r2, r3, r4, r5, r6, r7, r8, r9}
    8054:	e8a103fc 	stmia	r1!, {r2, r3, r4, r5, r6, r7, r8, r9}
    8058:	e3a000d1 	mov	r0, #209	; 0xd1
    805c:	e121f000 	msr	CPSR_c, r0
    8060:	e3a0d90e 	mov	sp, #229376	; 0x38000
    8064:	e3a000d2 	mov	r0, #210	; 0xd2
    8068:	e121f000 	msr	CPSR_c, r0
    806c:	e3a0d701 	mov	sp, #262144	; 0x40000
    8070:	e3a000d3 	mov	r0, #211	; 0xd3
    8074:	e121f000 	msr	CPSR_c, r0
    8078:	e3a0d912 	mov	sp, #294912	; 0x48000
    807c:	eb00002f 	bl	8140 <kmain>

00008080 <hang>:
    8080:	eafffffe 	b	8080 <hang>

00008084 <undefined>:
    8084:	eafffffe 	b	8084 <undefined>

00008088 <swi>:
    8088:	eafffffe 	b	8088 <swi>

0000808c <prefetch>:
    808c:	eafffffe 	b	808c <prefetch>

00008090 <data>:
    8090:	eafffffe 	b	8090 <data>

00008094 <unused>:
    8094:	eafffffe 	b	8094 <unused>

00008098 <fiq>:
    8098:	eafffffe 	b	8098 <fiq>

0000809c <PUT32>:
    809c:	e5801000 	str	r1, [r0]
    80a0:	e12fff1e 	bx	lr

000080a4 <PUT16>:
    80a4:	e1c010b0 	strh	r1, [r0]
    80a8:	e12fff1e 	bx	lr

000080ac <PUT8>:
    80ac:	e5c01000 	strb	r1, [r0]
    80b0:	e12fff1e 	bx	lr

000080b4 <GET32>:
    80b4:	e5900000 	ldr	r0, [r0]
    80b8:	e12fff1e 	bx	lr

000080bc <GETPC>:
    80bc:	e1a0000e 	mov	r0, lr
    80c0:	e12fff1e 	bx	lr

000080c4 <BRANCHTO>:
    80c4:	e12fff10 	bx	r0

000080c8 <dummy>:
    80c8:	e12fff1e 	bx	lr

000080cc <irq>:
    80cc:	ea00019c 	b	8744 <ctx_switch_from_irq>

000080d0 <funcA>:
    80d0:	e24dd008 	sub	sp, sp, #8
    80d4:	e3a03000 	mov	r3, #0
    80d8:	e58d3004 	str	r3, [sp, #4]
    80dc:	ea000000 	b	80e4 <funcA+0x14>
    80e0:	e1a00000 	nop			; (mov r0, r0)
    80e4:	e59d3004 	ldr	r3, [sp, #4]
    80e8:	e2833001 	add	r3, r3, #1
    80ec:	e58d3004 	str	r3, [sp, #4]
    80f0:	e59d2004 	ldr	r2, [sp, #4]
    80f4:	e59f3010 	ldr	r3, [pc, #16]	; 810c <funcA+0x3c>
    80f8:	e1520003 	cmp	r2, r3
    80fc:	dafffff7 	ble	80e0 <funcA+0x10>
    8100:	e3a03000 	mov	r3, #0
    8104:	e58d3004 	str	r3, [sp, #4]
    8108:	eafffff4 	b	80e0 <funcA+0x10>
    810c:	0016e360 	andseq	lr, r6, r0, ror #6

00008110 <funcB>:
    8110:	e24dd008 	sub	sp, sp, #8
    8114:	e3a03001 	mov	r3, #1
    8118:	e58d3004 	str	r3, [sp, #4]
    811c:	ea000002 	b	812c <funcB+0x1c>
    8120:	e59d3004 	ldr	r3, [sp, #4]
    8124:	e2833002 	add	r3, r3, #2
    8128:	e58d3004 	str	r3, [sp, #4]
    812c:	e59d3004 	ldr	r3, [sp, #4]
    8130:	e3530001 	cmp	r3, #1
    8134:	dafffff9 	ble	8120 <funcB+0x10>
    8138:	e28dd008 	add	sp, sp, #8
    813c:	e12fff1e 	bx	lr

00008140 <kmain>:
    8140:	e92d4008 	push	{r3, lr}
    8144:	eb000078 	bl	832c <init_hw>
    8148:	e59f0020 	ldr	r0, [pc, #32]	; 8170 <kmain+0x30>
    814c:	e3a01000 	mov	r1, #0
    8150:	e3a02b02 	mov	r2, #2048	; 0x800
    8154:	eb0000d4 	bl	84ac <create_process>
    8158:	e59f0014 	ldr	r0, [pc, #20]	; 8174 <kmain+0x34>
    815c:	e3a01000 	mov	r1, #0
    8160:	e3a02b02 	mov	r2, #2048	; 0x800
    8164:	eb0000d0 	bl	84ac <create_process>
    8168:	eb000167 	bl	870c <start_sched>
    816c:	eafffffe 	b	816c <kmain+0x2c>
    8170:	000080d0 	ldrdeq	r8, [r0], -r0
    8174:	00008110 	andeq	r8, r0, r0, lsl r1

00008178 <phyAlloc_alloc>:
    8178:	e92d0030 	push	{r4, r5}
    817c:	e24dd008 	sub	sp, sp, #8
    8180:	e58d0004 	str	r0, [sp, #4]
    8184:	e59f3094 	ldr	r3, [pc, #148]	; 8220 <phyAlloc_alloc+0xa8>
    8188:	e5934000 	ldr	r4, [r3]
    818c:	e59f508c 	ldr	r5, [pc, #140]	; 8220 <phyAlloc_alloc+0xa8>
    8190:	ea000001 	b	819c <phyAlloc_alloc+0x24>
    8194:	e1a05004 	mov	r5, r4
    8198:	e5944000 	ldr	r4, [r4]
    819c:	e3540000 	cmp	r4, #0
    81a0:	0a000003 	beq	81b4 <phyAlloc_alloc+0x3c>
    81a4:	e5942004 	ldr	r2, [r4, #4]
    81a8:	e59d3004 	ldr	r3, [sp, #4]
    81ac:	e1520003 	cmp	r2, r3
    81b0:	3afffff7 	bcc	8194 <phyAlloc_alloc+0x1c>
    81b4:	e3540000 	cmp	r4, #0
    81b8:	1a000011 	bne	8204 <phyAlloc_alloc+0x8c>
    81bc:	e59f3060 	ldr	r3, [pc, #96]	; 8224 <phyAlloc_alloc+0xac>
    81c0:	e5934000 	ldr	r4, [r3]
    81c4:	e59f3058 	ldr	r3, [pc, #88]	; 8224 <phyAlloc_alloc+0xac>
    81c8:	e5932000 	ldr	r2, [r3]
    81cc:	e59d3004 	ldr	r3, [sp, #4]
    81d0:	e2833003 	add	r3, r3, #3
    81d4:	e3c33003 	bic	r3, r3, #3
    81d8:	e0822003 	add	r2, r2, r3
    81dc:	e59f3040 	ldr	r3, [pc, #64]	; 8224 <phyAlloc_alloc+0xac>
    81e0:	e5832000 	str	r2, [r3]
    81e4:	e59f3038 	ldr	r3, [pc, #56]	; 8224 <phyAlloc_alloc+0xac>
    81e8:	e5932000 	ldr	r2, [r3]
    81ec:	e59f3034 	ldr	r3, [pc, #52]	; 8228 <phyAlloc_alloc+0xb0>
    81f0:	e5933000 	ldr	r3, [r3]
    81f4:	e1520003 	cmp	r2, r3
    81f8:	9a000003 	bls	820c <phyAlloc_alloc+0x94>
    81fc:	e3a03000 	mov	r3, #0
    8200:	ea000002 	b	8210 <phyAlloc_alloc+0x98>
    8204:	e5943000 	ldr	r3, [r4]
    8208:	e5853000 	str	r3, [r5]
    820c:	e1a03004 	mov	r3, r4
    8210:	e1a00003 	mov	r0, r3
    8214:	e28dd008 	add	sp, sp, #8
    8218:	e8bd0030 	pop	{r4, r5}
    821c:	e12fff1e 	bx	lr
    8220:	000089dc 	ldrdeq	r8, [r0], -ip
    8224:	000089e0 	andeq	r8, r0, r0, ror #19
    8228:	000089e4 	andeq	r8, r0, r4, ror #19

0000822c <phyAlloc_free>:
    822c:	e52d4004 	push	{r4}		; (str r4, [sp, #-4]!)
    8230:	e24dd00c 	sub	sp, sp, #12
    8234:	e58d0004 	str	r0, [sp, #4]
    8238:	e58d1000 	str	r1, [sp]
    823c:	e59d4004 	ldr	r4, [sp, #4]
    8240:	e59d3000 	ldr	r3, [sp]
    8244:	e2833003 	add	r3, r3, #3
    8248:	e3c33003 	bic	r3, r3, #3
    824c:	e5843004 	str	r3, [r4, #4]
    8250:	e59f3018 	ldr	r3, [pc, #24]	; 8270 <phyAlloc_free+0x44>
    8254:	e5933000 	ldr	r3, [r3]
    8258:	e5843000 	str	r3, [r4]
    825c:	e59f300c 	ldr	r3, [pc, #12]	; 8270 <phyAlloc_free+0x44>
    8260:	e5834000 	str	r4, [r3]
    8264:	e28dd00c 	add	sp, sp, #12
    8268:	e8bd0010 	pop	{r4}
    826c:	e12fff1e 	bx	lr
    8270:	000089dc 	ldrdeq	r8, [r0], -ip

00008274 <phyAlloc_init>:
    8274:	e24dd008 	sub	sp, sp, #8
    8278:	e58d0004 	str	r0, [sp, #4]
    827c:	e58d1000 	str	r1, [sp]
    8280:	e59f3020 	ldr	r3, [pc, #32]	; 82a8 <phyAlloc_init+0x34>
    8284:	e59d2004 	ldr	r2, [sp, #4]
    8288:	e5832000 	str	r2, [r3]
    828c:	e59d2004 	ldr	r2, [sp, #4]
    8290:	e59d3000 	ldr	r3, [sp]
    8294:	e0822003 	add	r2, r2, r3
    8298:	e59f300c 	ldr	r3, [pc, #12]	; 82ac <phyAlloc_init+0x38>
    829c:	e5832000 	str	r2, [r3]
    82a0:	e28dd008 	add	sp, sp, #8
    82a4:	e12fff1e 	bx	lr
    82a8:	000089e0 	andeq	r8, r0, r0, ror #19
    82ac:	000089e4 	andeq	r8, r0, r4, ror #19

000082b0 <set_tick_and_enable_timer>:
    82b0:	e52de004 	push	{lr}		; (str lr, [sp, #-4]!)
    82b4:	e24dd00c 	sub	sp, sp, #12
    82b8:	e59f0030 	ldr	r0, [pc, #48]	; 82f0 <set_tick_and_enable_timer+0x40>
    82bc:	ebffff7c 	bl	80b4 <GET32>
    82c0:	e58d0004 	str	r0, [sp, #4]
    82c4:	e59d3004 	ldr	r3, [sp, #4]
    82c8:	e2833702 	add	r3, r3, #524288	; 0x80000
    82cc:	e58d3004 	str	r3, [sp, #4]
    82d0:	e59f001c 	ldr	r0, [pc, #28]	; 82f4 <set_tick_and_enable_timer+0x44>
    82d4:	e59d1004 	ldr	r1, [sp, #4]
    82d8:	ebffff6f 	bl	809c <PUT32>
    82dc:	e59f0014 	ldr	r0, [pc, #20]	; 82f8 <set_tick_and_enable_timer+0x48>
    82e0:	e3a01002 	mov	r1, #2
    82e4:	ebffff6c 	bl	809c <PUT32>
    82e8:	e28dd00c 	add	sp, sp, #12
    82ec:	e8bd8000 	pop	{pc}
    82f0:	20003004 	andcs	r3, r0, r4
    82f4:	20003010 	andcs	r3, r0, r0, lsl r0
    82f8:	20003000 	andcs	r3, r0, r0

000082fc <led_off>:
    82fc:	e92d4008 	push	{r3, lr}
    8300:	e59f0008 	ldr	r0, [pc, #8]	; 8310 <led_off+0x14>
    8304:	e3a01801 	mov	r1, #65536	; 0x10000
    8308:	ebffff63 	bl	809c <PUT32>
    830c:	e8bd8008 	pop	{r3, pc}
    8310:	2020001c 	eorcs	r0, r0, ip, lsl r0

00008314 <led_on>:
    8314:	e92d4008 	push	{r3, lr}
    8318:	e59f0008 	ldr	r0, [pc, #8]	; 8328 <led_on+0x14>
    831c:	e3a01801 	mov	r1, #65536	; 0x10000
    8320:	ebffff5d 	bl	809c <PUT32>
    8324:	e8bd8008 	pop	{r3, pc}
    8328:	20200028 	eorcs	r0, r0, r8, lsr #32

0000832c <init_hw>:
    832c:	e52de004 	push	{lr}		; (str lr, [sp, #-4]!)
    8330:	e24dd00c 	sub	sp, sp, #12
    8334:	e59f0098 	ldr	r0, [pc, #152]	; 83d4 <init_hw+0xa8>
    8338:	ebffff5d 	bl	80b4 <GET32>
    833c:	e58d0004 	str	r0, [sp, #4]
    8340:	e59d3004 	ldr	r3, [sp, #4]
    8344:	e3c33707 	bic	r3, r3, #1835008	; 0x1c0000
    8348:	e58d3004 	str	r3, [sp, #4]
    834c:	e59d3004 	ldr	r3, [sp, #4]
    8350:	e3833701 	orr	r3, r3, #262144	; 0x40000
    8354:	e58d3004 	str	r3, [sp, #4]
    8358:	e59f0074 	ldr	r0, [pc, #116]	; 83d4 <init_hw+0xa8>
    835c:	e59d1004 	ldr	r1, [sp, #4]
    8360:	ebffff4d 	bl	809c <PUT32>
    8364:	e59f006c 	ldr	r0, [pc, #108]	; 83d8 <init_hw+0xac>
    8368:	e3a01801 	mov	r1, #65536	; 0x10000
    836c:	ebffff4a 	bl	809c <PUT32>
    8370:	e59f0064 	ldr	r0, [pc, #100]	; 83dc <init_hw+0xb0>
    8374:	ebffff4e 	bl	80b4 <GET32>
    8378:	e58d0000 	str	r0, [sp]
    837c:	e59d3000 	ldr	r3, [sp]
    8380:	e2833702 	add	r3, r3, #524288	; 0x80000
    8384:	e58d3000 	str	r3, [sp]
    8388:	e59f0050 	ldr	r0, [pc, #80]	; 83e0 <init_hw+0xb4>
    838c:	e59d1000 	ldr	r1, [sp]
    8390:	ebffff41 	bl	809c <PUT32>
    8394:	e59f0048 	ldr	r0, [pc, #72]	; 83e4 <init_hw+0xb8>
    8398:	e3a01002 	mov	r1, #2
    839c:	ebffff3e 	bl	809c <PUT32>
    83a0:	e59f0040 	ldr	r0, [pc, #64]	; 83e8 <init_hw+0xbc>
    83a4:	e3a01002 	mov	r1, #2
    83a8:	ebffff3b 	bl	809c <PUT32>
    83ac:	e92d0001 	push	{r0}
    83b0:	e10f0000 	mrs	r0, CPSR
    83b4:	e3800080 	orr	r0, r0, #128	; 0x80
    83b8:	e121f000 	msr	CPSR_c, r0
    83bc:	e8bd0001 	pop	{r0}
    83c0:	e3a00805 	mov	r0, #327680	; 0x50000
    83c4:	e3a01a32 	mov	r1, #204800	; 0x32000
    83c8:	ebffffa9 	bl	8274 <phyAlloc_init>
    83cc:	e28dd00c 	add	sp, sp, #12
    83d0:	e8bd8000 	pop	{pc}
    83d4:	20200004 	eorcs	r0, r0, r4
    83d8:	2020001c 	eorcs	r0, r0, ip, lsl r0
    83dc:	20003004 	andcs	r3, r0, r4
    83e0:	20003010 	andcs	r3, r0, r0, lsl r0
    83e4:	20003000 	andcs	r3, r0, r0
    83e8:	2000b210 	andcs	fp, r0, r0, lsl r2

000083ec <init_ctx>:
    83ec:	e52de004 	push	{lr}		; (str lr, [sp, #-4]!)
    83f0:	e24dd014 	sub	sp, sp, #20
    83f4:	e58d000c 	str	r0, [sp, #12]
    83f8:	e58d1008 	str	r1, [sp, #8]
    83fc:	e58d2004 	str	r2, [sp, #4]
    8400:	e59d0004 	ldr	r0, [sp, #4]
    8404:	ebffff5b 	bl	8178 <phyAlloc_alloc>
    8408:	e1a02000 	mov	r2, r0
    840c:	e59d300c 	ldr	r3, [sp, #12]
    8410:	e5832008 	str	r2, [r3, #8]
    8414:	e59d300c 	ldr	r3, [sp, #12]
    8418:	e5933008 	ldr	r3, [r3, #8]
    841c:	e2833e7f 	add	r3, r3, #2032	; 0x7f0
    8420:	e283300c 	add	r3, r3, #12
    8424:	e59d200c 	ldr	r2, [sp, #12]
    8428:	e5823000 	str	r3, [r2]
    842c:	e59d300c 	ldr	r3, [sp, #12]
    8430:	e59d2008 	ldr	r2, [sp, #8]
    8434:	e5832004 	str	r2, [r3, #4]
    8438:	e28dd014 	add	sp, sp, #20
    843c:	e8bd8000 	pop	{pc}

00008440 <init_pcb>:
    8440:	e52de004 	push	{lr}		; (str lr, [sp, #-4]!)
    8444:	e24dd01c 	sub	sp, sp, #28
    8448:	e58d000c 	str	r0, [sp, #12]
    844c:	e58d1008 	str	r1, [sp, #8]
    8450:	e58d2004 	str	r2, [sp, #4]
    8454:	e58d3000 	str	r3, [sp]
    8458:	e59d300c 	ldr	r3, [sp, #12]
    845c:	e59d2008 	ldr	r2, [sp, #8]
    8460:	e5832008 	str	r2, [r3, #8]
    8464:	e59d300c 	ldr	r3, [sp, #12]
    8468:	e59d2000 	ldr	r2, [sp]
    846c:	e5832004 	str	r2, [r3, #4]
    8470:	e3a0000c 	mov	r0, #12
    8474:	ebffff3f 	bl	8178 <phyAlloc_alloc>
    8478:	e58d0014 	str	r0, [sp, #20]
    847c:	e59d0014 	ldr	r0, [sp, #20]
    8480:	e59d1008 	ldr	r1, [sp, #8]
    8484:	e59d2004 	ldr	r2, [sp, #4]
    8488:	ebffffd7 	bl	83ec <init_ctx>
    848c:	e59d300c 	ldr	r3, [sp, #12]
    8490:	e59d2014 	ldr	r2, [sp, #20]
    8494:	e583200c 	str	r2, [r3, #12]
    8498:	e59d300c 	ldr	r3, [sp, #12]
    849c:	e3a02000 	mov	r2, #0
    84a0:	e5832010 	str	r2, [r3, #16]
    84a4:	e28dd01c 	add	sp, sp, #28
    84a8:	e8bd8000 	pop	{pc}

000084ac <create_process>:
    84ac:	e52de004 	push	{lr}		; (str lr, [sp, #-4]!)
    84b0:	e24dd01c 	sub	sp, sp, #28
    84b4:	e58d000c 	str	r0, [sp, #12]
    84b8:	e58d1008 	str	r1, [sp, #8]
    84bc:	e58d2004 	str	r2, [sp, #4]
    84c0:	e3a00018 	mov	r0, #24
    84c4:	ebffff2b 	bl	8178 <phyAlloc_alloc>
    84c8:	e58d0014 	str	r0, [sp, #20]
    84cc:	e59d0014 	ldr	r0, [sp, #20]
    84d0:	e59d100c 	ldr	r1, [sp, #12]
    84d4:	e59d2004 	ldr	r2, [sp, #4]
    84d8:	e59d3008 	ldr	r3, [sp, #8]
    84dc:	ebffffd7 	bl	8440 <init_pcb>
    84e0:	e59f30a8 	ldr	r3, [pc, #168]	; 8590 <create_process+0xe4>
    84e4:	e5933000 	ldr	r3, [r3]
    84e8:	e5933010 	ldr	r3, [r3, #16]
    84ec:	e3530000 	cmp	r3, #0
    84f0:	0a000018 	beq	8558 <create_process+0xac>
    84f4:	e59f3094 	ldr	r3, [pc, #148]	; 8590 <create_process+0xe4>
    84f8:	e5933000 	ldr	r3, [r3]
    84fc:	e5933010 	ldr	r3, [r3, #16]
    8500:	e3530001 	cmp	r3, #1
    8504:	0a000013 	beq	8558 <create_process+0xac>
    8508:	e59f3080 	ldr	r3, [pc, #128]	; 8590 <create_process+0xe4>
    850c:	e5933000 	ldr	r3, [r3]
    8510:	e5933010 	ldr	r3, [r3, #16]
    8514:	e3530003 	cmp	r3, #3
    8518:	0a00000e 	beq	8558 <create_process+0xac>
    851c:	e59f306c 	ldr	r3, [pc, #108]	; 8590 <create_process+0xe4>
    8520:	e5933000 	ldr	r3, [r3]
    8524:	e5933010 	ldr	r3, [r3, #16]
    8528:	e3530002 	cmp	r3, #2
    852c:	0a000009 	beq	8558 <create_process+0xac>
    8530:	e59f3058 	ldr	r3, [pc, #88]	; 8590 <create_process+0xe4>
    8534:	e59d2014 	ldr	r2, [sp, #20]
    8538:	e5832000 	str	r2, [r3]
    853c:	e59f304c 	ldr	r3, [pc, #76]	; 8590 <create_process+0xe4>
    8540:	e59d2014 	ldr	r2, [sp, #20]
    8544:	e5832000 	str	r2, [r3]
    8548:	e59f3040 	ldr	r3, [pc, #64]	; 8590 <create_process+0xe4>
    854c:	e59d2014 	ldr	r2, [sp, #20]
    8550:	e5832004 	str	r2, [r3, #4]
    8554:	ea00000b 	b	8588 <create_process+0xdc>
    8558:	e59f3030 	ldr	r3, [pc, #48]	; 8590 <create_process+0xe4>
    855c:	e5933004 	ldr	r3, [r3, #4]
    8560:	e59d2014 	ldr	r2, [sp, #20]
    8564:	e5832000 	str	r2, [r3]
    8568:	e59f3020 	ldr	r3, [pc, #32]	; 8590 <create_process+0xe4>
    856c:	e59d2014 	ldr	r2, [sp, #20]
    8570:	e5832004 	str	r2, [r3, #4]
    8574:	e59f3014 	ldr	r3, [pc, #20]	; 8590 <create_process+0xe4>
    8578:	e5933004 	ldr	r3, [r3, #4]
    857c:	e59f200c 	ldr	r2, [pc, #12]	; 8590 <create_process+0xe4>
    8580:	e5922000 	ldr	r2, [r2]
    8584:	e5832000 	str	r2, [r3]
    8588:	e28dd01c 	add	sp, sp, #28
    858c:	e8bd8000 	pop	{pc}
    8590:	000089e8 	andeq	r8, r0, r8, ror #19

00008594 <start_current_process>:
    8594:	e92d4008 	push	{r3, lr}
    8598:	e92d0001 	push	{r0}
    859c:	e10f0000 	mrs	r0, CPSR
    85a0:	e3c00080 	bic	r0, r0, #128	; 0x80
    85a4:	e121f000 	msr	CPSR_c, r0
    85a8:	e8bd0001 	pop	{r0}
    85ac:	ebffff3f 	bl	82b0 <set_tick_and_enable_timer>
    85b0:	e59f3040 	ldr	r3, [pc, #64]	; 85f8 <start_current_process+0x64>
    85b4:	e5933000 	ldr	r3, [r3]
    85b8:	e3a02002 	mov	r2, #2
    85bc:	e5832010 	str	r2, [r3, #16]
    85c0:	e59f3030 	ldr	r3, [pc, #48]	; 85f8 <start_current_process+0x64>
    85c4:	e5933000 	ldr	r3, [r3]
    85c8:	e5933008 	ldr	r3, [r3, #8]
    85cc:	e12fff33 	blx	r3
    85d0:	e92d0001 	push	{r0}
    85d4:	e10f0000 	mrs	r0, CPSR
    85d8:	e3800080 	orr	r0, r0, #128	; 0x80
    85dc:	e121f000 	msr	CPSR_c, r0
    85e0:	e8bd0001 	pop	{r0}
    85e4:	e59f300c 	ldr	r3, [pc, #12]	; 85f8 <start_current_process+0x64>
    85e8:	e5933000 	ldr	r3, [r3]
    85ec:	e3a02003 	mov	r2, #3
    85f0:	e5832010 	str	r2, [r3, #16]
    85f4:	e8bd8008 	pop	{r3, pc}
    85f8:	000089f0 	strdeq	r8, [r0], -r0

000085fc <terminate_process>:
    85fc:	e52de004 	push	{lr}		; (str lr, [sp, #-4]!)
    8600:	e24dd00c 	sub	sp, sp, #12
    8604:	e59f30e0 	ldr	r3, [pc, #224]	; 86ec <terminate_process+0xf0>
    8608:	e5933000 	ldr	r3, [r3]
    860c:	e58d3004 	str	r3, [sp, #4]
    8610:	ea00002d 	b	86cc <terminate_process+0xd0>
    8614:	e59d3004 	ldr	r3, [sp, #4]
    8618:	e5933000 	ldr	r3, [r3]
    861c:	e58d3004 	str	r3, [sp, #4]
    8620:	ea000000 	b	8628 <terminate_process+0x2c>
    8624:	e1a00000 	nop			; (mov r0, r0)
    8628:	e59d3004 	ldr	r3, [sp, #4]
    862c:	e5933000 	ldr	r3, [r3]
    8630:	e5933010 	ldr	r3, [r3, #16]
    8634:	e3530003 	cmp	r3, #3
    8638:	0a000005 	beq	8654 <terminate_process+0x58>
    863c:	e59d3004 	ldr	r3, [sp, #4]
    8640:	e5932000 	ldr	r2, [r3]
    8644:	e59f30a0 	ldr	r3, [pc, #160]	; 86ec <terminate_process+0xf0>
    8648:	e5933000 	ldr	r3, [r3]
    864c:	e1520003 	cmp	r2, r3
    8650:	1affffef 	bne	8614 <terminate_process+0x18>
    8654:	e59d3004 	ldr	r3, [sp, #4]
    8658:	e5933000 	ldr	r3, [r3]
    865c:	e5933010 	ldr	r3, [r3, #16]
    8660:	e3530003 	cmp	r3, #3
    8664:	1a000018 	bne	86cc <terminate_process+0xd0>
    8668:	e59d3004 	ldr	r3, [sp, #4]
    866c:	e5933000 	ldr	r3, [r3]
    8670:	e5933000 	ldr	r3, [r3]
    8674:	e58d3000 	str	r3, [sp]
    8678:	e59d3004 	ldr	r3, [sp, #4]
    867c:	e5933000 	ldr	r3, [r3]
    8680:	e593300c 	ldr	r3, [r3, #12]
    8684:	e5933008 	ldr	r3, [r3, #8]
    8688:	e1a00003 	mov	r0, r3
    868c:	e3a01b02 	mov	r1, #2048	; 0x800
    8690:	ebfffee5 	bl	822c <phyAlloc_free>
    8694:	e59d3004 	ldr	r3, [sp, #4]
    8698:	e5933000 	ldr	r3, [r3]
    869c:	e593300c 	ldr	r3, [r3, #12]
    86a0:	e1a00003 	mov	r0, r3
    86a4:	e3a0100c 	mov	r1, #12
    86a8:	ebfffedf 	bl	822c <phyAlloc_free>
    86ac:	e59d3004 	ldr	r3, [sp, #4]
    86b0:	e5933000 	ldr	r3, [r3]
    86b4:	e1a00003 	mov	r0, r3
    86b8:	e3a01018 	mov	r1, #24
    86bc:	ebfffeda 	bl	822c <phyAlloc_free>
    86c0:	e59d3004 	ldr	r3, [sp, #4]
    86c4:	e59d2000 	ldr	r2, [sp]
    86c8:	e5832000 	str	r2, [r3]
    86cc:	e59d3004 	ldr	r3, [sp, #4]
    86d0:	e5932000 	ldr	r2, [r3]
    86d4:	e59f3010 	ldr	r3, [pc, #16]	; 86ec <terminate_process+0xf0>
    86d8:	e5933000 	ldr	r3, [r3]
    86dc:	e1520003 	cmp	r2, r3
    86e0:	1affffcf 	bne	8624 <terminate_process+0x28>
    86e4:	e28dd00c 	add	sp, sp, #12
    86e8:	e8bd8000 	pop	{pc}
    86ec:	000089e8 	andeq	r8, r0, r8, ror #19

000086f0 <elect>:
    86f0:	e59f3010 	ldr	r3, [pc, #16]	; 8708 <elect+0x18>
    86f4:	e5933000 	ldr	r3, [r3]
    86f8:	e5932000 	ldr	r2, [r3]
    86fc:	e59f3004 	ldr	r3, [pc, #4]	; 8708 <elect+0x18>
    8700:	e5832000 	str	r2, [r3]
    8704:	e12fff1e 	bx	lr
    8708:	000089f0 	strdeq	r8, [r0], -r0

0000870c <start_sched>:
    870c:	e92d4008 	push	{r3, lr}
    8710:	e92d0001 	push	{r0}
    8714:	e10f0000 	mrs	r0, CPSR
    8718:	e3c00080 	bic	r0, r0, #128	; 0x80
    871c:	e121f000 	msr	CPSR_c, r0
    8720:	e8bd0001 	pop	{r0}
    8724:	ebfffee1 	bl	82b0 <set_tick_and_enable_timer>
    8728:	e59f300c 	ldr	r3, [pc, #12]	; 873c <start_sched+0x30>
    872c:	e5932000 	ldr	r2, [r3]
    8730:	e59f3008 	ldr	r3, [pc, #8]	; 8740 <start_sched+0x34>
    8734:	e5832000 	str	r2, [r3]
    8738:	e8bd8008 	pop	{r3, pc}
    873c:	000089e8 	andeq	r8, r0, r8, ror #19
    8740:	000089f0 	strdeq	r8, [r0], -r0

00008744 <ctx_switch_from_irq>:
    8744:	e52de004 	push	{lr}		; (str lr, [sp, #-4]!)
    8748:	e24dd00c 	sub	sp, sp, #12
    874c:	e92d0001 	push	{r0}
    8750:	e10f0000 	mrs	r0, CPSR
    8754:	e3800080 	orr	r0, r0, #128	; 0x80
    8758:	e121f000 	msr	CPSR_c, r0
    875c:	e8bd0001 	pop	{r0}
    8760:	e24ee004 	sub	lr, lr, #4
    8764:	f96d0513 	srsdb	sp!, #19
    8768:	f1020013 	cps	#19
    876c:	e59f3150 	ldr	r3, [pc, #336]	; 88c4 <ctx_switch_from_irq+0x180>
    8770:	e5933000 	ldr	r3, [r3]
    8774:	e3530000 	cmp	r3, #0
    8778:	0a000013 	beq	87cc <ctx_switch_from_irq+0x88>
    877c:	e59f3140 	ldr	r3, [pc, #320]	; 88c4 <ctx_switch_from_irq+0x180>
    8780:	e5933000 	ldr	r3, [r3]
    8784:	e5933010 	ldr	r3, [r3, #16]
    8788:	e3530000 	cmp	r3, #0
    878c:	0a00000e 	beq	87cc <ctx_switch_from_irq+0x88>
    8790:	e92d1fff 	push	{r0, r1, r2, r3, r4, r5, r6, r7, r8, r9, sl, fp, ip}
    8794:	e59f3128 	ldr	r3, [pc, #296]	; 88c4 <ctx_switch_from_irq+0x180>
    8798:	e5933000 	ldr	r3, [r3]
    879c:	e593300c 	ldr	r3, [r3, #12]
    87a0:	e1a0200d 	mov	r2, sp
    87a4:	e5832000 	str	r2, [r3]
    87a8:	e59f3114 	ldr	r3, [pc, #276]	; 88c4 <ctx_switch_from_irq+0x180>
    87ac:	e5933000 	ldr	r3, [r3]
    87b0:	e593300c 	ldr	r3, [r3, #12]
    87b4:	e1a0200e 	mov	r2, lr
    87b8:	e5832004 	str	r2, [r3, #4]
    87bc:	e59f3100 	ldr	r3, [pc, #256]	; 88c4 <ctx_switch_from_irq+0x180>
    87c0:	e5933000 	ldr	r3, [r3]
    87c4:	e3a02001 	mov	r2, #1
    87c8:	e5832010 	str	r2, [r3, #16]
    87cc:	ebffffc7 	bl	86f0 <elect>
    87d0:	e59f30ec 	ldr	r3, [pc, #236]	; 88c4 <ctx_switch_from_irq+0x180>
    87d4:	e5933000 	ldr	r3, [r3]
    87d8:	e5933010 	ldr	r3, [r3, #16]
    87dc:	e3530003 	cmp	r3, #3
    87e0:	1a000014 	bne	8838 <ctx_switch_from_irq+0xf4>
    87e4:	e59f30d8 	ldr	r3, [pc, #216]	; 88c4 <ctx_switch_from_irq+0x180>
    87e8:	e5933000 	ldr	r3, [r3]
    87ec:	e58d3004 	str	r3, [sp, #4]
    87f0:	ea000002 	b	8800 <ctx_switch_from_irq+0xbc>
    87f4:	e59d3004 	ldr	r3, [sp, #4]
    87f8:	e5933000 	ldr	r3, [r3]
    87fc:	e58d3004 	str	r3, [sp, #4]
    8800:	e59d3004 	ldr	r3, [sp, #4]
    8804:	e5933000 	ldr	r3, [r3]
    8808:	e5933010 	ldr	r3, [r3, #16]
    880c:	e3530003 	cmp	r3, #3
    8810:	0afffff7 	beq	87f4 <ctx_switch_from_irq+0xb0>
    8814:	e59d3004 	ldr	r3, [sp, #4]
    8818:	e5932000 	ldr	r2, [r3]
    881c:	e59f30a0 	ldr	r3, [pc, #160]	; 88c4 <ctx_switch_from_irq+0x180>
    8820:	e5832000 	str	r2, [r3]
    8824:	ebffff74 	bl	85fc <terminate_process>
    8828:	ea000002 	b	8838 <ctx_switch_from_irq+0xf4>
    882c:	ebffff58 	bl	8594 <start_current_process>
    8830:	ebffffae 	bl	86f0 <elect>
    8834:	ea000000 	b	883c <ctx_switch_from_irq+0xf8>
    8838:	e1a00000 	nop			; (mov r0, r0)
    883c:	e59f3080 	ldr	r3, [pc, #128]	; 88c4 <ctx_switch_from_irq+0x180>
    8840:	e5933000 	ldr	r3, [r3]
    8844:	e5933010 	ldr	r3, [r3, #16]
    8848:	e3530000 	cmp	r3, #0
    884c:	0afffff6 	beq	882c <ctx_switch_from_irq+0xe8>
    8850:	e59f306c 	ldr	r3, [pc, #108]	; 88c4 <ctx_switch_from_irq+0x180>
    8854:	e5933000 	ldr	r3, [r3]
    8858:	e5933010 	ldr	r3, [r3, #16]
    885c:	e3530001 	cmp	r3, #1
    8860:	1a000003 	bne	8874 <ctx_switch_from_irq+0x130>
    8864:	e59f3058 	ldr	r3, [pc, #88]	; 88c4 <ctx_switch_from_irq+0x180>
    8868:	e5933000 	ldr	r3, [r3]
    886c:	e3a02002 	mov	r2, #2
    8870:	e5832010 	str	r2, [r3, #16]
    8874:	e59f3048 	ldr	r3, [pc, #72]	; 88c4 <ctx_switch_from_irq+0x180>
    8878:	e5933000 	ldr	r3, [r3]
    887c:	e593300c 	ldr	r3, [r3, #12]
    8880:	e5933000 	ldr	r3, [r3]
    8884:	e1a0d003 	mov	sp, r3
    8888:	e59f3034 	ldr	r3, [pc, #52]	; 88c4 <ctx_switch_from_irq+0x180>
    888c:	e5933000 	ldr	r3, [r3]
    8890:	e593300c 	ldr	r3, [r3, #12]
    8894:	e5933004 	ldr	r3, [r3, #4]
    8898:	e1a0e003 	mov	lr, r3
    889c:	e8bd1fff 	pop	{r0, r1, r2, r3, r4, r5, r6, r7, r8, r9, sl, fp, ip}
    88a0:	e92d0001 	push	{r0}
    88a4:	e10f0000 	mrs	r0, CPSR
    88a8:	e3c00080 	bic	r0, r0, #128	; 0x80
    88ac:	e121f000 	msr	CPSR_c, r0
    88b0:	e8bd0001 	pop	{r0}
    88b4:	ebfffe7d 	bl	82b0 <set_tick_and_enable_timer>
    88b8:	f8bd0a00 	rfeia	sp!
    88bc:	e28dd00c 	add	sp, sp, #12
    88c0:	e8bd8000 	pop	{pc}
    88c4:	000089f0 	strdeq	r8, [r0], -r0

000088c8 <ctx_switch>:
    88c8:	e59f3108 	ldr	r3, [pc, #264]	; 89d8 <ctx_switch+0x110>
    88cc:	e5933000 	ldr	r3, [r3]
    88d0:	e5933010 	ldr	r3, [r3, #16]
    88d4:	e3530000 	cmp	r3, #0
    88d8:	1a000001 	bne	88e4 <ctx_switch+0x1c>
    88dc:	ebffff2c 	bl	8594 <start_current_process>
    88e0:	ea000021 	b	896c <ctx_switch+0xa4>
    88e4:	e59f30ec 	ldr	r3, [pc, #236]	; 89d8 <ctx_switch+0x110>
    88e8:	e5933000 	ldr	r3, [r3]
    88ec:	e5933010 	ldr	r3, [r3, #16]
    88f0:	e3530003 	cmp	r3, #3
    88f4:	1a00000c 	bne	892c <ctx_switch+0x64>
    88f8:	e59f30d8 	ldr	r3, [pc, #216]	; 89d8 <ctx_switch+0x110>
    88fc:	e5934000 	ldr	r4, [r3]
    8900:	ea000000 	b	8908 <ctx_switch+0x40>
    8904:	e5944000 	ldr	r4, [r4]
    8908:	e5943000 	ldr	r3, [r4]
    890c:	e5933010 	ldr	r3, [r3, #16]
    8910:	e3530003 	cmp	r3, #3
    8914:	0afffffa 	beq	8904 <ctx_switch+0x3c>
    8918:	e5942000 	ldr	r2, [r4]
    891c:	e59f30b4 	ldr	r3, [pc, #180]	; 89d8 <ctx_switch+0x110>
    8920:	e5832000 	str	r2, [r3]
    8924:	ebffff34 	bl	85fc <terminate_process>
    8928:	ea00000f 	b	896c <ctx_switch+0xa4>
    892c:	e92d1fff 	push	{r0, r1, r2, r3, r4, r5, r6, r7, r8, r9, sl, fp, ip}
    8930:	e59f30a0 	ldr	r3, [pc, #160]	; 89d8 <ctx_switch+0x110>
    8934:	e5933000 	ldr	r3, [r3]
    8938:	e593300c 	ldr	r3, [r3, #12]
    893c:	e1a0200d 	mov	r2, sp
    8940:	e5832000 	str	r2, [r3]
    8944:	e59f308c 	ldr	r3, [pc, #140]	; 89d8 <ctx_switch+0x110>
    8948:	e5933000 	ldr	r3, [r3]
    894c:	e593300c 	ldr	r3, [r3, #12]
    8950:	e1a0200e 	mov	r2, lr
    8954:	e5832004 	str	r2, [r3, #4]
    8958:	e59f3078 	ldr	r3, [pc, #120]	; 89d8 <ctx_switch+0x110>
    895c:	e5933000 	ldr	r3, [r3]
    8960:	e3a02001 	mov	r2, #1
    8964:	e5832010 	str	r2, [r3, #16]
    8968:	ebffff60 	bl	86f0 <elect>
    896c:	e59f3064 	ldr	r3, [pc, #100]	; 89d8 <ctx_switch+0x110>
    8970:	e5933000 	ldr	r3, [r3]
    8974:	e5933010 	ldr	r3, [r3, #16]
    8978:	e3530000 	cmp	r3, #0
    897c:	1a000000 	bne	8984 <ctx_switch+0xbc>
    8980:	ebffff03 	bl	8594 <start_current_process>
    8984:	e59f304c 	ldr	r3, [pc, #76]	; 89d8 <ctx_switch+0x110>
    8988:	e5933000 	ldr	r3, [r3]
    898c:	e5933010 	ldr	r3, [r3, #16]
    8990:	e3530001 	cmp	r3, #1
    8994:	1a00000f 	bne	89d8 <ctx_switch+0x110>
    8998:	e59f3038 	ldr	r3, [pc, #56]	; 89d8 <ctx_switch+0x110>
    899c:	e5933000 	ldr	r3, [r3]
    89a0:	e3a02002 	mov	r2, #2
    89a4:	e5832010 	str	r2, [r3, #16]
    89a8:	e59f3028 	ldr	r3, [pc, #40]	; 89d8 <ctx_switch+0x110>
    89ac:	e5933000 	ldr	r3, [r3]
    89b0:	e593300c 	ldr	r3, [r3, #12]
    89b4:	e5933000 	ldr	r3, [r3]
    89b8:	e1a0d003 	mov	sp, r3
    89bc:	e59f3014 	ldr	r3, [pc, #20]	; 89d8 <ctx_switch+0x110>
    89c0:	e5933000 	ldr	r3, [r3]
    89c4:	e593300c 	ldr	r3, [r3, #12]
    89c8:	e5933004 	ldr	r3, [r3, #4]
    89cc:	e1a0e003 	mov	lr, r3
    89d0:	e8bd1fff 	pop	{r0, r1, r2, r3, r4, r5, r6, r7, r8, r9, sl, fp, ip}
    89d4:	e12fff1e 	bx	lr
    89d8:	000089f0 	strdeq	r8, [r0], -r0

Disassembly of section .bss:

000089dc <freelist>:
    89dc:	00000000 	andeq	r0, r0, r0

000089e0 <top>:
    89e0:	00000000 	andeq	r0, r0, r0

000089e4 <heap_limit>:
    89e4:	00000000 	andeq	r0, r0, r0

000089e8 <CL>:
	...

000089f0 <current_process>:
    89f0:	00000000 	andeq	r0, r0, r0

Disassembly of section .ARM.attributes:

00000000 <.ARM.attributes>:
   0:	00003141 	andeq	r3, r0, r1, asr #2
   4:	61656100 	cmnvs	r5, r0, lsl #2
   8:	01006962 	tsteq	r0, r2, ror #18
   c:	00000027 	andeq	r0, r0, r7, lsr #32
  10:	005a3605 	subseq	r3, sl, r5, lsl #12
  14:	01080706 	tsteq	r8, r6, lsl #14
  18:	020a0109 	andeq	r0, sl, #1073741826	; 0x40000002
  1c:	01140412 	tsteq	r4, r2, lsl r4
  20:	03170115 	tsteq	r7, #1073741829	; 0x40000005
  24:	011a0118 	tsteq	sl, r8, lsl r1
  28:	011c031b 	tsteq	ip, fp, lsl r3
  2c:	012c0122 	teqeq	ip, r2, lsr #2
  30:	Address 0x0000000000000030 is out of bounds.


Disassembly of section .comment:

00000000 <.comment>:
   0:	3a434347 	bcc	10d0d24 <__bss_end+0x10c8330>
   4:	4e472820 	cdpmi	8, 4, cr2, cr7, cr0, {1}
   8:	34202955 	strtcc	r2, [r0], #-2389	; 0x955
   c:	312e372e 	teqcc	lr, lr, lsr #14
	...

Disassembly of section .debug_line:

00000000 <.debug_line>:
   0:	00000061 	andeq	r0, r0, r1, rrx
   4:	00200002 	eoreq	r0, r0, r2
   8:	01020000 	mrseq	r0, (UNDEF: 2)
   c:	000d0efb 	strdeq	r0, [sp], -fp
  10:	01010101 	tsteq	r1, r1, lsl #2
  14:	01000000 	mrseq	r0, (UNDEF: 0)
  18:	00010000 	andeq	r0, r1, r0
  1c:	74636576 	strbtvc	r6, [r3], #-1398	; 0x576
  20:	2e73726f 	cdpcs	2, 7, cr7, cr3, cr15, {3}
  24:	00000073 	andeq	r0, r0, r3, ror r0
  28:	05000000 	streq	r0, [r0, #-0]
  2c:	00800002 	addeq	r0, r0, r2
  30:	2f2f1900 	svccs	0x002f1900
  34:	2f2f2f2f 	svccs	0x002f2f2f
  38:	080b032f 	stmdaeq	fp, {r0, r1, r2, r3, r5, r8, r9}
  3c:	2f2f2f20 	svccs	0x002f2f20
  40:	2f322f2f 	svccs	0x00322f2f
  44:	2f2f322f 	svccs	0x002f322f
  48:	302f2f31 	eorcc	r2, pc, r1, lsr pc	; <UNPREDICTABLE>
  4c:	2f2f2f30 	svccs	0x002f2f30
  50:	322f2f2f 	eorcc	r2, pc, #188	; 0xbc
  54:	322f322f 	eorcc	r3, pc, #-268435454	; 0xf0000002
  58:	322f322f 	eorcc	r3, pc, #-268435454	; 0xf0000002
  5c:	3032322f 	eorscc	r3, r2, pc, lsr #4
  60:	01000202 	tsteq	r0, r2, lsl #4
  64:	00005701 	andeq	r5, r0, r1, lsl #14
  68:	2a000200 	bcs	870 <_start-0x7790>
  6c:	02000000 	andeq	r0, r0, #0
  70:	0d0efb01 	vstreq	d15, [lr, #-4]
  74:	01010100 	mrseq	r0, (UNDEF: 17)
  78:	00000001 	andeq	r0, r0, r1
  7c:	01000001 	tsteq	r0, r1
  80:	72656b00 	rsbvc	r6, r5, #0
  84:	2e6c656e 	cdpcs	5, 6, cr6, cr12, cr14, {3}
  88:	00000063 	andeq	r0, r0, r3, rrx
  8c:	68637300 	stmdavs	r3!, {r8, r9, ip, sp, lr}^
  90:	682e6465 	stmdavs	lr!, {r0, r2, r5, r6, sl, sp, lr}
  94:	00000000 	andeq	r0, r0, r0
  98:	02050000 	andeq	r0, r5, #0
  9c:	000080d0 	ldrdeq	r8, [r0], -r0
  a0:	2a6c2f17 	bcs	1b0bd04 <__bss_end+0x1b03310>
  a4:	4c4c8367 	mcrrmi	3, 6, r8, ip, cr7
  a8:	002f4b2f 	eoreq	r4, pc, pc, lsr #22
  ac:	65010402 	strvs	r0, [r1, #-1026]	; 0x402
  b0:	2f2f4c6b 	svccs	0x002f4c6b
  b4:	02008383 	andeq	r8, r0, #201326594	; 0xc000002
  b8:	022f0104 	eoreq	r0, pc, #1
  bc:	01010006 	tsteq	r1, r6
  c0:	00000059 	andeq	r0, r0, r9, asr r0
  c4:	00210002 	eoreq	r0, r1, r2
  c8:	01020000 	mrseq	r0, (UNDEF: 2)
  cc:	000d0efb 	strdeq	r0, [sp], -fp
  d0:	01010101 	tsteq	r1, r1, lsl #2
  d4:	01000000 	mrseq	r0, (UNDEF: 0)
  d8:	00010000 	andeq	r0, r1, r0
  dc:	41796870 	cmnmi	r9, r0, ror r8
  e0:	636f6c6c 	cmnvs	pc, #27648	; 0x6c00
  e4:	0000632e 	andeq	r6, r0, lr, lsr #6
  e8:	00000000 	andeq	r0, r0, r0
  ec:	81780205 	cmnhi	r8, r5, lsl #4
  f0:	0c030000 	stceq	0, cr0, [r3], {-0}
  f4:	2f4c6701 	svccs	0x004c6701
  f8:	02002f2f 	andeq	r2, r0, #188	; 0xbc
  fc:	002c0104 	eoreq	r0, ip, r4, lsl #2
 100:	06020402 	streq	r0, [r2], -r2, lsl #8
 104:	4b86064a 	blmi	fe181a34 <__bss_end+0xfe179040>
 108:	4cbbf44b 	cfldrsmi	mvf15, [fp], #300	; 0x12c
 10c:	83da2f4c 	bicshi	r2, sl, #304	; 0x130
 110:	4b678330 	blmi	19e0dd8 <__bss_end+0x19d83e4>
 114:	9f676786 	svcls	0x00676786
 118:	01000802 	tsteq	r0, r2, lsl #16
 11c:	00004b01 	andeq	r4, r0, r1, lsl #22
 120:	1b000200 	blne	928 <_start-0x76d8>
 124:	02000000 	andeq	r0, r0, #0
 128:	0d0efb01 	vstreq	d15, [lr, #-4]
 12c:	01010100 	mrseq	r0, (UNDEF: 17)
 130:	00000001 	andeq	r0, r0, r1
 134:	01000001 	tsteq	r0, r1
 138:	2e776800 	cdpcs	8, 7, cr6, cr7, cr0, {0}
 13c:	00000063 	andeq	r0, r0, r3, rrx
 140:	05000000 	streq	r0, [r0, #-0]
 144:	0082b002 	addeq	fp, r2, r2
 148:	011c0300 	tsteq	ip, r0, lsl #6
 14c:	6867674b 	stmdavs	r7!, {r0, r1, r3, r6, r8, r9, sl, sp, lr}^
 150:	9e090367 	cdpls	3, 0, cr0, cr9, cr7, {3}
 154:	2f4e672f 	svccs	0x004e672f
 158:	674f5167 	strbvs	r5, [pc, -r7, ror #2]
 15c:	69696767 	stmdbvs	r9!, {r0, r1, r2, r5, r6, r8, r9, sl, sp, lr}^
 160:	696a6767 	stmdbvs	sl!, {r0, r1, r2, r5, r6, r8, r9, sl, sp, lr}^
 164:	0267a068 	rsbeq	sl, r7, #104	; 0x68
 168:	01010010 	tsteq	r1, r0, lsl r0
 16c:	000000da 	ldrdeq	r0, [r0], -sl
 170:	00290002 	eoreq	r0, r9, r2
 174:	01020000 	mrseq	r0, (UNDEF: 2)
 178:	000d0efb 	strdeq	r0, [sp], -fp
 17c:	01010101 	tsteq	r1, r1, lsl #2
 180:	01000000 	mrseq	r0, (UNDEF: 0)
 184:	00010000 	andeq	r0, r1, r0
 188:	65686373 	strbvs	r6, [r8, #-883]!	; 0x373
 18c:	00632e64 	rsbeq	r2, r3, r4, ror #28
 190:	73000000 	movwvc	r0, #0
 194:	64656863 	strbtvs	r6, [r5], #-2147	; 0x863
 198:	0000682e 	andeq	r6, r0, lr, lsr #16
 19c:	00000000 	andeq	r0, r0, r0
 1a0:	83ec0205 	mvnhi	r0, #1342177280	; 0x50000000
 1a4:	9f170000 	svcls	0x00170000
 1a8:	0367bb9f 	cmneq	r7, #162816	; 0x27c00
 1ac:	67bb4a0f 	ldrvs	r4, [fp, pc, lsl #20]!
 1b0:	67836767 	strvs	r6, [r3, r7, ror #14]
 1b4:	67a04c67 	strvs	r4, [r0, r7, ror #24]!
 1b8:	040200a0 	streq	r0, [r2], #-160	; 0xa0
 1bc:	069e0601 	ldreq	r0, [lr], r1, lsl #12
 1c0:	6767c908 	strbvs	ip, [r7, -r8, lsl #18]!
 1c4:	a0678385 	rsbge	r8, r7, r5, lsl #7
 1c8:	2f9f2f68 	svccs	0x009f2f68
 1cc:	839f8383 	orrshi	r8, pc, #201326594	; 0xc000002
 1d0:	30694b4c 	rsbcc	r4, r9, ip, asr #22
 1d4:	04020081 	streq	r0, [r2], #-129	; 0x81
 1d8:	002e0601 	eoreq	r0, lr, r1, lsl #12
 1dc:	9e020402 	cdpls	4, 0, cr0, cr2, cr2, {0}
 1e0:	839fbd06 	orrshi	fp, pc, #384	; 0x180
 1e4:	009fbbd7 			; <UNDEFINED> instruction: 0x009fbbd7
 1e8:	03010402 	movweq	r0, #5122	; 0x1402
 1ec:	18036677 	stmdane	r3, {r0, r1, r2, r4, r5, r6, r9, sl, sp, lr}
 1f0:	9f1368ba 	svcls	0x001368ba
 1f4:	2f9f2f4c 	svccs	0x009f2f4c
 1f8:	9f4b6883 	svcls	0x004b6883
 1fc:	00302f2f 	eorseq	r2, r0, pc, lsr #30
 200:	06010402 	streq	r0, [r1], -r2, lsl #8
 204:	2f9f0682 	svccs	0x009f0682
 208:	2f849f9f 	svccs	0x00849f9f
 20c:	002f679f 	mlaeq	pc, pc, r7, r6	; <UNPREDICTABLE>
 210:	65010402 	strvs	r0, [r1, #-1026]	; 0x402
 214:	303083a1 	eorscc	r8, r0, r1, lsr #7
 218:	0200472f 	andeq	r4, r0, #12320768	; 0xbc0000
 21c:	2e060104 	adfcss	f0, f6, f4
 220:	849fa306 	ldrhi	sl, [pc], #774	; 228 <_start-0x7dd8>
 224:	9f309f9f 	svcls	0x00309f9f
 228:	13692f2f 	cmnne	r9, #188	; 0xbc
 22c:	4b9f4ba0 	blmi	fe7d30b4 <__bss_end+0xfe7ca6c0>
 230:	0402002f 	streq	r0, [r2], #-47	; 0x2f
 234:	67852d01 	strvs	r2, [r5, r1, lsl #26]
 238:	9f9f2f4c 	svcls	0x009f2f4c
 23c:	30a03084 	adccc	r3, r0, r4, lsl #1
 240:	9f9f839f 	svcls	0x009f839f
 244:	0004022f 	andeq	r0, r4, pc, lsr #4
 248:	Address 0x0000000000000248 is out of bounds.


Disassembly of section .debug_info:

00000000 <.debug_info>:
   0:	0000005c 	andeq	r0, r0, ip, asr r0
   4:	00000002 	andeq	r0, r0, r2
   8:	01040000 	mrseq	r0, (UNDEF: 4)
   c:	00000000 	andeq	r0, r0, r0
  10:	00008000 	andeq	r8, r0, r0
  14:	000080d0 	ldrdeq	r8, [r0], -r0
  18:	74636576 	strbtvc	r6, [r3], #-1398	; 0x576
  1c:	2e73726f 	cdpcs	2, 7, cr7, cr3, cr15, {3}
  20:	682f0073 	stmdavs	pc!, {r0, r1, r4, r5, r6}	; <UNPREDICTABLE>
  24:	2f656d6f 	svccs	0x00656d6f
  28:	6d6f6376 	stclvs	3, cr6, [pc, #-472]!	; fffffe58 <__bss_end+0xffff7464>
  2c:	442f6574 	strtmi	r6, [pc], #-1396	; 34 <_start-0x7fcc>
  30:	6d75636f 	ldclvs	3, cr6, [r5, #-444]!	; 0xfffffe44
  34:	73746e65 	cmnvc	r4, #1616	; 0x650
  38:	2d70542f 	cfldrdcs	mvd5, [r0, #-188]!	; 0xffffff44
  3c:	70736152 	rsbsvc	r6, r3, r2, asr r1
  40:	72726562 	rsbsvc	r6, r2, #411041792	; 0x18800000
  44:	736f2f79 	cmnvc	pc, #484	; 0x1e4
  48:	2d656970 	stclcs	9, cr6, [r5, #-448]!	; 0xfffffe40
  4c:	72617473 	rsbvc	r7, r1, #1929379840	; 0x73000000
  50:	4e470074 	mcrmi	0, 2, r0, cr7, cr4, {3}
  54:	53412055 	movtpl	r2, #4181	; 0x1055
  58:	322e3220 	eorcc	r3, lr, #2
  5c:	80010032 	andhi	r0, r1, r2, lsr r0
  60:	000001c6 	andeq	r0, r0, r6, asr #3
  64:	00140002 	andseq	r0, r4, r2
  68:	01040000 	mrseq	r0, (UNDEF: 4)
  6c:	00000025 	andeq	r0, r0, r5, lsr #32
  70:	0000c101 	andeq	ip, r0, r1, lsl #2
  74:	00008900 	andeq	r8, r0, r0, lsl #18
  78:	0080d000 	addeq	sp, r0, r0
  7c:	00817800 	addeq	r7, r1, r0, lsl #16
  80:	00006500 	andeq	r6, r0, r0, lsl #10
  84:	00de0200 	sbcseq	r0, lr, r0, lsl #4
  88:	05020000 	streq	r0, [r2, #-0]
  8c:	00000030 	andeq	r0, r0, r0, lsr r0
  90:	0000de03 	andeq	sp, r0, r3, lsl #28
  94:	05020400 	streq	r0, [r2, #-1024]	; 0x400
  98:	00000055 	andeq	r0, r0, r5, asr r0
  9c:	57454e04 	strbpl	r4, [r5, -r4, lsl #28]
  a0:	31050000 	mrscc	r0, (UNDEF: 5)
  a4:	01000000 	mrseq	r0, (UNDEF: 0)
  a8:	0000b905 	andeq	fp, r0, r5, lsl #18
  ac:	69050200 	stmdbvs	r5, {r9}
  b0:	03000000 	movweq	r0, #0
  b4:	00170200 	andseq	r0, r7, r0, lsl #4
  b8:	07020000 	streq	r0, [r2, -r0]
  bc:	00000060 	andeq	r0, r0, r0, rrx
  c0:	00660406 	rsbeq	r0, r6, r6, lsl #8
  c4:	01070000 	mrseq	r0, (UNDEF: 7)
  c8:	00008308 	andeq	r8, r0, r8, lsl #6
  cc:	0e020c00 	cdpeq	12, 0, cr0, cr2, cr0, {0}
  d0:	0000009d 	muleq	r0, sp, r0
  d4:	00707309 	rsbseq	r7, r0, r9, lsl #6
  d8:	009d0f02 	addseq	r0, sp, r2, lsl #30
  dc:	23020000 	movwcs	r0, #8192	; 0x2000
  e0:	63700900 	cmnvs	r0, #0
  e4:	9d100200 	lfmls	f0, 4, [r0, #-0]
  e8:	02000000 	andeq	r0, r0, #0
  ec:	d60a0423 	strle	r0, [sl], -r3, lsr #8
  f0:	02000000 	andeq	r0, r0, #0
  f4:	00009d11 	andeq	r9, r0, r1, lsl sp
  f8:	08230200 	stmdaeq	r3!, {r9}
  fc:	08040b00 	stmdaeq	r4, {r8, r9, fp}
 100:	000000d0 	ldrdeq	r0, [r0], -r0	; <UNPREDICTABLE>
 104:	00140218 	andseq	r0, r4, r8, lsl r2
 108:	0a000001 	beq	114 <_start-0x7eec>
 10c:	0000000e 	andeq	r0, r0, lr
 110:	01001502 	tsteq	r0, r2, lsl #10
 114:	23020000 	movwcs	r0, #8192	; 0x2000
 118:	00000a00 	andeq	r0, r0, r0, lsl #20
 11c:	16020000 	strne	r0, [r2], -r0
 120:	0000009d 	muleq	r0, sp, r0
 124:	0a042302 	beq	108d34 <__bss_end+0x100340>
 128:	00000048 	andeq	r0, r0, r8, asr #32
 12c:	00551702 	subseq	r1, r5, r2, lsl #14
 130:	23020000 	movwcs	r0, #8192	; 0x2000
 134:	00e40a08 	rsceq	r0, r4, r8, lsl #20
 138:	18020000 	stmdane	r2, {}	; <UNPREDICTABLE>
 13c:	00000106 	andeq	r0, r0, r6, lsl #2
 140:	0a0c2302 	beq	308d50 <__bss_end+0x30035c>
 144:	000000ca 	andeq	r0, r0, sl, asr #1
 148:	00251902 	eoreq	r1, r5, r2, lsl #18
 14c:	23020000 	movwcs	r0, #8192	; 0x2000
 150:	00540a10 	subseq	r0, r4, r0, lsl sl
 154:	1a020000 	bne	8015c <__bss_end+0x77768>
 158:	0000009d 	muleq	r0, sp, r0
 15c:	00142302 	andseq	r2, r4, r2, lsl #6
 160:	009f0406 	addseq	r0, pc, r6, lsl #8
 164:	04060000 	streq	r0, [r6], #-0
 168:	00000068 	andeq	r0, r0, r8, rrx
 16c:	00005c08 	andeq	r5, r0, r8, lsl #24
 170:	1d020800 	stcne	8, cr0, [r2, #-0]
 174:	00000135 	andeq	r0, r0, r5, lsr r1
 178:	00003e0a 	andeq	r3, r0, sl, lsl #28
 17c:	001e0200 	andseq	r0, lr, r0, lsl #4
 180:	02000001 	andeq	r0, r0, #1
 184:	740a0023 	strvc	r0, [sl], #-35	; 0x23
 188:	02000000 	andeq	r0, r0, #0
 18c:	0001001f 	andeq	r0, r1, pc, lsl r0
 190:	04230200 	strteq	r0, [r3], #-512	; 0x200
 194:	4e010c00 	cdpmi	12, 0, cr0, cr1, cr0, {0}
 198:	01000000 	mrseq	r0, (UNDEF: 0)
 19c:	0080d006 	addeq	sp, r0, r6
 1a0:	00811000 	addeq	r1, r1, r0
 1a4:	00000000 	andeq	r0, r0, r0
 1a8:	015d0100 	cmpeq	sp, r0, lsl #2
 1ac:	390d0000 	stmdbcc	sp, {}	; <UNPREDICTABLE>
 1b0:	01000000 	mrseq	r0, (UNDEF: 0)
 1b4:	00015d07 	andeq	r5, r1, r7, lsl #26
 1b8:	7c910200 	lfmvc	f0, 4, [r1], {0}
 1bc:	05040e00 	streq	r0, [r4, #-3584]	; 0xe00
 1c0:	00746e69 	rsbseq	r6, r4, r9, ror #28
 1c4:	007d010c 	rsbseq	r0, sp, ip, lsl #2
 1c8:	0f010000 	svceq	0x00010000
 1cc:	00008110 	andeq	r8, r0, r0, lsl r1
 1d0:	00008140 	andeq	r8, r0, r0, asr #2
 1d4:	00000020 	andeq	r0, r0, r0, lsr #32
 1d8:	00018c01 	andeq	r8, r1, r1, lsl #24
 1dc:	00090d00 	andeq	r0, r9, r0, lsl #26
 1e0:	10010000 	andne	r0, r1, r0
 1e4:	0000015d 	andeq	r0, r0, sp, asr r1
 1e8:	007c9102 	rsbseq	r9, ip, r2, lsl #2
 1ec:	001f010f 	andseq	r0, pc, pc, lsl #2
 1f0:	18010000 	stmdane	r1, {}	; <UNPREDICTABLE>
 1f4:	00015d01 	andeq	r5, r1, r1, lsl #26
 1f8:	00814000 	addeq	r4, r1, r0
 1fc:	00817800 	addeq	r7, r1, r0, lsl #16
 200:	00004000 	andeq	r4, r0, r0
 204:	1e100100 	mufnes	f0, f0, f0
 208:	02000002 	andeq	r0, r0, #2
 20c:	00010022 	andeq	r0, r1, r2, lsr #32
 210:	03050100 	movweq	r0, #20736	; 0x5100
 214:	000089f0 	strdeq	r8, [r0], -r0
 218:	004c4311 	subeq	r4, ip, r1, lsl r3
 21c:	010c2302 	tsteq	ip, r2, lsl #6
 220:	05010000 	streq	r0, [r1, #-0]
 224:	0089e803 	addeq	lr, r9, r3, lsl #16
 228:	015e0000 	cmpeq	lr, r0
 22c:	00020000 	andeq	r0, r2, r0
 230:	00000108 	andeq	r0, r0, r8, lsl #2
 234:	00250104 	eoreq	r0, r5, r4, lsl #2
 238:	ec010000 	stc	0, cr0, [r1], {-0}
 23c:	89000000 	stmdbhi	r0, {}	; <UNPREDICTABLE>
 240:	78000000 	stmdavc	r0, {}	; <UNPREDICTABLE>
 244:	b0000081 	andlt	r0, r0, r1, lsl #1
 248:	c0000082 	andgt	r0, r0, r2, lsl #1
 24c:	02000000 	andeq	r0, r0, #0
 250:	08006c66 	stmdaeq	r0, {r1, r2, r5, r6, sl, fp, sp, lr}
 254:	004d0301 	subeq	r0, sp, r1, lsl #6
 258:	29030000 	stmdbcs	r3, {}	; <UNPREDICTABLE>
 25c:	01000001 	tsteq	r0, r1
 260:	00004d04 	andeq	r4, r0, r4, lsl #26
 264:	00230200 	eoreq	r0, r3, r0, lsl #4
 268:	0001f703 	andeq	pc, r1, r3, lsl #14
 26c:	53050100 	movwpl	r0, #20736	; 0x5100
 270:	02000000 	andeq	r0, r0, #0
 274:	04000423 	streq	r0, [r0], #-1059	; 0x423
 278:	00002504 	andeq	r2, r0, r4, lsl #10
 27c:	07040500 	streq	r0, [r4, -r0, lsl #10]
 280:	0000018f 	andeq	r0, r0, pc, lsl #3
 284:	012e0106 	teqeq	lr, r6, lsl #2
 288:	0c010000 	stceq	0, cr0, [r1], {-0}
 28c:	00009f01 	andeq	r9, r0, r1, lsl #30
 290:	00817800 	addeq	r7, r1, r0, lsl #16
 294:	00822c00 	addeq	r2, r2, r0, lsl #24
 298:	00006000 	andeq	r6, r0, r0
 29c:	009f0100 	addseq	r0, pc, r0, lsl #2
 2a0:	f7070000 			; <UNDEFINED> instruction: 0xf7070000
 2a4:	01000001 	tsteq	r0, r1
 2a8:	0000530c 	andeq	r5, r0, ip, lsl #6
 2ac:	74910200 	ldrvc	r0, [r1], #512	; 0x200
 2b0:	01006608 	tsteq	r0, r8, lsl #12
 2b4:	00004d0e 	andeq	r4, r0, lr, lsl #26
 2b8:	09540100 	ldmdbeq	r4, {r8}^
 2bc:	000000f7 	strdeq	r0, [r0], -r7
 2c0:	00a10e01 	adceq	r0, r1, r1, lsl #28
 2c4:	55010000 	strpl	r0, [r1, #-0]
 2c8:	04040a00 	streq	r0, [r4], #-2560	; 0xa00
 2cc:	00004d04 	andeq	r4, r0, r4, lsl #26
 2d0:	05010b00 	streq	r0, [r1, #-2816]	; 0xb00
 2d4:	01000001 	tsteq	r0, r1
 2d8:	822c0122 	eorhi	r0, ip, #-2147483640	; 0x80000008
 2dc:	82740000 	rsbshi	r0, r4, #0
 2e0:	008c0000 	addeq	r0, ip, r0
 2e4:	e9010000 	stmdb	r1, {}	; <UNPREDICTABLE>
 2e8:	0c000000 	stceq	0, cr0, [r0], {-0}
 2ec:	00727470 	rsbseq	r7, r2, r0, ror r4
 2f0:	009f2201 	addseq	r2, pc, r1, lsl #4
 2f4:	91020000 	mrsls	r0, (UNDEF: 2)
 2f8:	01f70774 	mvnseq	r0, r4, ror r7
 2fc:	22010000 	andcs	r0, r1, #0
 300:	00000053 	andeq	r0, r0, r3, asr r0
 304:	08709102 	ldmdaeq	r0!, {r1, r8, ip, pc}^
 308:	24010066 	strcs	r0, [r1], #-102	; 0x66
 30c:	0000004d 	andeq	r0, r0, sp, asr #32
 310:	0b005401 	bleq	1531c <__bss_end+0xc928>
 314:	00013d01 	andeq	r3, r1, r1, lsl #26
 318:	012c0100 	teqeq	ip, r0, lsl #2
 31c:	00008274 	andeq	r8, r0, r4, ror r2
 320:	000082b0 			; <UNDEFINED> instruction: 0x000082b0
 324:	000000b8 	strheq	r0, [r0], -r8
 328:	00012001 	andeq	r2, r1, r1
 32c:	011e0700 	tsteq	lr, r0, lsl #14
 330:	2c010000 	stccs	0, cr0, [r1], {-0}
 334:	00000120 	andeq	r0, r0, r0, lsr #2
 338:	077c9102 	ldrbeq	r9, [ip, -r2, lsl #2]!
 33c:	0000014b 	andeq	r0, r0, fp, asr #2
 340:	00532c01 	subseq	r2, r3, r1, lsl #24
 344:	91020000 	mrsls	r0, (UNDEF: 2)
 348:	04040078 	streq	r0, [r4], #-120	; 0x78
 34c:	00000126 	andeq	r0, r0, r6, lsr #2
 350:	5e080105 	adfple	f0, f0, f5
 354:	08000001 	stmdaeq	r0, {r0}
 358:	00706f74 	rsbseq	r6, r0, r4, ror pc
 35c:	01200801 	teqeq	r0, r1, lsl #16
 360:	03050000 	movweq	r0, #20480	; 0x5000
 364:	000089e0 	andeq	r8, r0, r0, ror #19
 368:	00011309 	andeq	r1, r1, r9, lsl #6
 36c:	20090100 	andcs	r0, r9, r0, lsl #2
 370:	05000001 	streq	r0, [r0, #-1]
 374:	0089e403 	addeq	lr, r9, r3, lsl #8
 378:	00fc0d00 	rscseq	r0, ip, r0, lsl #26
 37c:	06010000 	streq	r0, [r1], -r0
 380:	0000004d 	andeq	r0, r0, sp, asr #32
 384:	dc030501 	cfstr32le	mvfx0, [r3], {1}
 388:	00000089 	andeq	r0, r0, r9, lsl #1
 38c:	000000b8 	strheq	r0, [r0], -r8
 390:	01d80002 	bicseq	r0, r8, r2
 394:	01040000 	mrseq	r0, (UNDEF: 4)
 398:	00000025 	andeq	r0, r0, r5, lsr #32
 39c:	00016301 	andeq	r6, r1, r1, lsl #6
 3a0:	00008900 	andeq	r8, r0, r0, lsl #18
 3a4:	0082b000 	addeq	fp, r2, r0
 3a8:	0083ec00 	addeq	lr, r3, r0, lsl #24
 3ac:	00011d00 	andeq	r1, r1, r0, lsl #26
 3b0:	07020200 	streq	r0, [r2, -r0, lsl #4]
 3b4:	00000189 	andeq	r0, r0, r9, lsl #3
 3b8:	8f070402 	svchi	0x00070402
 3bc:	02000001 	andeq	r0, r0, #1
 3c0:	01550801 	cmpeq	r5, r1, lsl #16
 3c4:	01030000 	mrseq	r0, (UNDEF: 3)
 3c8:	00000168 	andeq	r0, r0, r8, ror #2
 3cc:	82b01c01 	adcshi	r1, r0, #256	; 0x100
 3d0:	82fc0000 	rscshi	r0, ip, #0
 3d4:	00d80000 	sbcseq	r0, r8, r0
 3d8:	61010000 	mrsvs	r0, (UNDEF: 1)
 3dc:	04000000 	streq	r0, [r0], #-0
 3e0:	01007872 	tsteq	r0, r2, ror r8
 3e4:	00002c1e 	andeq	r2, r0, lr, lsl ip
 3e8:	74910200 	ldrvc	r0, [r1], #512	; 0x200
 3ec:	a4010500 	strge	r0, [r1], #-1280	; 0x500
 3f0:	01000001 	tsteq	r0, r1
 3f4:	0082fc2b 	addeq	pc, r2, fp, lsr #24
 3f8:	00831400 	addeq	r1, r3, r0, lsl #8
 3fc:	00010400 	andeq	r0, r1, r0, lsl #8
 400:	01050100 	mrseq	r0, (UNDEF: 21)
 404:	00000182 	andeq	r0, r0, r2, lsl #3
 408:	83143101 	tsthi	r4, #1073741824	; 0x40000000
 40c:	832c0000 	teqhi	ip, #0
 410:	01240000 	teqeq	r4, r0
 414:	06010000 	streq	r0, [r1], -r0
 418:	00019c01 	andeq	r9, r1, r1, lsl #24
 41c:	2c3a0100 	ldfcss	f0, [sl], #-0
 420:	ec000083 	stc	0, cr0, [r0], {131}	; 0x83
 424:	44000083 	strmi	r0, [r0], #-131	; 0x83
 428:	01000001 	tsteq	r0, r1
 42c:	00617204 	rsbeq	r7, r1, r4, lsl #4
 430:	002c3c01 	eoreq	r3, ip, r1, lsl #24
 434:	91020000 	mrsls	r0, (UNDEF: 2)
 438:	78720474 	ldmdavc	r2!, {r2, r4, r5, r6, sl}^
 43c:	2c3d0100 	ldfcss	f0, [sp], #-0
 440:	02000000 	andeq	r0, r0, #0
 444:	00007091 	muleq	r0, r1, r0
 448:	00000325 	andeq	r0, r0, r5, lsr #6
 44c:	024a0002 	subeq	r0, sl, #2
 450:	01040000 	mrseq	r0, (UNDEF: 4)
 454:	00000025 	andeq	r0, r0, r5, lsr #32
 458:	0001c001 	andeq	ip, r1, r1
 45c:	00008900 	andeq	r8, r0, r0, lsl #18
 460:	0083ec00 	addeq	lr, r3, r0, lsl #24
 464:	0089dc00 	addeq	sp, r9, r0, lsl #24
 468:	00016c00 	andeq	r6, r1, r0, lsl #24
 46c:	00de0200 	sbcseq	r0, lr, r0, lsl #4
 470:	05020000 	streq	r0, [r2, #-0]
 474:	00000030 	andeq	r0, r0, r0, lsr r0
 478:	0000de03 	andeq	sp, r0, r3, lsl #28
 47c:	05020400 	streq	r0, [r2, #-1024]	; 0x400
 480:	00000055 	andeq	r0, r0, r5, asr r0
 484:	57454e04 	strbpl	r4, [r5, -r4, lsl #28]
 488:	31050000 	mrscc	r0, (UNDEF: 5)
 48c:	01000000 	mrseq	r0, (UNDEF: 0)
 490:	0000b905 	andeq	fp, r0, r5, lsl #18
 494:	69050200 	stmdbvs	r5, {r9}
 498:	03000000 	movweq	r0, #0
 49c:	00170200 	andseq	r0, r7, r0, lsl #4
 4a0:	07020000 	streq	r0, [r2, -r0]
 4a4:	00000060 	andeq	r0, r0, r0, rrx
 4a8:	00660406 	rsbeq	r0, r6, r6, lsl #8
 4ac:	01070000 	mrseq	r0, (UNDEF: 7)
 4b0:	00008308 	andeq	r8, r0, r8, lsl #6
 4b4:	0e020c00 	cdpeq	12, 0, cr0, cr2, cr0, {0}
 4b8:	0000009d 	muleq	r0, sp, r0
 4bc:	00707309 	rsbseq	r7, r0, r9, lsl #6
 4c0:	009d0f02 	addseq	r0, sp, r2, lsl #30
 4c4:	23020000 	movwcs	r0, #8192	; 0x2000
 4c8:	63700900 	cmnvs	r0, #0
 4cc:	9d100200 	lfmls	f0, 4, [r0, #-0]
 4d0:	02000000 	andeq	r0, r0, #0
 4d4:	d60a0423 	strle	r0, [sl], -r3, lsr #8
 4d8:	02000000 	andeq	r0, r0, #0
 4dc:	00009d11 	andeq	r9, r0, r1, lsl sp
 4e0:	08230200 	stmdaeq	r3!, {r9}
 4e4:	08040b00 	stmdaeq	r4, {r8, r9, fp}
 4e8:	000000d0 	ldrdeq	r0, [r0], -r0	; <UNPREDICTABLE>
 4ec:	00140218 	andseq	r0, r4, r8, lsl r2
 4f0:	0a000001 	beq	4fc <_start-0x7b04>
 4f4:	0000000e 	andeq	r0, r0, lr
 4f8:	01001502 	tsteq	r0, r2, lsl #10
 4fc:	23020000 	movwcs	r0, #8192	; 0x2000
 500:	00000a00 	andeq	r0, r0, r0, lsl #20
 504:	16020000 	strne	r0, [r2], -r0
 508:	0000009d 	muleq	r0, sp, r0
 50c:	0a042302 	beq	10911c <__bss_end+0x100728>
 510:	00000048 	andeq	r0, r0, r8, asr #32
 514:	00551702 	subseq	r1, r5, r2, lsl #14
 518:	23020000 	movwcs	r0, #8192	; 0x2000
 51c:	00e40a08 	rsceq	r0, r4, r8, lsl #20
 520:	18020000 	stmdane	r2, {}	; <UNPREDICTABLE>
 524:	00000106 	andeq	r0, r0, r6, lsl #2
 528:	0a0c2302 	beq	309138 <__bss_end+0x300744>
 52c:	000000ca 	andeq	r0, r0, sl, asr #1
 530:	00251902 	eoreq	r1, r5, r2, lsl #18
 534:	23020000 	movwcs	r0, #8192	; 0x2000
 538:	00540a10 	subseq	r0, r4, r0, lsl sl
 53c:	1a020000 	bne	80544 <__bss_end+0x77b50>
 540:	0000009d 	muleq	r0, sp, r0
 544:	00142302 	andseq	r2, r4, r2, lsl #6
 548:	009f0406 	addseq	r0, pc, r6, lsl #8
 54c:	04060000 	streq	r0, [r6], #-0
 550:	00000068 	andeq	r0, r0, r8, rrx
 554:	00005c08 	andeq	r5, r0, r8, lsl #24
 558:	1d020800 	stcne	8, cr0, [r2, #-0]
 55c:	00000135 	andeq	r0, r0, r5, lsr r1
 560:	00003e0a 	andeq	r3, r0, sl, lsl #28
 564:	001e0200 	andseq	r0, lr, r0, lsl #4
 568:	02000001 	andeq	r0, r0, #1
 56c:	740a0023 	strvc	r0, [sl], #-35	; 0x23
 570:	02000000 	andeq	r0, r0, #0
 574:	0001001f 	andeq	r0, r1, pc, lsl r0
 578:	04230200 	strteq	r0, [r3], #-512	; 0x200
 57c:	3f010c00 	svccc	0x00010c00
 580:	01000002 	tsteq	r0, r2
 584:	83ec0106 	mvnhi	r0, #-2147483647	; 0x80000001
 588:	84400000 	strbhi	r0, [r0], #-0
 58c:	01700000 	cmneq	r0, r0
 590:	78010000 	stmdavc	r1, {}	; <UNPREDICTABLE>
 594:	0d000001 	stceq	0, cr0, [r0, #-4]
 598:	000001e9 	andeq	r0, r0, r9, ror #3
 59c:	01060601 	tsteq	r6, r1, lsl #12
 5a0:	91020000 	mrsls	r0, (UNDEF: 2)
 5a4:	00660e74 	rsbeq	r0, r6, r4, ror lr
 5a8:	00550601 	subseq	r0, r5, r1, lsl #12
 5ac:	91020000 	mrsls	r0, (UNDEF: 2)
 5b0:	01f70d70 	mvnseq	r0, r0, ror sp
 5b4:	06010000 	streq	r0, [r1], -r0
 5b8:	00000178 	andeq	r0, r0, r8, ror r1
 5bc:	006c9102 	rsbeq	r9, ip, r2, lsl #2
 5c0:	8f07040f 	svchi	0x0007040f
 5c4:	0c000001 	stceq	0, cr0, [r0], {1}
 5c8:	00023601 	andeq	r3, r2, r1, lsl #12
 5cc:	01190100 	tsteq	r9, r0, lsl #2
 5d0:	00008440 	andeq	r8, r0, r0, asr #8
 5d4:	000084ac 	andeq	r8, r0, ip, lsr #9
 5d8:	0000019c 	muleq	r0, ip, r1
 5dc:	0001de01 	andeq	sp, r1, r1, lsl #28
 5e0:	63700e00 	cmnvs	r0, #0
 5e4:	19010062 	stmdbne	r1, {r1, r5, r6}
 5e8:	00000100 	andeq	r0, r0, r0, lsl #2
 5ec:	0e6c9102 	lgneqe	f1, f2
 5f0:	19010066 	stmdbne	r1, {r1, r2, r5, r6}
 5f4:	00000055 	andeq	r0, r0, r5, asr r0
 5f8:	0d689102 	stfeqp	f1, [r8, #-8]!
 5fc:	000001f7 	strdeq	r0, [r0], -r7
 600:	01781901 	cmneq	r8, r1, lsl #18
 604:	91020000 	mrsls	r0, (UNDEF: 2)
 608:	00040d64 	andeq	r0, r4, r4, ror #26
 60c:	19010000 	stmdbne	r1, {}	; <UNPREDICTABLE>
 610:	0000009d 	muleq	r0, sp, r0
 614:	10609102 	rsbne	r9, r0, r2, lsl #2
 618:	00787463 	rsbseq	r7, r8, r3, ror #8
 61c:	01061c01 	tsteq	r6, r1, lsl #24
 620:	91020000 	mrsls	r0, (UNDEF: 2)
 624:	010c0074 	tsteq	ip, r4, ror r0
 628:	000001c8 	andeq	r0, r0, r8, asr #3
 62c:	ac012201 	sfmge	f2, 4, [r1], {1}
 630:	94000084 	strls	r0, [r0], #-132	; 0x84
 634:	c8000085 	stmdagt	r0, {r0, r2, r7}
 638:	01000001 	tsteq	r0, r1
 63c:	0000022f 	andeq	r0, r0, pc, lsr #4
 640:	0100660e 	tsteq	r0, lr, lsl #12
 644:	00005522 	andeq	r5, r0, r2, lsr #10
 648:	6c910200 	lfmvs	f0, 4, [r1], {0}
 64c:	0000040d 	andeq	r0, r0, sp, lsl #8
 650:	9d220100 	stflss	f0, [r2, #-0]
 654:	02000000 	andeq	r0, r0, #0
 658:	f10d6891 			; <UNDEFINED> instruction: 0xf10d6891
 65c:	01000001 	tsteq	r0, r1
 660:	00017822 	andeq	r7, r1, r2, lsr #16
 664:	64910200 	ldrvs	r0, [r1], #512	; 0x200
 668:	00022e11 	andeq	r2, r2, r1, lsl lr
 66c:	00240100 	eoreq	r0, r4, r0, lsl #2
 670:	02000001 	andeq	r0, r0, #1
 674:	12007491 	andne	r7, r0, #-1862270976	; 0x91000000
 678:	00021801 	andeq	r1, r2, r1, lsl #16
 67c:	94330100 	ldrtls	r0, [r3], #-256	; 0x100
 680:	fc000085 	stc2	0, cr0, [r0], {133}	; 0x85
 684:	f4000085 	vst4.32	{d0-d3}, [r0], r5
 688:	01000001 	tsteq	r0, r1
 68c:	01d70113 	bicseq	r0, r7, r3, lsl r1
 690:	3c010000 	stccc	0, cr0, [r1], {-0}
 694:	000085fc 	strdeq	r8, [r0], -ip
 698:	000086f0 	strdeq	r8, [r0], -r0
 69c:	00000214 	andeq	r0, r0, r4, lsl r2
 6a0:	00027a01 	andeq	r7, r2, r1, lsl #20
 6a4:	02081100 	andeq	r1, r8, #0
 6a8:	3d010000 	stccc	0, cr0, [r1, #-0]
 6ac:	00000100 	andeq	r0, r0, r0, lsl #2
 6b0:	10749102 	rsbsne	r9, r4, r2, lsl #2
 6b4:	00706d74 	rsbseq	r6, r0, r4, ror sp
 6b8:	01003e01 	tsteq	r0, r1, lsl #28
 6bc:	91020000 	mrsls	r0, (UNDEF: 2)
 6c0:	01140070 	tsteq	r4, r0, ror r0
 6c4:	00000248 	andeq	r0, r0, r8, asr #4
 6c8:	86f05a01 	ldrbthi	r5, [r0], r1, lsl #20
 6cc:	870c0000 	strhi	r0, [ip, -r0]
 6d0:	7d020000 	stcvc	0, cr0, [r2, #-0]
 6d4:	01120100 	tsteq	r2, r0, lsl #2
 6d8:	000001fc 	strdeq	r0, [r0], -ip
 6dc:	870c5e01 	strhi	r5, [ip, -r1, lsl #28]
 6e0:	87440000 	strbhi	r0, [r4, -r0]
 6e4:	02400000 	subeq	r0, r0, #0
 6e8:	13010000 	movwne	r0, #4096	; 0x1000
 6ec:	0001ac01 	andeq	sl, r1, r1, lsl #24
 6f0:	44640100 	strbtmi	r0, [r4], #-256	; 0x100
 6f4:	c8000087 	stmdagt	r0, {r0, r1, r2, r7}
 6f8:	60000088 	andvs	r0, r0, r8, lsl #1
 6fc:	01000002 	tsteq	r0, r2
 700:	000002d5 	ldrdeq	r0, [r0], -r5
 704:	0087e415 	addeq	lr, r7, r5, lsl r4
 708:	00882800 	addeq	r2, r8, r0, lsl #16
 70c:	6d741000 	ldclvs	0, cr1, [r4, #-0]
 710:	72010070 	andvc	r0, r1, #112	; 0x70
 714:	00000100 	andeq	r0, r0, r0, lsl #2
 718:	00749102 	rsbseq	r9, r4, r2, lsl #2
 71c:	0d011600 	stceq	6, cr1, [r1, #-0]
 720:	01000002 	tsteq	r0, r2
 724:	0088c88b 	addeq	ip, r8, fp, lsl #17
 728:	0089dc00 	addeq	sp, r9, r0, lsl #24
 72c:	007d0200 	rsbseq	r0, sp, r0, lsl #4
 730:	00030501 	andeq	r0, r3, r1, lsl #10
 734:	88f81500 	ldmhi	r8!, {r8, sl, ip}^
 738:	892c0000 	stmdbhi	ip!, {}	; <UNPREDICTABLE>
 73c:	74100000 	ldrvc	r0, [r0], #-0
 740:	0100706d 	tsteq	r0, sp, rrx
 744:	00010090 	muleq	r1, r0, r0
 748:	00540100 	subseq	r0, r4, r0, lsl #2
 74c:	021e1700 	andseq	r1, lr, #0
 750:	22020000 	andcs	r0, r2, #0
 754:	00000100 	andeq	r0, r0, r0, lsl #2
 758:	f0030501 			; <UNDEFINED> instruction: 0xf0030501
 75c:	18000089 	stmdane	r0, {r0, r3, r7}
 760:	02004c43 	andeq	r4, r0, #17152	; 0x4300
 764:	00010c23 	andeq	r0, r1, r3, lsr #24
 768:	03050100 	movweq	r0, #20736	; 0x5100
 76c:	000089e8 	andeq	r8, r0, r8, ror #19
	...

Disassembly of section .debug_abbrev:

00000000 <.debug_abbrev>:
   0:	10001101 	andne	r1, r0, r1, lsl #2
   4:	12011106 	andne	r1, r1, #-2147483647	; 0x80000001
   8:	1b080301 	blne	200c14 <__bss_end+0x1f8220>
   c:	13082508 	movwne	r2, #34056	; 0x8508
  10:	00000005 	andeq	r0, r0, r5
  14:	25011101 	strcs	r1, [r1, #-257]	; 0x101
  18:	030b130e 	movweq	r1, #45838	; 0xb30e
  1c:	110e1b0e 	tstne	lr, lr, lsl #22
  20:	10011201 	andne	r1, r1, r1, lsl #4
  24:	02000006 	andeq	r0, r0, #6
  28:	0e030016 	mcreq	0, 0, r0, cr3, cr6, {0}
  2c:	0b3b0b3a 	bleq	ec2d1c <__bss_end+0xeba328>
  30:	00001349 	andeq	r1, r0, r9, asr #6
  34:	03010403 	movweq	r0, #5123	; 0x1403
  38:	3a0b0b0e 	bcc	2c2c78 <__bss_end+0x2ba284>
  3c:	010b3b0b 	tsteq	fp, fp, lsl #22
  40:	04000013 	streq	r0, [r0], #-19
  44:	08030028 	stmdaeq	r3, {r3, r5}
  48:	00000d1c 	andeq	r0, r0, ip, lsl sp
  4c:	03002805 	movweq	r2, #2053	; 0x805
  50:	000d1c0e 	andeq	r1, sp, lr, lsl #24
  54:	000f0600 	andeq	r0, pc, r0, lsl #12
  58:	13490b0b 	movtne	r0, #39691	; 0x9b0b
  5c:	15070000 	strne	r0, [r7, #-0]
  60:	000c2700 	andeq	r2, ip, r0, lsl #14
  64:	01130800 	tsteq	r3, r0, lsl #16
  68:	0b0b0e03 	bleq	2c387c <__bss_end+0x2bae88>
  6c:	0b3b0b3a 	bleq	ec2d5c <__bss_end+0xeba368>
  70:	00001301 	andeq	r1, r0, r1, lsl #6
  74:	03000d09 	movweq	r0, #3337	; 0xd09
  78:	3b0b3a08 	blcc	2ce8a0 <__bss_end+0x2c5eac>
  7c:	3813490b 	ldmdacc	r3, {r0, r1, r3, r8, fp, lr}
  80:	0a00000a 	beq	b0 <_start-0x7f50>
  84:	0e03000d 	cdpeq	0, 0, cr0, cr3, cr13, {0}
  88:	0b3b0b3a 	bleq	ec2d78 <__bss_end+0xeba384>
  8c:	0a381349 	beq	e04db8 <__bss_end+0xdfc3c4>
  90:	0f0b0000 	svceq	0x000b0000
  94:	000b0b00 	andeq	r0, fp, r0, lsl #22
  98:	012e0c00 	teqeq	lr, r0, lsl #24
  9c:	0e030c3f 	mcreq	12, 0, r0, cr3, cr15, {1}
  a0:	0b3b0b3a 	bleq	ec2d90 <__bss_end+0xeba39c>
  a4:	01120111 	tsteq	r2, r1, lsl r1
  a8:	42970640 	addsmi	r0, r7, #67108864	; 0x4000000
  ac:	0013010c 	andseq	r0, r3, ip, lsl #2
  b0:	00340d00 	eorseq	r0, r4, r0, lsl #26
  b4:	0b3a0e03 	bleq	e838c8 <__bss_end+0xe7aed4>
  b8:	13490b3b 	movtne	r0, #39739	; 0x9b3b
  bc:	00000a02 	andeq	r0, r0, r2, lsl #20
  c0:	0b00240e 	bleq	9100 <__bss_end+0x70c>
  c4:	030b3e0b 	movweq	r3, #48651	; 0xbe0b
  c8:	0f000008 	svceq	0x00000008
  cc:	0c3f002e 	ldceq	0, cr0, [pc], #-184	; 1c <_start-0x7fe4>
  d0:	0b3a0e03 	bleq	e838e4 <__bss_end+0xe7aef0>
  d4:	0c270b3b 	stceq	11, cr0, [r7], #-236	; 0xffffff14
  d8:	01111349 	tsteq	r1, r9, asr #6
  dc:	06400112 			; <UNDEFINED> instruction: 0x06400112
  e0:	000c4296 	muleq	ip, r6, r2
  e4:	00341000 	eorseq	r1, r4, r0
  e8:	0b3a0e03 	bleq	e838fc <__bss_end+0xe7af08>
  ec:	13490b3b 	movtne	r0, #39739	; 0x9b3b
  f0:	0a020c3f 	beq	831f4 <__bss_end+0x7a800>
  f4:	34110000 	ldrcc	r0, [r1], #-0
  f8:	3a080300 	bcc	200d00 <__bss_end+0x1f830c>
  fc:	490b3b0b 	stmdbmi	fp, {r0, r1, r3, r8, r9, fp, ip, sp}
 100:	020c3f13 	andeq	r3, ip, #76	; 0x4c
 104:	0000000a 	andeq	r0, r0, sl
 108:	25011101 	strcs	r1, [r1, #-257]	; 0x101
 10c:	030b130e 	movweq	r1, #45838	; 0xb30e
 110:	110e1b0e 	tstne	lr, lr, lsl #22
 114:	10011201 	andne	r1, r1, r1, lsl #4
 118:	02000006 	andeq	r0, r0, #6
 11c:	08030113 	stmdaeq	r3, {r0, r1, r4, r8}
 120:	0b3a0b0b 	bleq	e82d54 <__bss_end+0xe7a360>
 124:	13010b3b 	movwne	r0, #6971	; 0x1b3b
 128:	0d030000 	stceq	0, cr0, [r3, #-0]
 12c:	3a0e0300 	bcc	380d34 <__bss_end+0x378340>
 130:	490b3b0b 	stmdbmi	fp, {r0, r1, r3, r8, r9, fp, ip, sp}
 134:	000a3813 	andeq	r3, sl, r3, lsl r8
 138:	000f0400 	andeq	r0, pc, r0, lsl #8
 13c:	13490b0b 	movtne	r0, #39691	; 0x9b0b
 140:	24050000 	strcs	r0, [r5], #-0
 144:	3e0b0b00 	vmlacc.f64	d0, d11, d0
 148:	000e030b 	andeq	r0, lr, fp, lsl #6
 14c:	012e0600 	teqeq	lr, r0, lsl #12
 150:	0e030c3f 	mcreq	12, 0, r0, cr3, cr15, {1}
 154:	0b3b0b3a 	bleq	ec2e44 <__bss_end+0xeba450>
 158:	13490c27 	movtne	r0, #39975	; 0x9c27
 15c:	01120111 	tsteq	r2, r1, lsl r1
 160:	42970640 	addsmi	r0, r7, #67108864	; 0x4000000
 164:	0013010c 	andseq	r0, r3, ip, lsl #2
 168:	00050700 	andeq	r0, r5, r0, lsl #14
 16c:	0b3a0e03 	bleq	e83980 <__bss_end+0xe7af8c>
 170:	13490b3b 	movtne	r0, #39739	; 0x9b3b
 174:	00000a02 	andeq	r0, r0, r2, lsl #20
 178:	03003408 	movweq	r3, #1032	; 0x408
 17c:	3b0b3a08 	blcc	2ce9a4 <__bss_end+0x2c5fb0>
 180:	0213490b 	andseq	r4, r3, #180224	; 0x2c000
 184:	0900000a 	stmdbeq	r0, {r1, r3}
 188:	0e030034 	mcreq	0, 0, r0, cr3, cr4, {1}
 18c:	0b3b0b3a 	bleq	ec2e7c <__bss_end+0xeba488>
 190:	0a021349 	beq	84ebc <__bss_end+0x7c4c8>
 194:	0f0a0000 	svceq	0x000a0000
 198:	000b0b00 	andeq	r0, fp, r0, lsl #22
 19c:	012e0b00 	teqeq	lr, r0, lsl #22
 1a0:	0e030c3f 	mcreq	12, 0, r0, cr3, cr15, {1}
 1a4:	0b3b0b3a 	bleq	ec2e94 <__bss_end+0xeba4a0>
 1a8:	01110c27 	tsteq	r1, r7, lsr #24
 1ac:	06400112 			; <UNDEFINED> instruction: 0x06400112
 1b0:	010c4297 			; <UNDEFINED> instruction: 0x010c4297
 1b4:	0c000013 	stceq	0, cr0, [r0], {19}
 1b8:	08030005 	stmdaeq	r3, {r0, r2}
 1bc:	0b3b0b3a 	bleq	ec2eac <__bss_end+0xeba4b8>
 1c0:	0a021349 	beq	84eec <__bss_end+0x7c4f8>
 1c4:	340d0000 	strcc	r0, [sp], #-0
 1c8:	3a0e0300 	bcc	380dd0 <__bss_end+0x3783dc>
 1cc:	490b3b0b 	stmdbmi	fp, {r0, r1, r3, r8, r9, fp, ip, sp}
 1d0:	020c3f13 	andeq	r3, ip, #76	; 0x4c
 1d4:	0000000a 	andeq	r0, r0, sl
 1d8:	25011101 	strcs	r1, [r1, #-257]	; 0x101
 1dc:	030b130e 	movweq	r1, #45838	; 0xb30e
 1e0:	110e1b0e 	tstne	lr, lr, lsl #22
 1e4:	10011201 	andne	r1, r1, r1, lsl #4
 1e8:	02000006 	andeq	r0, r0, #6
 1ec:	0b0b0024 	bleq	2c0284 <__bss_end+0x2b7890>
 1f0:	0e030b3e 	vmoveq.16	d3[0], r0
 1f4:	2e030000 	cdpcs	0, 0, cr0, cr3, cr0, {0}
 1f8:	030c3f01 	movweq	r3, #52993	; 0xcf01
 1fc:	3b0b3a0e 	blcc	2cea3c <__bss_end+0x2c6048>
 200:	1201110b 	andne	r1, r1, #-1073741822	; 0xc0000002
 204:	96064001 	strls	r4, [r6], -r1
 208:	13010c42 	movwne	r0, #7234	; 0x1c42
 20c:	34040000 	strcc	r0, [r4], #-0
 210:	3a080300 	bcc	200e18 <__bss_end+0x1f8424>
 214:	490b3b0b 	stmdbmi	fp, {r0, r1, r3, r8, r9, fp, ip, sp}
 218:	000a0213 	andeq	r0, sl, r3, lsl r2
 21c:	002e0500 	eoreq	r0, lr, r0, lsl #10
 220:	0e030c3f 	mcreq	12, 0, r0, cr3, cr15, {1}
 224:	0b3b0b3a 	bleq	ec2f14 <__bss_end+0xeba520>
 228:	01120111 	tsteq	r2, r1, lsl r1
 22c:	42960640 	addsmi	r0, r6, #67108864	; 0x4000000
 230:	0600000c 	streq	r0, [r0], -ip
 234:	0c3f012e 	ldfeqs	f0, [pc], #-184	; 184 <_start-0x7e7c>
 238:	0b3a0e03 	bleq	e83a4c <__bss_end+0xe7b058>
 23c:	01110b3b 	tsteq	r1, fp, lsr fp
 240:	06400112 			; <UNDEFINED> instruction: 0x06400112
 244:	000c4296 	muleq	ip, r6, r2
 248:	11010000 	mrsne	r0, (UNDEF: 1)
 24c:	130e2501 	movwne	r2, #58625	; 0xe501
 250:	1b0e030b 	blne	380e84 <__bss_end+0x378490>
 254:	1201110e 	andne	r1, r1, #-2147483645	; 0x80000003
 258:	00061001 	andeq	r1, r6, r1
 25c:	00160200 	andseq	r0, r6, r0, lsl #4
 260:	0b3a0e03 	bleq	e83a74 <__bss_end+0xe7b080>
 264:	13490b3b 	movtne	r0, #39739	; 0x9b3b
 268:	04030000 	streq	r0, [r3], #-0
 26c:	0b0e0301 	bleq	380e78 <__bss_end+0x378484>
 270:	3b0b3a0b 	blcc	2ceaa4 <__bss_end+0x2c60b0>
 274:	0013010b 	andseq	r0, r3, fp, lsl #2
 278:	00280400 	eoreq	r0, r8, r0, lsl #8
 27c:	0d1c0803 	ldceq	8, cr0, [ip, #-12]
 280:	28050000 	stmdacs	r5, {}	; <UNPREDICTABLE>
 284:	1c0e0300 	stcne	3, cr0, [lr], {-0}
 288:	0600000d 	streq	r0, [r0], -sp
 28c:	0b0b000f 	bleq	2c02d0 <__bss_end+0x2b78dc>
 290:	00001349 	andeq	r1, r0, r9, asr #6
 294:	27001507 	strcs	r1, [r0, -r7, lsl #10]
 298:	0800000c 	stmdaeq	r0, {r2, r3}
 29c:	0e030113 	mcreq	1, 0, r0, cr3, cr3, {0}
 2a0:	0b3a0b0b 	bleq	e82ed4 <__bss_end+0xe7a4e0>
 2a4:	13010b3b 	movwne	r0, #6971	; 0x1b3b
 2a8:	0d090000 	stceq	0, cr0, [r9, #-0]
 2ac:	3a080300 	bcc	200eb4 <__bss_end+0x1f84c0>
 2b0:	490b3b0b 	stmdbmi	fp, {r0, r1, r3, r8, r9, fp, ip, sp}
 2b4:	000a3813 	andeq	r3, sl, r3, lsl r8
 2b8:	000d0a00 	andeq	r0, sp, r0, lsl #20
 2bc:	0b3a0e03 	bleq	e83ad0 <__bss_end+0xe7b0dc>
 2c0:	13490b3b 	movtne	r0, #39739	; 0x9b3b
 2c4:	00000a38 	andeq	r0, r0, r8, lsr sl
 2c8:	0b000f0b 	bleq	3efc <_start-0x4104>
 2cc:	0c00000b 	stceq	0, cr0, [r0], {11}
 2d0:	0c3f012e 	ldfeqs	f0, [pc], #-184	; 220 <_start-0x7de0>
 2d4:	0b3a0e03 	bleq	e83ae8 <__bss_end+0xe7b0f4>
 2d8:	0c270b3b 	stceq	11, cr0, [r7], #-236	; 0xffffff14
 2dc:	01120111 	tsteq	r2, r1, lsl r1
 2e0:	42960640 	addsmi	r0, r6, #67108864	; 0x4000000
 2e4:	0013010c 	andseq	r0, r3, ip, lsl #2
 2e8:	00050d00 	andeq	r0, r5, r0, lsl #26
 2ec:	0b3a0e03 	bleq	e83b00 <__bss_end+0xe7b10c>
 2f0:	13490b3b 	movtne	r0, #39739	; 0x9b3b
 2f4:	00000a02 	andeq	r0, r0, r2, lsl #20
 2f8:	0300050e 	movweq	r0, #1294	; 0x50e
 2fc:	3b0b3a08 	blcc	2ceb24 <__bss_end+0x2c6130>
 300:	0213490b 	andseq	r4, r3, #180224	; 0x2c000
 304:	0f00000a 	svceq	0x0000000a
 308:	0b0b0024 	bleq	2c03a0 <__bss_end+0x2b79ac>
 30c:	0e030b3e 	vmoveq.16	d3[0], r0
 310:	34100000 	ldrcc	r0, [r0], #-0
 314:	3a080300 	bcc	200f1c <__bss_end+0x1f8528>
 318:	490b3b0b 	stmdbmi	fp, {r0, r1, r3, r8, r9, fp, ip, sp}
 31c:	000a0213 	andeq	r0, sl, r3, lsl r2
 320:	00341100 	eorseq	r1, r4, r0, lsl #2
 324:	0b3a0e03 	bleq	e83b38 <__bss_end+0xe7b144>
 328:	13490b3b 	movtne	r0, #39739	; 0x9b3b
 32c:	00000a02 	andeq	r0, r0, r2, lsl #20
 330:	3f002e12 	svccc	0x00002e12
 334:	3a0e030c 	bcc	380f6c <__bss_end+0x378578>
 338:	110b3b0b 	tstne	fp, fp, lsl #22
 33c:	40011201 	andmi	r1, r1, r1, lsl #4
 340:	0c429606 	mcrreq	6, 0, r9, r2, cr6
 344:	2e130000 	cdpcs	0, 1, cr0, cr3, cr0, {0}
 348:	030c3f01 	movweq	r3, #52993	; 0xcf01
 34c:	3b0b3a0e 	blcc	2ceb8c <__bss_end+0x2c6198>
 350:	1201110b 	andne	r1, r1, #-1073741822	; 0xc0000002
 354:	96064001 	strls	r4, [r6], -r1
 358:	13010c42 	movwne	r0, #7234	; 0x1c42
 35c:	2e140000 	cdpcs	0, 1, cr0, cr4, cr0, {0}
 360:	030c3f00 	movweq	r3, #52992	; 0xcf00
 364:	3b0b3a0e 	blcc	2ceba4 <__bss_end+0x2c61b0>
 368:	1201110b 	andne	r1, r1, #-1073741822	; 0xc0000002
 36c:	970a4001 	strls	r4, [sl, -r1]
 370:	00000c42 	andeq	r0, r0, r2, asr #24
 374:	11010b15 	tstne	r1, r5, lsl fp
 378:	00011201 	andeq	r1, r1, r1, lsl #4
 37c:	012e1600 	teqeq	lr, r0, lsl #12
 380:	0e030c3f 	mcreq	12, 0, r0, cr3, cr15, {1}
 384:	0b3b0b3a 	bleq	ec3074 <__bss_end+0xeba680>
 388:	01120111 	tsteq	r2, r1, lsl r1
 38c:	42960a40 	addsmi	r0, r6, #262144	; 0x40000
 390:	0013010c 	andseq	r0, r3, ip, lsl #2
 394:	00341700 	eorseq	r1, r4, r0, lsl #14
 398:	0b3a0e03 	bleq	e83bac <__bss_end+0xe7b1b8>
 39c:	13490b3b 	movtne	r0, #39739	; 0x9b3b
 3a0:	0a020c3f 	beq	834a4 <__bss_end+0x7aab0>
 3a4:	34180000 	ldrcc	r0, [r8], #-0
 3a8:	3a080300 	bcc	200fb0 <__bss_end+0x1f85bc>
 3ac:	490b3b0b 	stmdbmi	fp, {r0, r1, r3, r8, r9, fp, ip, sp}
 3b0:	020c3f13 	andeq	r3, ip, #76	; 0x4c
 3b4:	0000000a 	andeq	r0, r0, sl

Disassembly of section .debug_aranges:

00000000 <.debug_aranges>:
   0:	0000001c 	andeq	r0, r0, ip, lsl r0
   4:	00000002 	andeq	r0, r0, r2
   8:	00040000 	andeq	r0, r4, r0
   c:	00000000 	andeq	r0, r0, r0
  10:	00008000 	andeq	r8, r0, r0
  14:	000000d0 	ldrdeq	r0, [r0], -r0	; <UNPREDICTABLE>
	...
  20:	0000001c 	andeq	r0, r0, ip, lsl r0
  24:	00600002 	rsbeq	r0, r0, r2
  28:	00040000 	andeq	r0, r4, r0
  2c:	00000000 	andeq	r0, r0, r0
  30:	000080d0 	ldrdeq	r8, [r0], -r0
  34:	000000a8 	andeq	r0, r0, r8, lsr #1
	...
  40:	0000001c 	andeq	r0, r0, ip, lsl r0
  44:	022a0002 	eoreq	r0, sl, #2
  48:	00040000 	andeq	r0, r4, r0
  4c:	00000000 	andeq	r0, r0, r0
  50:	00008178 	andeq	r8, r0, r8, ror r1
  54:	00000138 	andeq	r0, r0, r8, lsr r1
	...
  60:	0000001c 	andeq	r0, r0, ip, lsl r0
  64:	038c0002 	orreq	r0, ip, #2
  68:	00040000 	andeq	r0, r4, r0
  6c:	00000000 	andeq	r0, r0, r0
  70:	000082b0 			; <UNDEFINED> instruction: 0x000082b0
  74:	0000013c 	andeq	r0, r0, ip, lsr r1
	...
  80:	0000001c 	andeq	r0, r0, ip, lsl r0
  84:	04480002 	strbeq	r0, [r8], #-2
  88:	00040000 	andeq	r0, r4, r0
  8c:	00000000 	andeq	r0, r0, r0
  90:	000083ec 	andeq	r8, r0, ip, ror #7
  94:	000005f0 	strdeq	r0, [r0], -r0	; <UNPREDICTABLE>
	...

Disassembly of section .debug_loc:

00000000 <.debug_loc>:
   0:	00000000 	andeq	r0, r0, r0
   4:	00000004 	andeq	r0, r0, r4
   8:	007d0002 	rsbseq	r0, sp, r2
   c:	00000004 	andeq	r0, r0, r4
  10:	00000040 	andeq	r0, r0, r0, asr #32
  14:	087d0002 	ldmdaeq	sp!, {r1}^
	...
  20:	00000040 	andeq	r0, r0, r0, asr #32
  24:	00000044 	andeq	r0, r0, r4, asr #32
  28:	007d0002 	rsbseq	r0, sp, r2
  2c:	00000044 	andeq	r0, r0, r4, asr #32
  30:	00000070 	andeq	r0, r0, r0, ror r0
  34:	087d0002 	ldmdaeq	sp!, {r1}^
	...
  40:	00000070 	andeq	r0, r0, r0, ror r0
  44:	00000074 	andeq	r0, r0, r4, ror r0
  48:	007d0002 	rsbseq	r0, sp, r2
  4c:	00000074 	andeq	r0, r0, r4, ror r0
  50:	000000a8 	andeq	r0, r0, r8, lsr #1
  54:	087d0002 	ldmdaeq	sp!, {r1}^
	...
  64:	00000004 	andeq	r0, r0, r4
  68:	007d0002 	rsbseq	r0, sp, r2
  6c:	00000004 	andeq	r0, r0, r4
  70:	00000008 	andeq	r0, r0, r8
  74:	087d0002 	ldmdaeq	sp!, {r1}^
  78:	00000008 	andeq	r0, r0, r8
  7c:	000000b4 	strheq	r0, [r0], -r4
  80:	107d0002 	rsbsne	r0, sp, r2
	...
  8c:	000000b4 	strheq	r0, [r0], -r4
  90:	000000b8 	strheq	r0, [r0], -r8
  94:	007d0002 	rsbseq	r0, sp, r2
  98:	000000b8 	strheq	r0, [r0], -r8
  9c:	000000bc 	strheq	r0, [r0], -ip
  a0:	047d0002 	ldrbteq	r0, [sp], #-2
  a4:	000000bc 	strheq	r0, [r0], -ip
  a8:	000000fc 	strdeq	r0, [r0], -ip
  ac:	107d0002 	rsbsne	r0, sp, r2
	...
  b8:	000000fc 	strdeq	r0, [r0], -ip
  bc:	00000100 	andeq	r0, r0, r0, lsl #2
  c0:	007d0002 	rsbseq	r0, sp, r2
  c4:	00000100 	andeq	r0, r0, r0, lsl #2
  c8:	00000138 	andeq	r0, r0, r8, lsr r1
  cc:	087d0002 	ldmdaeq	sp!, {r1}^
	...
  dc:	00000004 	andeq	r0, r0, r4
  e0:	007d0002 	rsbseq	r0, sp, r2
  e4:	00000004 	andeq	r0, r0, r4
  e8:	00000008 	andeq	r0, r0, r8
  ec:	047d0002 	ldrbteq	r0, [sp], #-2
  f0:	00000008 	andeq	r0, r0, r8
  f4:	0000004c 	andeq	r0, r0, ip, asr #32
  f8:	107d0002 	rsbsne	r0, sp, r2
	...
 104:	0000004c 	andeq	r0, r0, ip, asr #32
 108:	00000050 	andeq	r0, r0, r0, asr r0
 10c:	007d0002 	rsbseq	r0, sp, r2
 110:	00000050 	andeq	r0, r0, r0, asr r0
 114:	00000064 	andeq	r0, r0, r4, rrx
 118:	087d0002 	ldmdaeq	sp!, {r1}^
	...
 124:	00000064 	andeq	r0, r0, r4, rrx
 128:	00000068 	andeq	r0, r0, r8, rrx
 12c:	007d0002 	rsbseq	r0, sp, r2
 130:	00000068 	andeq	r0, r0, r8, rrx
 134:	0000007c 	andeq	r0, r0, ip, ror r0
 138:	087d0002 	ldmdaeq	sp!, {r1}^
	...
 144:	0000007c 	andeq	r0, r0, ip, ror r0
 148:	00000080 	andeq	r0, r0, r0, lsl #1
 14c:	007d0002 	rsbseq	r0, sp, r2
 150:	00000080 	andeq	r0, r0, r0, lsl #1
 154:	00000084 	andeq	r0, r0, r4, lsl #1
 158:	047d0002 	ldrbteq	r0, [sp], #-2
 15c:	00000084 	andeq	r0, r0, r4, lsl #1
 160:	0000013c 	andeq	r0, r0, ip, lsr r1
 164:	107d0002 	rsbsne	r0, sp, r2
	...
 174:	00000004 	andeq	r0, r0, r4
 178:	007d0002 	rsbseq	r0, sp, r2
 17c:	00000004 	andeq	r0, r0, r4
 180:	00000008 	andeq	r0, r0, r8
 184:	047d0002 	ldrbteq	r0, [sp], #-2
 188:	00000008 	andeq	r0, r0, r8
 18c:	00000054 	andeq	r0, r0, r4, asr r0
 190:	187d0002 	ldmdane	sp!, {r1}^
	...
 19c:	00000054 	andeq	r0, r0, r4, asr r0
 1a0:	00000058 	andeq	r0, r0, r8, asr r0
 1a4:	007d0002 	rsbseq	r0, sp, r2
 1a8:	00000058 	andeq	r0, r0, r8, asr r0
 1ac:	0000005c 	andeq	r0, r0, ip, asr r0
 1b0:	047d0002 	ldrbteq	r0, [sp], #-2
 1b4:	0000005c 	andeq	r0, r0, ip, asr r0
 1b8:	000000c0 	andeq	r0, r0, r0, asr #1
 1bc:	207d0002 	rsbscs	r0, sp, r2
	...
 1c8:	000000c0 	andeq	r0, r0, r0, asr #1
 1cc:	000000c4 	andeq	r0, r0, r4, asr #1
 1d0:	007d0002 	rsbseq	r0, sp, r2
 1d4:	000000c4 	andeq	r0, r0, r4, asr #1
 1d8:	000000c8 	andeq	r0, r0, r8, asr #1
 1dc:	047d0002 	ldrbteq	r0, [sp], #-2
 1e0:	000000c8 	andeq	r0, r0, r8, asr #1
 1e4:	000001a8 	andeq	r0, r0, r8, lsr #3
 1e8:	207d0002 	rsbscs	r0, sp, r2
	...
 1f4:	000001a8 	andeq	r0, r0, r8, lsr #3
 1f8:	000001ac 	andeq	r0, r0, ip, lsr #3
 1fc:	007d0002 	rsbseq	r0, sp, r2
 200:	000001ac 	andeq	r0, r0, ip, lsr #3
 204:	00000210 	andeq	r0, r0, r0, lsl r2
 208:	087d0002 	ldmdaeq	sp!, {r1}^
	...
 214:	00000210 	andeq	r0, r0, r0, lsl r2
 218:	00000214 	andeq	r0, r0, r4, lsl r2
 21c:	007d0002 	rsbseq	r0, sp, r2
 220:	00000214 	andeq	r0, r0, r4, lsl r2
 224:	00000218 	andeq	r0, r0, r8, lsl r2
 228:	047d0002 	ldrbteq	r0, [sp], #-2
 22c:	00000218 	andeq	r0, r0, r8, lsl r2
 230:	00000304 	andeq	r0, r0, r4, lsl #6
 234:	107d0002 	rsbsne	r0, sp, r2
	...
 240:	00000320 	andeq	r0, r0, r0, lsr #6
 244:	00000324 	andeq	r0, r0, r4, lsr #6
 248:	007d0002 	rsbseq	r0, sp, r2
 24c:	00000324 	andeq	r0, r0, r4, lsr #6
 250:	00000358 	andeq	r0, r0, r8, asr r3
 254:	087d0002 	ldmdaeq	sp!, {r1}^
	...
 260:	00000358 	andeq	r0, r0, r8, asr r3
 264:	0000035c 	andeq	r0, r0, ip, asr r3
 268:	007d0002 	rsbseq	r0, sp, r2
 26c:	0000035c 	andeq	r0, r0, ip, asr r3
 270:	00000360 	andeq	r0, r0, r0, ror #6
 274:	047d0002 	ldrbteq	r0, [sp], #-2
 278:	00000360 	andeq	r0, r0, r0, ror #6
 27c:	000004dc 	ldrdeq	r0, [r0], -ip
 280:	107d0002 	rsbsne	r0, sp, r2
	...

Disassembly of section .debug_str:

00000000 <.debug_str>:
   0:	5f626370 	svcpl	0x00626370
   4:	73677261 	cmnvc	r7, #268435462	; 0x10000006
   8:	74706300 	ldrbtvc	r6, [r0], #-768	; 0x300
   c:	656e0042 	strbvs	r0, [lr, #-66]!	; 0x42
  10:	705f7478 	subsvc	r7, pc, r8, ror r4	; <UNPREDICTABLE>
  14:	66006263 	strvs	r6, [r0], -r3, ror #4
  18:	74636e75 	strbtvc	r6, [r3], #-3701	; 0xe75
  1c:	6b00745f 	blvs	1d1a0 <__bss_end+0x147ac>
  20:	6e69616d 	powvsez	f6, f1, #5.0
  24:	554e4700 	strbpl	r4, [lr, #-1792]	; 0x700
  28:	34204320 	strtcc	r4, [r0], #-800	; 0x320
  2c:	312e372e 	teqcc	lr, lr, lsr #14
  30:	49415700 	stmdbmi	r1, {r8, r9, sl, ip, lr}^
  34:	474e4954 	smlsldmi	r4, lr, r4, r9
  38:	74706300 	ldrbtvc	r6, [r0], #-768	; 0x300
  3c:	69660041 	stmdbvs	r6!, {r0, r6}^
  40:	5f747372 	svcpl	0x00747372
  44:	00626370 	rsbeq	r6, r2, r0, ror r3
  48:	5f626370 	svcpl	0x00626370
  4c:	75660066 	strbvc	r0, [r6, #-102]!	; 0x66
  50:	0041636e 	subeq	r6, r1, lr, ror #6
  54:	72646461 	rsbvc	r6, r4, #1627389952	; 0x61000000
  58:	00737365 	rsbseq	r7, r3, r5, ror #6
  5c:	69616863 	stmdbvs	r1!, {r0, r1, r5, r6, fp, sp, lr}^
  60:	5f64656e 	svcpl	0x0064656e
  64:	7473696c 	ldrbtvc	r6, [r3], #-2412	; 0x96c
  68:	52455400 	subpl	r5, r5, #0
  6c:	414e494d 	cmpmi	lr, sp, asr #18
  70:	00444554 	subeq	r4, r4, r4, asr r5
  74:	7473616c 	ldrbtvc	r6, [r3], #-364	; 0x16c
  78:	6263705f 	rsbvs	r7, r3, #95	; 0x5f
  7c:	6e756600 	cdpvs	6, 7, cr6, cr5, cr0, {0}
  80:	63004263 	movwvs	r4, #611	; 0x263
  84:	735f7874 	cmpvc	pc, #7602176	; 0x740000
  88:	6f682f00 	svcvs	0x00682f00
  8c:	762f656d 	strtvc	r6, [pc], -sp, ror #10
  90:	746d6f63 	strbtvc	r6, [sp], #-3939	; 0xf63
  94:	6f442f65 	svcvs	0x00442f65
  98:	656d7563 	strbvs	r7, [sp, #-1379]!	; 0x563
  9c:	2f73746e 	svccs	0x0073746e
  a0:	522d7054 	eorpl	r7, sp, #84	; 0x54
  a4:	62707361 	rsbsvs	r7, r0, #-2080374783	; 0x84000001
  a8:	79727265 	ldmdbvc	r2!, {r0, r2, r5, r6, r9, ip, sp, lr}^
  ac:	70736f2f 	rsbsvc	r6, r3, pc, lsr #30
  b0:	732d6569 	teqvc	sp, #440401920	; 0x1a400000
  b4:	74726174 	ldrbtvc	r6, [r2], #-372	; 0x174
  b8:	4e555200 	cdpmi	2, 5, cr5, cr5, cr0, {0}
  bc:	474e494e 	strbmi	r4, [lr, -lr, asr #18]
  c0:	72656b00 	rsbvc	r6, r5, #0
  c4:	2e6c656e 	cdpcs	5, 6, cr6, cr12, cr14, {3}
  c8:	74730063 	ldrbtvc	r0, [r3], #-99	; 0x63
  cc:	00657461 	rsbeq	r7, r5, r1, ror #8
  d0:	5f626370 	svcpl	0x00626370
  d4:	6e690073 	mcrvs	0, 3, r0, cr9, cr3, {3}
  d8:	735f7469 	cmpvc	pc, #1761607680	; 0x69000000
  dc:	74530070 	ldrbvc	r0, [r3], #-112	; 0x70
  e0:	00657461 	rsbeq	r7, r5, r1, ror #8
  e4:	5f626370 	svcpl	0x00626370
  e8:	00787463 	rsbseq	r7, r8, r3, ror #8
  ec:	41796870 	cmnmi	r9, r0, ror r8
  f0:	636f6c6c 	cmnvs	pc, #27648	; 0x6c00
  f4:	7000632e 	andvc	r6, r0, lr, lsr #6
  f8:	00766572 	rsbseq	r6, r6, r2, ror r5
  fc:	65657266 	strbvs	r7, [r5, #-614]!	; 0x266
 100:	7473696c 	ldrbtvc	r6, [r3], #-2412	; 0x96c
 104:	79687000 	stmdbvc	r8!, {ip, sp, lr}^
 108:	6f6c6c41 	svcvs	0x006c6c41
 10c:	72665f63 	rsbvc	r5, r6, #396	; 0x18c
 110:	68006565 	stmdavs	r0, {r0, r2, r5, r6, r8, sl, sp, lr}
 114:	5f706165 	svcpl	0x00706165
 118:	696d696c 	stmdbvs	sp!, {r2, r3, r5, r6, r8, fp, sp, lr}^
 11c:	65680074 	strbvs	r0, [r8, #-116]!	; 0x74
 120:	735f7061 	cmpvc	pc, #97	; 0x61
 124:	74726174 	ldrbtvc	r6, [r2], #-372	; 0x174
 128:	78656e00 	stmdavc	r5!, {r9, sl, fp, sp, lr}^
 12c:	68700074 	ldmdavs	r0!, {r2, r4, r5, r6}^
 130:	6c6c4179 	stfvse	f4, [ip], #-484	; 0xfffffe1c
 134:	615f636f 	cmpvs	pc, pc, ror #6
 138:	636f6c6c 	cmnvs	pc, #27648	; 0x6c00
 13c:	79687000 	stmdbvc	r8!, {ip, sp, lr}^
 140:	6f6c6c41 	svcvs	0x006c6c41
 144:	6e695f63 	cdpvs	15, 6, cr5, cr9, cr3, {3}
 148:	68007469 	stmdavs	r0, {r0, r3, r5, r6, sl, ip, sp, lr}
 14c:	5f706165 	svcpl	0x00706165
 150:	657a6973 	ldrbvs	r6, [sl, #-2419]!	; 0x973
 154:	736e7500 	cmnvc	lr, #0
 158:	656e6769 	strbvs	r6, [lr, #-1897]!	; 0x769
 15c:	68632064 	stmdavs	r3!, {r2, r5, r6, sp}^
 160:	68007261 	stmdavs	r0, {r0, r5, r6, r9, ip, sp, lr}
 164:	00632e77 	rsbeq	r2, r3, r7, ror lr
 168:	5f746573 	svcpl	0x00746573
 16c:	6b636974 	blvs	18da744 <__bss_end+0x18d1d50>
 170:	646e615f 	strbtvs	r6, [lr], #-351	; 0x15f
 174:	616e655f 	cmnvs	lr, pc, asr r5
 178:	5f656c62 	svcpl	0x00656c62
 17c:	656d6974 	strbvs	r6, [sp, #-2420]!	; 0x974
 180:	656c0072 	strbvs	r0, [ip, #-114]!	; 0x72
 184:	6e6f5f64 	cdpvs	15, 6, cr5, cr15, cr4, {3}
 188:	6f687300 	svcvs	0x00687300
 18c:	75207472 	strvc	r7, [r0, #-1138]!	; 0x472
 190:	6769736e 	strbvs	r7, [r9, -lr, ror #6]!
 194:	2064656e 	rsbcs	r6, r4, lr, ror #10
 198:	00746e69 	rsbseq	r6, r4, r9, ror #28
 19c:	74696e69 	strbtvc	r6, [r9], #-3689	; 0xe69
 1a0:	0077685f 	rsbseq	r6, r7, pc, asr r8
 1a4:	5f64656c 	svcpl	0x0064656c
 1a8:	0066666f 	rsbeq	r6, r6, pc, ror #12
 1ac:	5f787463 	svcpl	0x00787463
 1b0:	74697773 	strbtvc	r7, [r9], #-1907	; 0x773
 1b4:	665f6863 	ldrbvs	r6, [pc], -r3, ror #16
 1b8:	5f6d6f72 	svcpl	0x006d6f72
 1bc:	00717269 	rsbseq	r7, r1, r9, ror #4
 1c0:	65686373 	strbvs	r6, [r8, #-883]!	; 0x373
 1c4:	00632e64 	rsbeq	r2, r3, r4, ror #28
 1c8:	61657263 	cmnvs	r5, r3, ror #4
 1cc:	705f6574 	subsvc	r6, pc, r4, ror r5	; <UNPREDICTABLE>
 1d0:	65636f72 	strbvs	r6, [r3, #-3954]!	; 0xf72
 1d4:	74007373 	strvc	r7, [r0], #-883	; 0x373
 1d8:	696d7265 	stmdbvs	sp!, {r0, r2, r5, r6, r9, ip, sp, lr}^
 1dc:	6574616e 	ldrbvs	r6, [r4, #-366]!	; 0x16e
 1e0:	6f72705f 	svcvs	0x0072705f
 1e4:	73736563 	cmnvc	r3, #415236096	; 0x18c00000
 1e8:	6e6f6300 	cdpvs	3, 6, cr6, cr15, cr0, {0}
 1ec:	74786574 	ldrbtvc	r6, [r8], #-1396	; 0x574
 1f0:	61747300 	cmnvs	r4, r0, lsl #6
 1f4:	735f6b63 	cmpvc	pc, #101376	; 0x18c00
 1f8:	00657a69 	rsbeq	r7, r5, r9, ror #20
 1fc:	72617473 	rsbvc	r7, r1, #1929379840	; 0x73000000
 200:	63735f74 	cmnvs	r3, #464	; 0x1d0
 204:	00646568 	rsbeq	r6, r4, r8, ror #10
 208:	636f7270 	cmnvs	pc, #7
 20c:	78746300 	ldmdavc	r4!, {r8, r9, sp, lr}^
 210:	6977735f 	ldmdbvs	r7!, {r0, r1, r2, r3, r4, r6, r8, r9, ip, sp, lr}^
 214:	00686374 	rsbeq	r6, r8, r4, ror r3
 218:	72617473 	rsbvc	r7, r1, #1929379840	; 0x73000000
 21c:	75635f74 	strbvc	r5, [r3, #-3956]!	; 0xf74
 220:	6e657272 	mcrvs	2, 3, r7, cr5, cr2, {3}
 224:	72705f74 	rsbsvc	r5, r0, #464	; 0x1d0
 228:	7365636f 	cmnvc	r5, #-1140850687	; 0xbc000001
 22c:	656e0073 	strbvs	r0, [lr, #-115]!	; 0x73
 230:	63705f77 	cmnvs	r0, #476	; 0x1dc
 234:	6e690062 	cdpvs	0, 6, cr0, cr9, cr2, {3}
 238:	705f7469 	subsvc	r7, pc, r9, ror #8
 23c:	69006263 	stmdbvs	r0, {r0, r1, r5, r6, r9, sp, lr}
 240:	5f74696e 	svcpl	0x0074696e
 244:	00787463 	rsbseq	r7, r8, r3, ror #8
 248:	63656c65 	cmnvs	r5, #25856	; 0x6500
 24c:	Address 0x000000000000024c is out of bounds.


Disassembly of section .debug_frame:

00000000 <.debug_frame>:
   0:	0000000c 	andeq	r0, r0, ip
   4:	ffffffff 			; <UNDEFINED> instruction: 0xffffffff
   8:	7c020001 	stcvc	0, cr0, [r2], {1}
   c:	000d0c0e 	andeq	r0, sp, lr, lsl #24
  10:	00000010 	andeq	r0, r0, r0, lsl r0
  14:	00000000 	andeq	r0, r0, r0
  18:	000080d0 	ldrdeq	r8, [r0], -r0
  1c:	00000040 	andeq	r0, r0, r0, asr #32
  20:	00080e42 	andeq	r0, r8, r2, asr #28
  24:	00000010 	andeq	r0, r0, r0, lsl r0
  28:	00000000 	andeq	r0, r0, r0
  2c:	00008110 	andeq	r8, r0, r0, lsl r1
  30:	00000030 	andeq	r0, r0, r0, lsr r0
  34:	00080e42 	andeq	r0, r8, r2, asr #28
  38:	00000014 	andeq	r0, r0, r4, lsl r0
  3c:	00000000 	andeq	r0, r0, r0
  40:	00008140 	andeq	r8, r0, r0, asr #2
  44:	00000038 	andeq	r0, r0, r8, lsr r0
  48:	83080e42 	movwhi	r0, #36418	; 0x8e42
  4c:	00018e02 	andeq	r8, r1, r2, lsl #28
  50:	0000000c 	andeq	r0, r0, ip
  54:	ffffffff 			; <UNDEFINED> instruction: 0xffffffff
  58:	7c020001 	stcvc	0, cr0, [r2], {1}
  5c:	000d0c0e 	andeq	r0, sp, lr, lsl #24
  60:	00000018 	andeq	r0, r0, r8, lsl r0
  64:	00000050 	andeq	r0, r0, r0, asr r0
  68:	00008178 	andeq	r8, r0, r8, ror r1
  6c:	000000b4 	strheq	r0, [r0], -r4
  70:	84080e42 	strhi	r0, [r8], #-3650	; 0xe42
  74:	42018502 	andmi	r8, r1, #8388608	; 0x800000
  78:	0000100e 	andeq	r1, r0, lr
  7c:	00000014 	andeq	r0, r0, r4, lsl r0
  80:	00000050 	andeq	r0, r0, r0, asr r0
  84:	0000822c 	andeq	r8, r0, ip, lsr #4
  88:	00000048 	andeq	r0, r0, r8, asr #32
  8c:	84040e42 	strhi	r0, [r4], #-3650	; 0xe42
  90:	100e4201 	andne	r4, lr, r1, lsl #4
  94:	00000010 	andeq	r0, r0, r0, lsl r0
  98:	00000050 	andeq	r0, r0, r0, asr r0
  9c:	00008274 	andeq	r8, r0, r4, ror r2
  a0:	0000003c 	andeq	r0, r0, ip, lsr r0
  a4:	00080e42 	andeq	r0, r8, r2, asr #28
  a8:	0000000c 	andeq	r0, r0, ip
  ac:	ffffffff 			; <UNDEFINED> instruction: 0xffffffff
  b0:	7c020001 	stcvc	0, cr0, [r2], {1}
  b4:	000d0c0e 	andeq	r0, sp, lr, lsl #24
  b8:	00000014 	andeq	r0, r0, r4, lsl r0
  bc:	000000a8 	andeq	r0, r0, r8, lsr #1
  c0:	000082b0 			; <UNDEFINED> instruction: 0x000082b0
  c4:	0000004c 	andeq	r0, r0, ip, asr #32
  c8:	8e040e42 	cdphi	14, 0, cr0, cr4, cr2, {2}
  cc:	100e4201 	andne	r4, lr, r1, lsl #4
  d0:	00000014 	andeq	r0, r0, r4, lsl r0
  d4:	000000a8 	andeq	r0, r0, r8, lsr #1
  d8:	000082fc 	strdeq	r8, [r0], -ip
  dc:	00000018 	andeq	r0, r0, r8, lsl r0
  e0:	83080e42 	movwhi	r0, #36418	; 0x8e42
  e4:	00018e02 	andeq	r8, r1, r2, lsl #28
  e8:	00000014 	andeq	r0, r0, r4, lsl r0
  ec:	000000a8 	andeq	r0, r0, r8, lsr #1
  f0:	00008314 	andeq	r8, r0, r4, lsl r3
  f4:	00000018 	andeq	r0, r0, r8, lsl r0
  f8:	83080e42 	movwhi	r0, #36418	; 0x8e42
  fc:	00018e02 	andeq	r8, r1, r2, lsl #28
 100:	00000014 	andeq	r0, r0, r4, lsl r0
 104:	000000a8 	andeq	r0, r0, r8, lsr #1
 108:	0000832c 	andeq	r8, r0, ip, lsr #6
 10c:	000000c0 	andeq	r0, r0, r0, asr #1
 110:	8e040e42 	cdphi	14, 0, cr0, cr4, cr2, {2}
 114:	100e4201 	andne	r4, lr, r1, lsl #4
 118:	0000000c 	andeq	r0, r0, ip
 11c:	ffffffff 			; <UNDEFINED> instruction: 0xffffffff
 120:	7c020001 	stcvc	0, cr0, [r2], {1}
 124:	000d0c0e 	andeq	r0, sp, lr, lsl #24
 128:	00000014 	andeq	r0, r0, r4, lsl r0
 12c:	00000118 	andeq	r0, r0, r8, lsl r1
 130:	000083ec 	andeq	r8, r0, ip, ror #7
 134:	00000054 	andeq	r0, r0, r4, asr r0
 138:	8e040e42 	cdphi	14, 0, cr0, cr4, cr2, {2}
 13c:	180e4201 	stmdane	lr, {r0, r9, lr}
 140:	00000014 	andeq	r0, r0, r4, lsl r0
 144:	00000118 	andeq	r0, r0, r8, lsl r1
 148:	00008440 	andeq	r8, r0, r0, asr #8
 14c:	0000006c 	andeq	r0, r0, ip, rrx
 150:	8e040e42 	cdphi	14, 0, cr0, cr4, cr2, {2}
 154:	200e4201 	andcs	r4, lr, r1, lsl #4
 158:	00000014 	andeq	r0, r0, r4, lsl r0
 15c:	00000118 	andeq	r0, r0, r8, lsl r1
 160:	000084ac 	andeq	r8, r0, ip, lsr #9
 164:	000000e8 	andeq	r0, r0, r8, ror #1
 168:	8e040e42 	cdphi	14, 0, cr0, cr4, cr2, {2}
 16c:	200e4201 	andcs	r4, lr, r1, lsl #4
 170:	00000014 	andeq	r0, r0, r4, lsl r0
 174:	00000118 	andeq	r0, r0, r8, lsl r1
 178:	00008594 	muleq	r0, r4, r5
 17c:	00000068 	andeq	r0, r0, r8, rrx
 180:	83080e42 	movwhi	r0, #36418	; 0x8e42
 184:	00018e02 	andeq	r8, r1, r2, lsl #28
 188:	00000014 	andeq	r0, r0, r4, lsl r0
 18c:	00000118 	andeq	r0, r0, r8, lsl r1
 190:	000085fc 	strdeq	r8, [r0], -ip
 194:	000000f4 	strdeq	r0, [r0], -r4
 198:	8e040e42 	cdphi	14, 0, cr0, cr4, cr2, {2}
 19c:	100e4201 	andne	r4, lr, r1, lsl #4
 1a0:	0000000c 	andeq	r0, r0, ip
 1a4:	00000118 	andeq	r0, r0, r8, lsl r1
 1a8:	000086f0 	strdeq	r8, [r0], -r0
 1ac:	0000001c 	andeq	r0, r0, ip, lsl r0
 1b0:	00000014 	andeq	r0, r0, r4, lsl r0
 1b4:	00000118 	andeq	r0, r0, r8, lsl r1
 1b8:	0000870c 	andeq	r8, r0, ip, lsl #14
 1bc:	00000038 	andeq	r0, r0, r8, lsr r0
 1c0:	83080e42 	movwhi	r0, #36418	; 0x8e42
 1c4:	00018e02 	andeq	r8, r1, r2, lsl #28
 1c8:	00000014 	andeq	r0, r0, r4, lsl r0
 1cc:	00000118 	andeq	r0, r0, r8, lsl r1
 1d0:	00008744 	andeq	r8, r0, r4, asr #14
 1d4:	00000184 	andeq	r0, r0, r4, lsl #3
 1d8:	8e040e42 	cdphi	14, 0, cr0, cr4, cr2, {2}
 1dc:	100e4201 	andne	r4, lr, r1, lsl #4
 1e0:	0000000c 	andeq	r0, r0, ip
 1e4:	00000118 	andeq	r0, r0, r8, lsl r1
 1e8:	000088c8 	andeq	r8, r0, r8, asr #17
 1ec:	00000114 	andeq	r0, r0, r4, lsl r1
