
kernel.elf:     file format elf32-littlearm


Disassembly of section .text:

00008000 <_start>:
    8000:	e59ff018 	ldr	pc, [pc, #24]	; 8020 <reset_handler>
    8004:	e59ff018 	ldr	pc, [pc, #24]	; 8024 <undefined_handler>
    8008:	e59ff018 	ldr	pc, [pc, #24]	; 8028 <swi_handler>
    800c:	e59ff018 	ldr	pc, [pc, #24]	; 802c <prefetch_handler>
    8010:	e59ff018 	ldr	pc, [pc, #24]	; 8030 <data_handler>
    8014:	e59ff018 	ldr	pc, [pc, #24]	; 8034 <unused_handler>
    8018:	e59ff018 	ldr	pc, [pc, #24]	; 8038 <irq_handler>
    801c:	e59ff018 	ldr	pc, [pc, #24]	; 803c <fiq_handler>

00008020 <reset_handler>:
    8020:	00008040 	andeq	r8, r0, r0, asr #32

00008024 <undefined_handler>:
    8024:	00008084 	andeq	r8, r0, r4, lsl #1

00008028 <swi_handler>:
    8028:	000080cc 	andeq	r8, r0, ip, asr #1

0000802c <prefetch_handler>:
    802c:	00008088 	andeq	r8, r0, r8, lsl #1

00008030 <data_handler>:
    8030:	0000808c 	andeq	r8, r0, ip, lsl #1

00008034 <unused_handler>:
    8034:	00008090 	muleq	r0, r0, r0

00008038 <irq_handler>:
    8038:	000080c8 	andeq	r8, r0, r8, asr #1

0000803c <fiq_handler>:
    803c:	00008094 	muleq	r0, r4, r0

00008040 <reset>:
    8040:	e3a00902 	mov	r0, #32768	; 0x8000
    8044:	e3a01000 	mov	r1, #0
    8048:	e8b003fc 	ldm	r0!, {r2, r3, r4, r5, r6, r7, r8, r9}
    804c:	e8a103fc 	stmia	r1!, {r2, r3, r4, r5, r6, r7, r8, r9}
    8050:	e8b003fc 	ldm	r0!, {r2, r3, r4, r5, r6, r7, r8, r9}
    8054:	e8a103fc 	stmia	r1!, {r2, r3, r4, r5, r6, r7, r8, r9}
    8058:	e3a000d1 	mov	r0, #209	; 0xd1
    805c:	e121f000 	msr	CPSR_c, r0
    8060:	e3a0d90e 	mov	sp, #229376	; 0x38000
    8064:	e3a000d2 	mov	r0, #210	; 0xd2
    8068:	e121f000 	msr	CPSR_c, r0
    806c:	e3a0d701 	mov	sp, #262144	; 0x40000
    8070:	e3a000d3 	mov	r0, #211	; 0xd3
    8074:	e121f000 	msr	CPSR_c, r0
    8078:	e3a0d912 	mov	sp, #294912	; 0x48000
    807c:	eb000029 	bl	8128 <kmain>

00008080 <hang>:
    8080:	eafffffe 	b	8080 <hang>

00008084 <undefined>:
    8084:	eafffffe 	b	8084 <undefined>

00008088 <prefetch>:
    8088:	eafffffe 	b	8088 <prefetch>

0000808c <data>:
    808c:	eafffffe 	b	808c <data>

00008090 <unused>:
    8090:	eafffffe 	b	8090 <unused>

00008094 <fiq>:
    8094:	eafffffe 	b	8094 <fiq>

00008098 <PUT32>:
    8098:	e5801000 	str	r1, [r0]
    809c:	e12fff1e 	bx	lr

000080a0 <PUT16>:
    80a0:	e1c010b0 	strh	r1, [r0]
    80a4:	e12fff1e 	bx	lr

000080a8 <PUT8>:
    80a8:	e5c01000 	strb	r1, [r0]
    80ac:	e12fff1e 	bx	lr

000080b0 <GET32>:
    80b0:	e5900000 	ldr	r0, [r0]
    80b4:	e12fff1e 	bx	lr

000080b8 <GETPC>:
    80b8:	e1a0000e 	mov	r0, lr
    80bc:	e12fff1e 	bx	lr

000080c0 <BRANCHTO>:
    80c0:	e12fff10 	bx	r0

000080c4 <dummy>:
    80c4:	e12fff1e 	bx	lr

000080c8 <irq>:
    80c8:	ea000195 	b	8724 <ctx_switch_from_irq>

000080cc <swi>:
    80cc:	ea000253 	b	8a20 <SWIHandler>

000080d0 <funcA>:
    80d0:	e24dd008 	sub	sp, sp, #8
    80d4:	e3a03000 	mov	r3, #0
    80d8:	e58d3004 	str	r3, [sp, #4]
    80dc:	e59d3004 	ldr	r3, [sp, #4]
    80e0:	e2833001 	add	r3, r3, #1
    80e4:	e58d3004 	str	r3, [sp, #4]
    80e8:	e59d2004 	ldr	r2, [sp, #4]
    80ec:	e59f3014 	ldr	r3, [pc, #20]	; 8108 <funcA+0x38>
    80f0:	e1520003 	cmp	r2, r3
    80f4:	da000002 	ble	8104 <funcA+0x34>
    80f8:	e3a03000 	mov	r3, #0
    80fc:	e58d3004 	str	r3, [sp, #4]
    8100:	eafffff5 	b	80dc <funcA+0xc>
    8104:	eafffff4 	b	80dc <funcA+0xc>
    8108:	0016e360 	andseq	lr, r6, r0, ror #6

0000810c <funcB>:
    810c:	e24dd008 	sub	sp, sp, #8
    8110:	e3a03001 	mov	r3, #1
    8114:	e58d3004 	str	r3, [sp, #4]
    8118:	e59d3004 	ldr	r3, [sp, #4]
    811c:	e2833002 	add	r3, r3, #2
    8120:	e58d3004 	str	r3, [sp, #4]
    8124:	eafffffb 	b	8118 <funcB+0xc>

00008128 <kmain>:
    8128:	e92d4008 	push	{r3, lr}
    812c:	eb00006e 	bl	82ec <init_hw>
    8130:	eb00024c 	bl	8a68 <init_kern_translation_table>
    8134:	eafffffe 	b	8134 <kmain+0xc>

00008138 <phyAlloc_alloc>:
    8138:	e92d0030 	push	{r4, r5}
    813c:	e24dd008 	sub	sp, sp, #8
    8140:	e58d0004 	str	r0, [sp, #4]
    8144:	e59f3094 	ldr	r3, [pc, #148]	; 81e0 <phyAlloc_alloc+0xa8>
    8148:	e5934000 	ldr	r4, [r3]
    814c:	e59f508c 	ldr	r5, [pc, #140]	; 81e0 <phyAlloc_alloc+0xa8>
    8150:	ea000001 	b	815c <phyAlloc_alloc+0x24>
    8154:	e1a05004 	mov	r5, r4
    8158:	e5944000 	ldr	r4, [r4]
    815c:	e3540000 	cmp	r4, #0
    8160:	0a000003 	beq	8174 <phyAlloc_alloc+0x3c>
    8164:	e5942004 	ldr	r2, [r4, #4]
    8168:	e59d3004 	ldr	r3, [sp, #4]
    816c:	e1520003 	cmp	r2, r3
    8170:	3afffff7 	bcc	8154 <phyAlloc_alloc+0x1c>
    8174:	e3540000 	cmp	r4, #0
    8178:	1a000011 	bne	81c4 <phyAlloc_alloc+0x8c>
    817c:	e59f3060 	ldr	r3, [pc, #96]	; 81e4 <phyAlloc_alloc+0xac>
    8180:	e5934000 	ldr	r4, [r3]
    8184:	e59f3058 	ldr	r3, [pc, #88]	; 81e4 <phyAlloc_alloc+0xac>
    8188:	e5932000 	ldr	r2, [r3]
    818c:	e59d3004 	ldr	r3, [sp, #4]
    8190:	e2833003 	add	r3, r3, #3
    8194:	e3c33003 	bic	r3, r3, #3
    8198:	e0822003 	add	r2, r2, r3
    819c:	e59f3040 	ldr	r3, [pc, #64]	; 81e4 <phyAlloc_alloc+0xac>
    81a0:	e5832000 	str	r2, [r3]
    81a4:	e59f3038 	ldr	r3, [pc, #56]	; 81e4 <phyAlloc_alloc+0xac>
    81a8:	e5932000 	ldr	r2, [r3]
    81ac:	e59f3034 	ldr	r3, [pc, #52]	; 81e8 <phyAlloc_alloc+0xb0>
    81b0:	e5933000 	ldr	r3, [r3]
    81b4:	e1520003 	cmp	r2, r3
    81b8:	9a000003 	bls	81cc <phyAlloc_alloc+0x94>
    81bc:	e3a03000 	mov	r3, #0
    81c0:	ea000002 	b	81d0 <phyAlloc_alloc+0x98>
    81c4:	e5943000 	ldr	r3, [r4]
    81c8:	e5853000 	str	r3, [r5]
    81cc:	e1a03004 	mov	r3, r4
    81d0:	e1a00003 	mov	r0, r3
    81d4:	e28dd008 	add	sp, sp, #8
    81d8:	e8bd0030 	pop	{r4, r5}
    81dc:	e12fff1e 	bx	lr
    81e0:	00008ecc 	andeq	r8, r0, ip, asr #29
    81e4:	00008ed0 	ldrdeq	r8, [r0], -r0
    81e8:	00008ed4 	ldrdeq	r8, [r0], -r4

000081ec <phyAlloc_free>:
    81ec:	e52d4004 	push	{r4}		; (str r4, [sp, #-4]!)
    81f0:	e24dd00c 	sub	sp, sp, #12
    81f4:	e58d0004 	str	r0, [sp, #4]
    81f8:	e58d1000 	str	r1, [sp]
    81fc:	e59d4004 	ldr	r4, [sp, #4]
    8200:	e59d3000 	ldr	r3, [sp]
    8204:	e2833003 	add	r3, r3, #3
    8208:	e3c33003 	bic	r3, r3, #3
    820c:	e5843004 	str	r3, [r4, #4]
    8210:	e59f3018 	ldr	r3, [pc, #24]	; 8230 <phyAlloc_free+0x44>
    8214:	e5933000 	ldr	r3, [r3]
    8218:	e5843000 	str	r3, [r4]
    821c:	e59f300c 	ldr	r3, [pc, #12]	; 8230 <phyAlloc_free+0x44>
    8220:	e5834000 	str	r4, [r3]
    8224:	e28dd00c 	add	sp, sp, #12
    8228:	e49d4004 	pop	{r4}		; (ldr r4, [sp], #4)
    822c:	e12fff1e 	bx	lr
    8230:	00008ecc 	andeq	r8, r0, ip, asr #29

00008234 <phyAlloc_init>:
    8234:	e24dd008 	sub	sp, sp, #8
    8238:	e58d0004 	str	r0, [sp, #4]
    823c:	e58d1000 	str	r1, [sp]
    8240:	e59f3020 	ldr	r3, [pc, #32]	; 8268 <phyAlloc_init+0x34>
    8244:	e59d2004 	ldr	r2, [sp, #4]
    8248:	e5832000 	str	r2, [r3]
    824c:	e59d2004 	ldr	r2, [sp, #4]
    8250:	e59d3000 	ldr	r3, [sp]
    8254:	e0822003 	add	r2, r2, r3
    8258:	e59f300c 	ldr	r3, [pc, #12]	; 826c <phyAlloc_init+0x38>
    825c:	e5832000 	str	r2, [r3]
    8260:	e28dd008 	add	sp, sp, #8
    8264:	e12fff1e 	bx	lr
    8268:	00008ed0 	ldrdeq	r8, [r0], -r0
    826c:	00008ed4 	ldrdeq	r8, [r0], -r4

00008270 <set_tick_and_enable_timer>:
    8270:	e52de004 	push	{lr}		; (str lr, [sp, #-4]!)
    8274:	e24dd00c 	sub	sp, sp, #12
    8278:	e59f0030 	ldr	r0, [pc, #48]	; 82b0 <set_tick_and_enable_timer+0x40>
    827c:	ebffff8b 	bl	80b0 <GET32>
    8280:	e58d0004 	str	r0, [sp, #4]
    8284:	e59d3004 	ldr	r3, [sp, #4]
    8288:	e2833702 	add	r3, r3, #524288	; 0x80000
    828c:	e58d3004 	str	r3, [sp, #4]
    8290:	e59f001c 	ldr	r0, [pc, #28]	; 82b4 <set_tick_and_enable_timer+0x44>
    8294:	e59d1004 	ldr	r1, [sp, #4]
    8298:	ebffff7e 	bl	8098 <PUT32>
    829c:	e59f0014 	ldr	r0, [pc, #20]	; 82b8 <set_tick_and_enable_timer+0x48>
    82a0:	e3a01002 	mov	r1, #2
    82a4:	ebffff7b 	bl	8098 <PUT32>
    82a8:	e28dd00c 	add	sp, sp, #12
    82ac:	e49df004 	pop	{pc}		; (ldr pc, [sp], #4)
    82b0:	20003004 	andcs	r3, r0, r4
    82b4:	20003010 	andcs	r3, r0, r0, lsl r0
    82b8:	20003000 	andcs	r3, r0, r0

000082bc <led_off>:
    82bc:	e92d4008 	push	{r3, lr}
    82c0:	e59f0008 	ldr	r0, [pc, #8]	; 82d0 <led_off+0x14>
    82c4:	e3a01801 	mov	r1, #65536	; 0x10000
    82c8:	ebffff72 	bl	8098 <PUT32>
    82cc:	e8bd8008 	pop	{r3, pc}
    82d0:	2020001c 	eorcs	r0, r0, ip, lsl r0

000082d4 <led_on>:
    82d4:	e92d4008 	push	{r3, lr}
    82d8:	e59f0008 	ldr	r0, [pc, #8]	; 82e8 <led_on+0x14>
    82dc:	e3a01801 	mov	r1, #65536	; 0x10000
    82e0:	ebffff6c 	bl	8098 <PUT32>
    82e4:	e8bd8008 	pop	{r3, pc}
    82e8:	20200028 	eorcs	r0, r0, r8, lsr #32

000082ec <init_hw>:
    82ec:	e52de004 	push	{lr}		; (str lr, [sp, #-4]!)
    82f0:	e24dd00c 	sub	sp, sp, #12
    82f4:	e59f0098 	ldr	r0, [pc, #152]	; 8394 <init_hw+0xa8>
    82f8:	ebffff6c 	bl	80b0 <GET32>
    82fc:	e58d0004 	str	r0, [sp, #4]
    8300:	e59d3004 	ldr	r3, [sp, #4]
    8304:	e3c33707 	bic	r3, r3, #1835008	; 0x1c0000
    8308:	e58d3004 	str	r3, [sp, #4]
    830c:	e59d3004 	ldr	r3, [sp, #4]
    8310:	e3833701 	orr	r3, r3, #262144	; 0x40000
    8314:	e58d3004 	str	r3, [sp, #4]
    8318:	e59f0074 	ldr	r0, [pc, #116]	; 8394 <init_hw+0xa8>
    831c:	e59d1004 	ldr	r1, [sp, #4]
    8320:	ebffff5c 	bl	8098 <PUT32>
    8324:	e59f006c 	ldr	r0, [pc, #108]	; 8398 <init_hw+0xac>
    8328:	e3a01801 	mov	r1, #65536	; 0x10000
    832c:	ebffff59 	bl	8098 <PUT32>
    8330:	e59f0064 	ldr	r0, [pc, #100]	; 839c <init_hw+0xb0>
    8334:	ebffff5d 	bl	80b0 <GET32>
    8338:	e58d0000 	str	r0, [sp]
    833c:	e59d3000 	ldr	r3, [sp]
    8340:	e2833702 	add	r3, r3, #524288	; 0x80000
    8344:	e58d3000 	str	r3, [sp]
    8348:	e59f0050 	ldr	r0, [pc, #80]	; 83a0 <init_hw+0xb4>
    834c:	e59d1000 	ldr	r1, [sp]
    8350:	ebffff50 	bl	8098 <PUT32>
    8354:	e59f0048 	ldr	r0, [pc, #72]	; 83a4 <init_hw+0xb8>
    8358:	e3a01002 	mov	r1, #2
    835c:	ebffff4d 	bl	8098 <PUT32>
    8360:	e59f0040 	ldr	r0, [pc, #64]	; 83a8 <init_hw+0xbc>
    8364:	e3a01002 	mov	r1, #2
    8368:	ebffff4a 	bl	8098 <PUT32>
    836c:	e52d0004 	push	{r0}		; (str r0, [sp, #-4]!)
    8370:	e10f0000 	mrs	r0, CPSR
    8374:	e3800080 	orr	r0, r0, #128	; 0x80
    8378:	e121f000 	msr	CPSR_c, r0
    837c:	e49d0004 	pop	{r0}		; (ldr r0, [sp], #4)
    8380:	e3a00805 	mov	r0, #327680	; 0x50000
    8384:	e3a01a32 	mov	r1, #204800	; 0x32000
    8388:	ebffffa9 	bl	8234 <phyAlloc_init>
    838c:	e28dd00c 	add	sp, sp, #12
    8390:	e49df004 	pop	{pc}		; (ldr pc, [sp], #4)
    8394:	20200004 	eorcs	r0, r0, r4
    8398:	2020001c 	eorcs	r0, r0, ip, lsl r0
    839c:	20003004 	andcs	r3, r0, r4
    83a0:	20003010 	andcs	r3, r0, r0, lsl r0
    83a4:	20003000 	andcs	r3, r0, r0
    83a8:	2000b210 	andcs	fp, r0, r0, lsl r2

000083ac <init_ctx>:
    83ac:	e52de004 	push	{lr}		; (str lr, [sp, #-4]!)
    83b0:	e24dd014 	sub	sp, sp, #20
    83b4:	e58d000c 	str	r0, [sp, #12]
    83b8:	e58d1008 	str	r1, [sp, #8]
    83bc:	e58d2004 	str	r2, [sp, #4]
    83c0:	e59d0004 	ldr	r0, [sp, #4]
    83c4:	ebffff5b 	bl	8138 <phyAlloc_alloc>
    83c8:	e1a02000 	mov	r2, r0
    83cc:	e59d300c 	ldr	r3, [sp, #12]
    83d0:	e5832008 	str	r2, [r3, #8]
    83d4:	e59d300c 	ldr	r3, [sp, #12]
    83d8:	e5933008 	ldr	r3, [r3, #8]
    83dc:	e2833e7f 	add	r3, r3, #2032	; 0x7f0
    83e0:	e283300c 	add	r3, r3, #12
    83e4:	e59d200c 	ldr	r2, [sp, #12]
    83e8:	e5823000 	str	r3, [r2]
    83ec:	e59d300c 	ldr	r3, [sp, #12]
    83f0:	e59d2008 	ldr	r2, [sp, #8]
    83f4:	e5832004 	str	r2, [r3, #4]
    83f8:	e28dd014 	add	sp, sp, #20
    83fc:	e49df004 	pop	{pc}		; (ldr pc, [sp], #4)

00008400 <init_pcb>:
    8400:	e52de004 	push	{lr}		; (str lr, [sp, #-4]!)
    8404:	e24dd01c 	sub	sp, sp, #28
    8408:	e58d000c 	str	r0, [sp, #12]
    840c:	e58d1008 	str	r1, [sp, #8]
    8410:	e58d2004 	str	r2, [sp, #4]
    8414:	e58d3000 	str	r3, [sp]
    8418:	e59d300c 	ldr	r3, [sp, #12]
    841c:	e59d2008 	ldr	r2, [sp, #8]
    8420:	e583200c 	str	r2, [r3, #12]
    8424:	e59d300c 	ldr	r3, [sp, #12]
    8428:	e59d2000 	ldr	r2, [sp]
    842c:	e5832004 	str	r2, [r3, #4]
    8430:	e59d300c 	ldr	r3, [sp, #12]
    8434:	e3a02000 	mov	r2, #0
    8438:	e5832008 	str	r2, [r3, #8]
    843c:	e3a0000c 	mov	r0, #12
    8440:	ebffff3c 	bl	8138 <phyAlloc_alloc>
    8444:	e58d0014 	str	r0, [sp, #20]
    8448:	e59d0014 	ldr	r0, [sp, #20]
    844c:	e59d1008 	ldr	r1, [sp, #8]
    8450:	e59d2004 	ldr	r2, [sp, #4]
    8454:	ebffffd4 	bl	83ac <init_ctx>
    8458:	e59d300c 	ldr	r3, [sp, #12]
    845c:	e59d2014 	ldr	r2, [sp, #20]
    8460:	e5832010 	str	r2, [r3, #16]
    8464:	e59d300c 	ldr	r3, [sp, #12]
    8468:	e3a02000 	mov	r2, #0
    846c:	e5832014 	str	r2, [r3, #20]
    8470:	e28dd01c 	add	sp, sp, #28
    8474:	e49df004 	pop	{pc}		; (ldr pc, [sp], #4)

00008478 <create_process>:
    8478:	e52de004 	push	{lr}		; (str lr, [sp, #-4]!)
    847c:	e24dd01c 	sub	sp, sp, #28
    8480:	e58d000c 	str	r0, [sp, #12]
    8484:	e58d1008 	str	r1, [sp, #8]
    8488:	e58d2004 	str	r2, [sp, #4]
    848c:	e3a0001c 	mov	r0, #28
    8490:	ebffff28 	bl	8138 <phyAlloc_alloc>
    8494:	e58d0014 	str	r0, [sp, #20]
    8498:	e59d0014 	ldr	r0, [sp, #20]
    849c:	e59d100c 	ldr	r1, [sp, #12]
    84a0:	e59d2004 	ldr	r2, [sp, #4]
    84a4:	e59d3008 	ldr	r3, [sp, #8]
    84a8:	ebffffd4 	bl	8400 <init_pcb>
    84ac:	e59f30a8 	ldr	r3, [pc, #168]	; 855c <create_process+0xe4>
    84b0:	e5933000 	ldr	r3, [r3]
    84b4:	e5933014 	ldr	r3, [r3, #20]
    84b8:	e3530000 	cmp	r3, #0
    84bc:	0a000018 	beq	8524 <create_process+0xac>
    84c0:	e59f3094 	ldr	r3, [pc, #148]	; 855c <create_process+0xe4>
    84c4:	e5933000 	ldr	r3, [r3]
    84c8:	e5933014 	ldr	r3, [r3, #20]
    84cc:	e3530001 	cmp	r3, #1
    84d0:	0a000013 	beq	8524 <create_process+0xac>
    84d4:	e59f3080 	ldr	r3, [pc, #128]	; 855c <create_process+0xe4>
    84d8:	e5933000 	ldr	r3, [r3]
    84dc:	e5933014 	ldr	r3, [r3, #20]
    84e0:	e3530003 	cmp	r3, #3
    84e4:	0a00000e 	beq	8524 <create_process+0xac>
    84e8:	e59f306c 	ldr	r3, [pc, #108]	; 855c <create_process+0xe4>
    84ec:	e5933000 	ldr	r3, [r3]
    84f0:	e5933014 	ldr	r3, [r3, #20]
    84f4:	e3530002 	cmp	r3, #2
    84f8:	0a000009 	beq	8524 <create_process+0xac>
    84fc:	e59f3058 	ldr	r3, [pc, #88]	; 855c <create_process+0xe4>
    8500:	e59d2014 	ldr	r2, [sp, #20]
    8504:	e5832000 	str	r2, [r3]
    8508:	e59f304c 	ldr	r3, [pc, #76]	; 855c <create_process+0xe4>
    850c:	e59d2014 	ldr	r2, [sp, #20]
    8510:	e5832000 	str	r2, [r3]
    8514:	e59f3040 	ldr	r3, [pc, #64]	; 855c <create_process+0xe4>
    8518:	e59d2014 	ldr	r2, [sp, #20]
    851c:	e5832004 	str	r2, [r3, #4]
    8520:	ea00000b 	b	8554 <create_process+0xdc>
    8524:	e59f3030 	ldr	r3, [pc, #48]	; 855c <create_process+0xe4>
    8528:	e5933004 	ldr	r3, [r3, #4]
    852c:	e59d2014 	ldr	r2, [sp, #20]
    8530:	e5832000 	str	r2, [r3]
    8534:	e59f3020 	ldr	r3, [pc, #32]	; 855c <create_process+0xe4>
    8538:	e59d2014 	ldr	r2, [sp, #20]
    853c:	e5832004 	str	r2, [r3, #4]
    8540:	e59f3014 	ldr	r3, [pc, #20]	; 855c <create_process+0xe4>
    8544:	e5933004 	ldr	r3, [r3, #4]
    8548:	e59f200c 	ldr	r2, [pc, #12]	; 855c <create_process+0xe4>
    854c:	e5922000 	ldr	r2, [r2]
    8550:	e5832000 	str	r2, [r3]
    8554:	e28dd01c 	add	sp, sp, #28
    8558:	e49df004 	pop	{pc}		; (ldr pc, [sp], #4)
    855c:	00008ef0 	strdeq	r8, [r0], -r0

00008560 <start_current_process>:
    8560:	e92d4008 	push	{r3, lr}
    8564:	e52d0004 	push	{r0}		; (str r0, [sp, #-4]!)
    8568:	e10f0000 	mrs	r0, CPSR
    856c:	e3c00080 	bic	r0, r0, #128	; 0x80
    8570:	e121f000 	msr	CPSR_c, r0
    8574:	e49d0004 	pop	{r0}		; (ldr r0, [sp], #4)
    8578:	ebffff3c 	bl	8270 <set_tick_and_enable_timer>
    857c:	e59f3040 	ldr	r3, [pc, #64]	; 85c4 <start_current_process+0x64>
    8580:	e5933000 	ldr	r3, [r3]
    8584:	e3a02002 	mov	r2, #2
    8588:	e5832014 	str	r2, [r3, #20]
    858c:	e59f3030 	ldr	r3, [pc, #48]	; 85c4 <start_current_process+0x64>
    8590:	e5933000 	ldr	r3, [r3]
    8594:	e593300c 	ldr	r3, [r3, #12]
    8598:	e12fff33 	blx	r3
    859c:	e52d0004 	push	{r0}		; (str r0, [sp, #-4]!)
    85a0:	e10f0000 	mrs	r0, CPSR
    85a4:	e3800080 	orr	r0, r0, #128	; 0x80
    85a8:	e121f000 	msr	CPSR_c, r0
    85ac:	e49d0004 	pop	{r0}		; (ldr r0, [sp], #4)
    85b0:	e59f300c 	ldr	r3, [pc, #12]	; 85c4 <start_current_process+0x64>
    85b4:	e5933000 	ldr	r3, [r3]
    85b8:	e3a02003 	mov	r2, #3
    85bc:	e5832014 	str	r2, [r3, #20]
    85c0:	e8bd8008 	pop	{r3, pc}
    85c4:	00008ef8 	strdeq	r8, [r0], -r8	; <UNPREDICTABLE>

000085c8 <terminate_process>:
    85c8:	e52de004 	push	{lr}		; (str lr, [sp, #-4]!)
    85cc:	e24dd00c 	sub	sp, sp, #12
    85d0:	e59f30dc 	ldr	r3, [pc, #220]	; 86b4 <terminate_process+0xec>
    85d4:	e5933000 	ldr	r3, [r3]
    85d8:	e58d3004 	str	r3, [sp, #4]
    85dc:	ea00002c 	b	8694 <terminate_process+0xcc>
    85e0:	ea000002 	b	85f0 <terminate_process+0x28>
    85e4:	e59d3004 	ldr	r3, [sp, #4]
    85e8:	e5933000 	ldr	r3, [r3]
    85ec:	e58d3004 	str	r3, [sp, #4]
    85f0:	e59d3004 	ldr	r3, [sp, #4]
    85f4:	e5933000 	ldr	r3, [r3]
    85f8:	e5933014 	ldr	r3, [r3, #20]
    85fc:	e3530003 	cmp	r3, #3
    8600:	0a000005 	beq	861c <terminate_process+0x54>
    8604:	e59d3004 	ldr	r3, [sp, #4]
    8608:	e5932000 	ldr	r2, [r3]
    860c:	e59f30a0 	ldr	r3, [pc, #160]	; 86b4 <terminate_process+0xec>
    8610:	e5933000 	ldr	r3, [r3]
    8614:	e1520003 	cmp	r2, r3
    8618:	1afffff1 	bne	85e4 <terminate_process+0x1c>
    861c:	e59d3004 	ldr	r3, [sp, #4]
    8620:	e5933000 	ldr	r3, [r3]
    8624:	e5933014 	ldr	r3, [r3, #20]
    8628:	e3530003 	cmp	r3, #3
    862c:	1a000018 	bne	8694 <terminate_process+0xcc>
    8630:	e59d3004 	ldr	r3, [sp, #4]
    8634:	e5933000 	ldr	r3, [r3]
    8638:	e5933000 	ldr	r3, [r3]
    863c:	e58d3000 	str	r3, [sp]
    8640:	e59d3004 	ldr	r3, [sp, #4]
    8644:	e5933000 	ldr	r3, [r3]
    8648:	e5933010 	ldr	r3, [r3, #16]
    864c:	e5933008 	ldr	r3, [r3, #8]
    8650:	e1a00003 	mov	r0, r3
    8654:	e3a01b02 	mov	r1, #2048	; 0x800
    8658:	ebfffee3 	bl	81ec <phyAlloc_free>
    865c:	e59d3004 	ldr	r3, [sp, #4]
    8660:	e5933000 	ldr	r3, [r3]
    8664:	e5933010 	ldr	r3, [r3, #16]
    8668:	e1a00003 	mov	r0, r3
    866c:	e3a0100c 	mov	r1, #12
    8670:	ebfffedd 	bl	81ec <phyAlloc_free>
    8674:	e59d3004 	ldr	r3, [sp, #4]
    8678:	e5933000 	ldr	r3, [r3]
    867c:	e1a00003 	mov	r0, r3
    8680:	e3a0101c 	mov	r1, #28
    8684:	ebfffed8 	bl	81ec <phyAlloc_free>
    8688:	e59d3004 	ldr	r3, [sp, #4]
    868c:	e59d2000 	ldr	r2, [sp]
    8690:	e5832000 	str	r2, [r3]
    8694:	e59d3004 	ldr	r3, [sp, #4]
    8698:	e5932000 	ldr	r2, [r3]
    869c:	e59f3010 	ldr	r3, [pc, #16]	; 86b4 <terminate_process+0xec>
    86a0:	e5933000 	ldr	r3, [r3]
    86a4:	e1520003 	cmp	r2, r3
    86a8:	1affffcc 	bne	85e0 <terminate_process+0x18>
    86ac:	e28dd00c 	add	sp, sp, #12
    86b0:	e49df004 	pop	{pc}		; (ldr pc, [sp], #4)
    86b4:	00008ef0 	strdeq	r8, [r0], -r0

000086b8 <elect>:
    86b8:	ea000004 	b	86d0 <elect+0x18>
    86bc:	e59f3024 	ldr	r3, [pc, #36]	; 86e8 <elect+0x30>
    86c0:	e5933000 	ldr	r3, [r3]
    86c4:	e5932000 	ldr	r2, [r3]
    86c8:	e59f3018 	ldr	r3, [pc, #24]	; 86e8 <elect+0x30>
    86cc:	e5832000 	str	r2, [r3]
    86d0:	e59f3010 	ldr	r3, [pc, #16]	; 86e8 <elect+0x30>
    86d4:	e5933000 	ldr	r3, [r3]
    86d8:	e5933008 	ldr	r3, [r3, #8]
    86dc:	e3530000 	cmp	r3, #0
    86e0:	1afffff5 	bne	86bc <elect+0x4>
    86e4:	e12fff1e 	bx	lr
    86e8:	00008ef8 	strdeq	r8, [r0], -r8	; <UNPREDICTABLE>

000086ec <start_sched>:
    86ec:	e92d4008 	push	{r3, lr}
    86f0:	e52d0004 	push	{r0}		; (str r0, [sp, #-4]!)
    86f4:	e10f0000 	mrs	r0, CPSR
    86f8:	e3c00080 	bic	r0, r0, #128	; 0x80
    86fc:	e121f000 	msr	CPSR_c, r0
    8700:	e49d0004 	pop	{r0}		; (ldr r0, [sp], #4)
    8704:	ebfffed9 	bl	8270 <set_tick_and_enable_timer>
    8708:	e59f300c 	ldr	r3, [pc, #12]	; 871c <start_sched+0x30>
    870c:	e5932000 	ldr	r2, [r3]
    8710:	e59f3008 	ldr	r3, [pc, #8]	; 8720 <start_sched+0x34>
    8714:	e5832000 	str	r2, [r3]
    8718:	e8bd8008 	pop	{r3, pc}
    871c:	00008ef0 	strdeq	r8, [r0], -r0
    8720:	00008ef8 	strdeq	r8, [r0], -r8	; <UNPREDICTABLE>

00008724 <ctx_switch_from_irq>:
    8724:	e52de004 	push	{lr}		; (str lr, [sp, #-4]!)
    8728:	e24dd00c 	sub	sp, sp, #12
    872c:	e52d0004 	push	{r0}		; (str r0, [sp, #-4]!)
    8730:	e10f0000 	mrs	r0, CPSR
    8734:	e3800080 	orr	r0, r0, #128	; 0x80
    8738:	e121f000 	msr	CPSR_c, r0
    873c:	e49d0004 	pop	{r0}		; (ldr r0, [sp], #4)
    8740:	e24ee004 	sub	lr, lr, #4
    8744:	f96d0513 	srsdb	sp!, #19
    8748:	f1020013 	cps	#19
    874c:	e59f314c 	ldr	r3, [pc, #332]	; 88a0 <ctx_switch_from_irq+0x17c>
    8750:	e5933000 	ldr	r3, [r3]
    8754:	e3530000 	cmp	r3, #0
    8758:	0a000013 	beq	87ac <ctx_switch_from_irq+0x88>
    875c:	e59f313c 	ldr	r3, [pc, #316]	; 88a0 <ctx_switch_from_irq+0x17c>
    8760:	e5933000 	ldr	r3, [r3]
    8764:	e5933014 	ldr	r3, [r3, #20]
    8768:	e3530000 	cmp	r3, #0
    876c:	0a00000e 	beq	87ac <ctx_switch_from_irq+0x88>
    8770:	e92d1fff 	push	{r0, r1, r2, r3, r4, r5, r6, r7, r8, r9, sl, fp, ip}
    8774:	e59f3124 	ldr	r3, [pc, #292]	; 88a0 <ctx_switch_from_irq+0x17c>
    8778:	e5933000 	ldr	r3, [r3]
    877c:	e5933010 	ldr	r3, [r3, #16]
    8780:	e1a0200d 	mov	r2, sp
    8784:	e5832000 	str	r2, [r3]
    8788:	e59f3110 	ldr	r3, [pc, #272]	; 88a0 <ctx_switch_from_irq+0x17c>
    878c:	e5933000 	ldr	r3, [r3]
    8790:	e5933010 	ldr	r3, [r3, #16]
    8794:	e1a0200e 	mov	r2, lr
    8798:	e5832004 	str	r2, [r3, #4]
    879c:	e59f30fc 	ldr	r3, [pc, #252]	; 88a0 <ctx_switch_from_irq+0x17c>
    87a0:	e5933000 	ldr	r3, [r3]
    87a4:	e3a02001 	mov	r2, #1
    87a8:	e5832014 	str	r2, [r3, #20]
    87ac:	ebffffc1 	bl	86b8 <elect>
    87b0:	e59f30e8 	ldr	r3, [pc, #232]	; 88a0 <ctx_switch_from_irq+0x17c>
    87b4:	e5933000 	ldr	r3, [r3]
    87b8:	e5933014 	ldr	r3, [r3, #20]
    87bc:	e3530003 	cmp	r3, #3
    87c0:	1a000011 	bne	880c <ctx_switch_from_irq+0xe8>
    87c4:	e59f30d4 	ldr	r3, [pc, #212]	; 88a0 <ctx_switch_from_irq+0x17c>
    87c8:	e5933000 	ldr	r3, [r3]
    87cc:	e58d3004 	str	r3, [sp, #4]
    87d0:	ea000002 	b	87e0 <ctx_switch_from_irq+0xbc>
    87d4:	e59d3004 	ldr	r3, [sp, #4]
    87d8:	e5933000 	ldr	r3, [r3]
    87dc:	e58d3004 	str	r3, [sp, #4]
    87e0:	e59d3004 	ldr	r3, [sp, #4]
    87e4:	e5933000 	ldr	r3, [r3]
    87e8:	e5933014 	ldr	r3, [r3, #20]
    87ec:	e3530003 	cmp	r3, #3
    87f0:	0afffff7 	beq	87d4 <ctx_switch_from_irq+0xb0>
    87f4:	e59d3004 	ldr	r3, [sp, #4]
    87f8:	e5932000 	ldr	r2, [r3]
    87fc:	e59f309c 	ldr	r3, [pc, #156]	; 88a0 <ctx_switch_from_irq+0x17c>
    8800:	e5832000 	str	r2, [r3]
    8804:	ebffff6f 	bl	85c8 <terminate_process>
    8808:	ea000002 	b	8818 <ctx_switch_from_irq+0xf4>
    880c:	ea000001 	b	8818 <ctx_switch_from_irq+0xf4>
    8810:	ebffff52 	bl	8560 <start_current_process>
    8814:	ebffffa7 	bl	86b8 <elect>
    8818:	e59f3080 	ldr	r3, [pc, #128]	; 88a0 <ctx_switch_from_irq+0x17c>
    881c:	e5933000 	ldr	r3, [r3]
    8820:	e5933014 	ldr	r3, [r3, #20]
    8824:	e3530000 	cmp	r3, #0
    8828:	0afffff8 	beq	8810 <ctx_switch_from_irq+0xec>
    882c:	e59f306c 	ldr	r3, [pc, #108]	; 88a0 <ctx_switch_from_irq+0x17c>
    8830:	e5933000 	ldr	r3, [r3]
    8834:	e5933014 	ldr	r3, [r3, #20]
    8838:	e3530001 	cmp	r3, #1
    883c:	1a000003 	bne	8850 <ctx_switch_from_irq+0x12c>
    8840:	e59f3058 	ldr	r3, [pc, #88]	; 88a0 <ctx_switch_from_irq+0x17c>
    8844:	e5933000 	ldr	r3, [r3]
    8848:	e3a02002 	mov	r2, #2
    884c:	e5832014 	str	r2, [r3, #20]
    8850:	e59f3048 	ldr	r3, [pc, #72]	; 88a0 <ctx_switch_from_irq+0x17c>
    8854:	e5933000 	ldr	r3, [r3]
    8858:	e5933010 	ldr	r3, [r3, #16]
    885c:	e5933000 	ldr	r3, [r3]
    8860:	e1a0d003 	mov	sp, r3
    8864:	e59f3034 	ldr	r3, [pc, #52]	; 88a0 <ctx_switch_from_irq+0x17c>
    8868:	e5933000 	ldr	r3, [r3]
    886c:	e5933010 	ldr	r3, [r3, #16]
    8870:	e5933004 	ldr	r3, [r3, #4]
    8874:	e1a0e003 	mov	lr, r3
    8878:	e8bd1fff 	pop	{r0, r1, r2, r3, r4, r5, r6, r7, r8, r9, sl, fp, ip}
    887c:	e52d0004 	push	{r0}		; (str r0, [sp, #-4]!)
    8880:	e10f0000 	mrs	r0, CPSR
    8884:	e3c00080 	bic	r0, r0, #128	; 0x80
    8888:	e121f000 	msr	CPSR_c, r0
    888c:	e49d0004 	pop	{r0}		; (ldr r0, [sp], #4)
    8890:	ebfffe76 	bl	8270 <set_tick_and_enable_timer>
    8894:	f8bd0a00 	rfeia	sp!
    8898:	e28dd00c 	add	sp, sp, #12
    889c:	e49df004 	pop	{pc}		; (ldr pc, [sp], #4)
    88a0:	00008ef8 	strdeq	r8, [r0], -r8	; <UNPREDICTABLE>

000088a4 <ctx_switch>:
    88a4:	e59f3108 	ldr	r3, [pc, #264]	; 89b4 <ctx_switch+0x110>
    88a8:	e5933000 	ldr	r3, [r3]
    88ac:	e5933014 	ldr	r3, [r3, #20]
    88b0:	e3530000 	cmp	r3, #0
    88b4:	1a000001 	bne	88c0 <ctx_switch+0x1c>
    88b8:	ebffff28 	bl	8560 <start_current_process>
    88bc:	ea000021 	b	8948 <ctx_switch+0xa4>
    88c0:	e59f30ec 	ldr	r3, [pc, #236]	; 89b4 <ctx_switch+0x110>
    88c4:	e5933000 	ldr	r3, [r3]
    88c8:	e5933014 	ldr	r3, [r3, #20]
    88cc:	e3530003 	cmp	r3, #3
    88d0:	1a00000c 	bne	8908 <ctx_switch+0x64>
    88d4:	e59f30d8 	ldr	r3, [pc, #216]	; 89b4 <ctx_switch+0x110>
    88d8:	e5934000 	ldr	r4, [r3]
    88dc:	ea000000 	b	88e4 <ctx_switch+0x40>
    88e0:	e5944000 	ldr	r4, [r4]
    88e4:	e5943000 	ldr	r3, [r4]
    88e8:	e5933014 	ldr	r3, [r3, #20]
    88ec:	e3530003 	cmp	r3, #3
    88f0:	0afffffa 	beq	88e0 <ctx_switch+0x3c>
    88f4:	e5942000 	ldr	r2, [r4]
    88f8:	e59f30b4 	ldr	r3, [pc, #180]	; 89b4 <ctx_switch+0x110>
    88fc:	e5832000 	str	r2, [r3]
    8900:	ebffff30 	bl	85c8 <terminate_process>
    8904:	ea00000f 	b	8948 <ctx_switch+0xa4>
    8908:	e92d1fff 	push	{r0, r1, r2, r3, r4, r5, r6, r7, r8, r9, sl, fp, ip}
    890c:	e59f30a0 	ldr	r3, [pc, #160]	; 89b4 <ctx_switch+0x110>
    8910:	e5933000 	ldr	r3, [r3]
    8914:	e5933010 	ldr	r3, [r3, #16]
    8918:	e1a0200d 	mov	r2, sp
    891c:	e5832000 	str	r2, [r3]
    8920:	e59f308c 	ldr	r3, [pc, #140]	; 89b4 <ctx_switch+0x110>
    8924:	e5933000 	ldr	r3, [r3]
    8928:	e5933010 	ldr	r3, [r3, #16]
    892c:	e1a0200e 	mov	r2, lr
    8930:	e5832004 	str	r2, [r3, #4]
    8934:	e59f3078 	ldr	r3, [pc, #120]	; 89b4 <ctx_switch+0x110>
    8938:	e5933000 	ldr	r3, [r3]
    893c:	e3a02001 	mov	r2, #1
    8940:	e5832014 	str	r2, [r3, #20]
    8944:	ebffff5b 	bl	86b8 <elect>
    8948:	e59f3064 	ldr	r3, [pc, #100]	; 89b4 <ctx_switch+0x110>
    894c:	e5933000 	ldr	r3, [r3]
    8950:	e5933014 	ldr	r3, [r3, #20]
    8954:	e3530000 	cmp	r3, #0
    8958:	1a000000 	bne	8960 <ctx_switch+0xbc>
    895c:	ebfffeff 	bl	8560 <start_current_process>
    8960:	e59f304c 	ldr	r3, [pc, #76]	; 89b4 <ctx_switch+0x110>
    8964:	e5933000 	ldr	r3, [r3]
    8968:	e5933014 	ldr	r3, [r3, #20]
    896c:	e3530001 	cmp	r3, #1
    8970:	1a00000f 	bne	89b4 <ctx_switch+0x110>
    8974:	e59f3038 	ldr	r3, [pc, #56]	; 89b4 <ctx_switch+0x110>
    8978:	e5933000 	ldr	r3, [r3]
    897c:	e3a02002 	mov	r2, #2
    8980:	e5832014 	str	r2, [r3, #20]
    8984:	e59f3028 	ldr	r3, [pc, #40]	; 89b4 <ctx_switch+0x110>
    8988:	e5933000 	ldr	r3, [r3]
    898c:	e5933010 	ldr	r3, [r3, #16]
    8990:	e5933000 	ldr	r3, [r3]
    8994:	e1a0d003 	mov	sp, r3
    8998:	e59f3014 	ldr	r3, [pc, #20]	; 89b4 <ctx_switch+0x110>
    899c:	e5933000 	ldr	r3, [r3]
    89a0:	e5933010 	ldr	r3, [r3, #16]
    89a4:	e5933004 	ldr	r3, [r3, #4]
    89a8:	e1a0e003 	mov	lr, r3
    89ac:	e8bd1fff 	pop	{r0, r1, r2, r3, r4, r5, r6, r7, r8, r9, sl, fp, ip}
    89b0:	e12fff1e 	bx	lr
    89b4:	00008ef8 	strdeq	r8, [r0], -r8	; <UNPREDICTABLE>

000089b8 <sys_reboot>:
    89b8:	e52de004 	push	{lr}		; (str lr, [sp, #-4]!)
    89bc:	e3a03001 	mov	r3, #1
    89c0:	e1a00003 	mov	r0, r3
    89c4:	ef000000 	svc	0x00000000
    89c8:	e49df004 	pop	{pc}		; (ldr pc, [sp], #4)

000089cc <sys_wait>:
    89cc:	e52de004 	push	{lr}		; (str lr, [sp, #-4]!)
    89d0:	e24dd00c 	sub	sp, sp, #12
    89d4:	e58d0004 	str	r0, [sp, #4]
    89d8:	e3a03001 	mov	r3, #1
    89dc:	e1a00003 	mov	r0, r3
    89e0:	e59d3004 	ldr	r3, [sp, #4]
    89e4:	e1a01003 	mov	r1, r3
    89e8:	ef000000 	svc	0x00000000
    89ec:	e28dd00c 	add	sp, sp, #12
    89f0:	e49df004 	pop	{pc}		; (ldr pc, [sp], #4)

000089f4 <doSysCallReboot>:
    89f4:	e12fff1e 	bx	lr

000089f8 <doSysCallWait>:
    89f8:	e24dd008 	sub	sp, sp, #8
    89fc:	e1a03001 	mov	r3, r1
    8a00:	e58d3004 	str	r3, [sp, #4]
    8a04:	e59f3010 	ldr	r3, [pc, #16]	; 8a1c <doSysCallWait+0x24>
    8a08:	e5933000 	ldr	r3, [r3]
    8a0c:	e59d2004 	ldr	r2, [sp, #4]
    8a10:	e5832008 	str	r2, [r3, #8]
    8a14:	e28dd008 	add	sp, sp, #8
    8a18:	e12fff1e 	bx	lr
    8a1c:	00008ef8 	strdeq	r8, [r0], -r8	; <UNPREDICTABLE>

00008a20 <SWIHandler>:
    8a20:	e52de004 	push	{lr}		; (str lr, [sp, #-4]!)
    8a24:	e24dd00c 	sub	sp, sp, #12
    8a28:	e3a03000 	mov	r3, #0
    8a2c:	e58d3004 	str	r3, [sp, #4]
    8a30:	e1a03000 	mov	r3, r0
    8a34:	e58d3004 	str	r3, [sp, #4]
    8a38:	e59d3004 	ldr	r3, [sp, #4]
    8a3c:	e3530001 	cmp	r3, #1
    8a40:	0a000002 	beq	8a50 <SWIHandler+0x30>
    8a44:	e3530002 	cmp	r3, #2
    8a48:	0a000002 	beq	8a58 <SWIHandler+0x38>
    8a4c:	ea000003 	b	8a60 <SWIHandler+0x40>
    8a50:	ebffffe7 	bl	89f4 <doSysCallReboot>
    8a54:	ea000001 	b	8a60 <SWIHandler+0x40>
    8a58:	ebffffe6 	bl	89f8 <doSysCallWait>
    8a5c:	e1a00000 	nop			; (mov r0, r0)
    8a60:	e28dd00c 	add	sp, sp, #12
    8a64:	e49df004 	pop	{pc}		; (ldr pc, [sp], #4)

00008a68 <init_kern_translation_table>:
    8a68:	e52de004 	push	{lr}		; (str lr, [sp, #-4]!)
    8a6c:	e24dd00c 	sub	sp, sp, #12
    8a70:	e59f30b8 	ldr	r3, [pc, #184]	; 8b30 <init_kern_translation_table+0xc8>
    8a74:	e3a02912 	mov	r2, #294912	; 0x48000
    8a78:	e5832000 	str	r2, [r3]
    8a7c:	e3a03000 	mov	r3, #0
    8a80:	e58d3004 	str	r3, [sp, #4]
    8a84:	ea000008 	b	8aac <init_kern_translation_table+0x44>
    8a88:	e59f30a0 	ldr	r3, [pc, #160]	; 8b30 <init_kern_translation_table+0xc8>
    8a8c:	e5932000 	ldr	r2, [r3]
    8a90:	e59d3004 	ldr	r3, [sp, #4]
    8a94:	e0823003 	add	r3, r2, r3
    8a98:	e3a02000 	mov	r2, #0
    8a9c:	e5c32000 	strb	r2, [r3]
    8aa0:	e59d3004 	ldr	r3, [sp, #4]
    8aa4:	e2833001 	add	r3, r3, #1
    8aa8:	e58d3004 	str	r3, [sp, #4]
    8aac:	e59d3004 	ldr	r3, [sp, #4]
    8ab0:	e3530a02 	cmp	r3, #8192	; 0x2000
    8ab4:	bafffff3 	blt	8a88 <init_kern_translation_table+0x20>
    8ab8:	e59f3074 	ldr	r3, [pc, #116]	; 8b34 <init_kern_translation_table+0xcc>
    8abc:	e3a02805 	mov	r2, #327680	; 0x50000
    8ac0:	e5832000 	str	r2, [r3]
    8ac4:	e3a03000 	mov	r3, #0
    8ac8:	e58d3004 	str	r3, [sp, #4]
    8acc:	ea000008 	b	8af4 <init_kern_translation_table+0x8c>
    8ad0:	e59f305c 	ldr	r3, [pc, #92]	; 8b34 <init_kern_translation_table+0xcc>
    8ad4:	e5932000 	ldr	r2, [r3]
    8ad8:	e59d3004 	ldr	r3, [sp, #4]
    8adc:	e0823003 	add	r3, r2, r3
    8ae0:	e3a02000 	mov	r2, #0
    8ae4:	e5c32000 	strb	r2, [r3]
    8ae8:	e59d3004 	ldr	r3, [sp, #4]
    8aec:	e2833001 	add	r3, r3, #1
    8af0:	e58d3004 	str	r3, [sp, #4]
    8af4:	e59d3004 	ldr	r3, [sp, #4]
    8af8:	e3530601 	cmp	r3, #1048576	; 0x100000
    8afc:	bafffff3 	blt	8ad0 <init_kern_translation_table+0x68>
    8b00:	eb00006b 	bl	8cb4 <new_first_table>
    8b04:	e1a02000 	mov	r2, r0
    8b08:	e59f3028 	ldr	r3, [pc, #40]	; 8b38 <init_kern_translation_table+0xd0>
    8b0c:	e5832000 	str	r2, [r3]
    8b10:	e59f3020 	ldr	r3, [pc, #32]	; 8b38 <init_kern_translation_table+0xd0>
    8b14:	e5933000 	ldr	r3, [r3]
    8b18:	e1a00003 	mov	r0, r3
    8b1c:	eb000006 	bl	8b3c <init_no_translation_pages>
    8b20:	e3a03000 	mov	r3, #0
    8b24:	e1a00003 	mov	r0, r3
    8b28:	e28dd00c 	add	sp, sp, #12
    8b2c:	e49df004 	pop	{pc}		; (ldr pc, [sp], #4)
    8b30:	00008ee0 	andeq	r8, r0, r0, ror #29
    8b34:	00008edc 	ldrdeq	r8, [r0], -ip
    8b38:	00008ee4 	andeq	r8, r0, r4, ror #29

00008b3c <init_no_translation_pages>:
    8b3c:	e52de004 	push	{lr}		; (str lr, [sp, #-4]!)
    8b40:	e24dd024 	sub	sp, sp, #36	; 0x24
    8b44:	e58d0004 	str	r0, [sp, #4]
    8b48:	e3a03000 	mov	r3, #0
    8b4c:	e58d301c 	str	r3, [sp, #28]
    8b50:	ea000023 	b	8be4 <init_no_translation_pages+0xa8>
    8b54:	eb000095 	bl	8db0 <new_second_table>
    8b58:	e58d0010 	str	r0, [sp, #16]
    8b5c:	e59d301c 	ldr	r3, [sp, #28]
    8b60:	e1a03103 	lsl	r3, r3, #2
    8b64:	e59d2004 	ldr	r2, [sp, #4]
    8b68:	e0822003 	add	r2, r2, r3
    8b6c:	e59d3010 	ldr	r3, [sp, #16]
    8b70:	e3c33fff 	bic	r3, r3, #1020	; 0x3fc
    8b74:	e3c33003 	bic	r3, r3, #3
    8b78:	e3833001 	orr	r3, r3, #1
    8b7c:	e5823000 	str	r3, [r2]
    8b80:	e3a03000 	mov	r3, #0
    8b84:	e58d3018 	str	r3, [sp, #24]
    8b88:	ea00000f 	b	8bcc <init_no_translation_pages+0x90>
    8b8c:	e59d3018 	ldr	r3, [sp, #24]
    8b90:	e1a03103 	lsl	r3, r3, #2
    8b94:	e59d2010 	ldr	r2, [sp, #16]
    8b98:	e0823003 	add	r3, r2, r3
    8b9c:	e59d201c 	ldr	r2, [sp, #28]
    8ba0:	e1a01a02 	lsl	r1, r2, #20
    8ba4:	e59d2018 	ldr	r2, [sp, #24]
    8ba8:	e1a02602 	lsl	r2, r2, #12
    8bac:	e0811002 	add	r1, r1, r2
    8bb0:	e59f20f4 	ldr	r2, [pc, #244]	; 8cac <init_no_translation_pages+0x170>
    8bb4:	e5922000 	ldr	r2, [r2]
    8bb8:	e1812002 	orr	r2, r1, r2
    8bbc:	e5832000 	str	r2, [r3]
    8bc0:	e59d3018 	ldr	r3, [sp, #24]
    8bc4:	e2833001 	add	r3, r3, #1
    8bc8:	e58d3018 	str	r3, [sp, #24]
    8bcc:	e59d3018 	ldr	r3, [sp, #24]
    8bd0:	e35300ff 	cmp	r3, #255	; 0xff
    8bd4:	daffffec 	ble	8b8c <init_no_translation_pages+0x50>
    8bd8:	e59d301c 	ldr	r3, [sp, #28]
    8bdc:	e2833001 	add	r3, r3, #1
    8be0:	e58d301c 	str	r3, [sp, #28]
    8be4:	e59d301c 	ldr	r3, [sp, #28]
    8be8:	e3530004 	cmp	r3, #4
    8bec:	daffffd8 	ble	8b54 <init_no_translation_pages+0x18>
    8bf0:	e3a03000 	mov	r3, #0
    8bf4:	e58d301c 	str	r3, [sp, #28]
    8bf8:	ea000026 	b	8c98 <init_no_translation_pages+0x15c>
    8bfc:	eb00006b 	bl	8db0 <new_second_table>
    8c00:	e58d000c 	str	r0, [sp, #12]
    8c04:	e59d301c 	ldr	r3, [sp, #28]
    8c08:	e2833005 	add	r3, r3, #5
    8c0c:	e1a03103 	lsl	r3, r3, #2
    8c10:	e59d2004 	ldr	r2, [sp, #4]
    8c14:	e0822003 	add	r2, r2, r3
    8c18:	e59d300c 	ldr	r3, [sp, #12]
    8c1c:	e3c33fff 	bic	r3, r3, #1020	; 0x3fc
    8c20:	e3c33003 	bic	r3, r3, #3
    8c24:	e3833001 	orr	r3, r3, #1
    8c28:	e5823000 	str	r3, [r2]
    8c2c:	e3a03000 	mov	r3, #0
    8c30:	e58d3014 	str	r3, [sp, #20]
    8c34:	ea000011 	b	8c80 <init_no_translation_pages+0x144>
    8c38:	e59d3014 	ldr	r3, [sp, #20]
    8c3c:	e1a03103 	lsl	r3, r3, #2
    8c40:	e59d200c 	ldr	r2, [sp, #12]
    8c44:	e0823003 	add	r3, r2, r3
    8c48:	e59d201c 	ldr	r2, [sp, #28]
    8c4c:	e1a02a02 	lsl	r2, r2, #20
    8c50:	e1a01002 	mov	r1, r2
    8c54:	e59d2014 	ldr	r2, [sp, #20]
    8c58:	e1a02602 	lsl	r2, r2, #12
    8c5c:	e0812002 	add	r2, r1, r2
    8c60:	e2821202 	add	r1, r2, #536870912	; 0x20000000
    8c64:	e59f2044 	ldr	r2, [pc, #68]	; 8cb0 <init_no_translation_pages+0x174>
    8c68:	e5922000 	ldr	r2, [r2]
    8c6c:	e1812002 	orr	r2, r1, r2
    8c70:	e5832000 	str	r2, [r3]
    8c74:	e59d3014 	ldr	r3, [sp, #20]
    8c78:	e2833001 	add	r3, r3, #1
    8c7c:	e58d3014 	str	r3, [sp, #20]
    8c80:	e59d3014 	ldr	r3, [sp, #20]
    8c84:	e35300ff 	cmp	r3, #255	; 0xff
    8c88:	daffffea 	ble	8c38 <init_no_translation_pages+0xfc>
    8c8c:	e59d301c 	ldr	r3, [sp, #28]
    8c90:	e2833001 	add	r3, r3, #1
    8c94:	e58d301c 	str	r3, [sp, #28]
    8c98:	e59d301c 	ldr	r3, [sp, #28]
    8c9c:	e353000f 	cmp	r3, #15
    8ca0:	daffffd5 	ble	8bfc <init_no_translation_pages+0xc0>
    8ca4:	e28dd024 	add	sp, sp, #36	; 0x24
    8ca8:	e49df004 	pop	{pc}		; (ldr pc, [sp], #4)
    8cac:	00008eec 	andeq	r8, r0, ip, ror #29
    8cb0:	00008ee8 	andeq	r8, r0, r8, ror #29

00008cb4 <new_first_table>:
    8cb4:	e24dd010 	sub	sp, sp, #16
    8cb8:	e3a03000 	mov	r3, #0
    8cbc:	e58d300c 	str	r3, [sp, #12]
    8cc0:	ea000032 	b	8d90 <new_first_table+0xdc>
    8cc4:	e59d300c 	ldr	r3, [sp, #12]
    8cc8:	e58d3008 	str	r3, [sp, #8]
    8ccc:	ea000027 	b	8d70 <new_first_table+0xbc>
    8cd0:	e59f30d4 	ldr	r3, [pc, #212]	; 8dac <new_first_table+0xf8>
    8cd4:	e5932000 	ldr	r2, [r3]
    8cd8:	e59d3008 	ldr	r3, [sp, #8]
    8cdc:	e0823003 	add	r3, r2, r3
    8ce0:	e5d33000 	ldrb	r3, [r3]
    8ce4:	e3530000 	cmp	r3, #0
    8ce8:	0a000003 	beq	8cfc <new_first_table+0x48>
    8cec:	e59d3008 	ldr	r3, [sp, #8]
    8cf0:	e2833001 	add	r3, r3, #1
    8cf4:	e58d300c 	str	r3, [sp, #12]
    8cf8:	ea000021 	b	8d84 <new_first_table+0xd0>
    8cfc:	e59d300c 	ldr	r3, [sp, #12]
    8d00:	e283200f 	add	r2, r3, #15
    8d04:	e59d3008 	ldr	r3, [sp, #8]
    8d08:	e1520003 	cmp	r2, r3
    8d0c:	1a000014 	bne	8d64 <new_first_table+0xb0>
    8d10:	e3a03000 	mov	r3, #0
    8d14:	e58d3004 	str	r3, [sp, #4]
    8d18:	ea00000a 	b	8d48 <new_first_table+0x94>
    8d1c:	e59f3088 	ldr	r3, [pc, #136]	; 8dac <new_first_table+0xf8>
    8d20:	e5932000 	ldr	r2, [r3]
    8d24:	e59d100c 	ldr	r1, [sp, #12]
    8d28:	e59d3004 	ldr	r3, [sp, #4]
    8d2c:	e0813003 	add	r3, r1, r3
    8d30:	e0823003 	add	r3, r2, r3
    8d34:	e3a02001 	mov	r2, #1
    8d38:	e5c32000 	strb	r2, [r3]
    8d3c:	e59d3004 	ldr	r3, [sp, #4]
    8d40:	e2833001 	add	r3, r3, #1
    8d44:	e58d3004 	str	r3, [sp, #4]
    8d48:	e59d3004 	ldr	r3, [sp, #4]
    8d4c:	e353000f 	cmp	r3, #15
    8d50:	dafffff1 	ble	8d1c <new_first_table+0x68>
    8d54:	e59d300c 	ldr	r3, [sp, #12]
    8d58:	e2833d15 	add	r3, r3, #1344	; 0x540
    8d5c:	e1a03503 	lsl	r3, r3, #10
    8d60:	ea00000e 	b	8da0 <new_first_table+0xec>
    8d64:	e59d3008 	ldr	r3, [sp, #8]
    8d68:	e2833001 	add	r3, r3, #1
    8d6c:	e58d3008 	str	r3, [sp, #8]
    8d70:	e59d300c 	ldr	r3, [sp, #12]
    8d74:	e2832010 	add	r2, r3, #16
    8d78:	e59d3008 	ldr	r3, [sp, #8]
    8d7c:	e1520003 	cmp	r2, r3
    8d80:	caffffd2 	bgt	8cd0 <new_first_table+0x1c>
    8d84:	e59d300c 	ldr	r3, [sp, #12]
    8d88:	e2833001 	add	r3, r3, #1
    8d8c:	e58d300c 	str	r3, [sp, #12]
    8d90:	e59d300c 	ldr	r3, [sp, #12]
    8d94:	e3530a02 	cmp	r3, #8192	; 0x2000
    8d98:	baffffc9 	blt	8cc4 <new_first_table+0x10>
    8d9c:	e3a03000 	mov	r3, #0
    8da0:	e1a00003 	mov	r0, r3
    8da4:	e28dd010 	add	sp, sp, #16
    8da8:	e12fff1e 	bx	lr
    8dac:	00008ee0 	andeq	r8, r0, r0, ror #29

00008db0 <new_second_table>:
    8db0:	e24dd008 	sub	sp, sp, #8
    8db4:	e3a03000 	mov	r3, #0
    8db8:	e58d3004 	str	r3, [sp, #4]
    8dbc:	ea000013 	b	8e10 <new_second_table+0x60>
    8dc0:	e59f3064 	ldr	r3, [pc, #100]	; 8e2c <new_second_table+0x7c>
    8dc4:	e5932000 	ldr	r2, [r3]
    8dc8:	e59d3004 	ldr	r3, [sp, #4]
    8dcc:	e0823003 	add	r3, r2, r3
    8dd0:	e5d33000 	ldrb	r3, [r3]
    8dd4:	e3530000 	cmp	r3, #0
    8dd8:	1a000009 	bne	8e04 <new_second_table+0x54>
    8ddc:	e59f3048 	ldr	r3, [pc, #72]	; 8e2c <new_second_table+0x7c>
    8de0:	e5932000 	ldr	r2, [r3]
    8de4:	e59d3004 	ldr	r3, [sp, #4]
    8de8:	e0823003 	add	r3, r2, r3
    8dec:	e3a02001 	mov	r2, #1
    8df0:	e5c32000 	strb	r2, [r3]
    8df4:	e59d3004 	ldr	r3, [sp, #4]
    8df8:	e2833d15 	add	r3, r3, #1344	; 0x540
    8dfc:	e1a03503 	lsl	r3, r3, #10
    8e00:	ea000006 	b	8e20 <new_second_table+0x70>
    8e04:	e59d3004 	ldr	r3, [sp, #4]
    8e08:	e2833001 	add	r3, r3, #1
    8e0c:	e58d3004 	str	r3, [sp, #4]
    8e10:	e59d3004 	ldr	r3, [sp, #4]
    8e14:	e3530a02 	cmp	r3, #8192	; 0x2000
    8e18:	baffffe8 	blt	8dc0 <new_second_table+0x10>
    8e1c:	e3a03000 	mov	r3, #0
    8e20:	e1a00003 	mov	r0, r3
    8e24:	e28dd008 	add	sp, sp, #8
    8e28:	e12fff1e 	bx	lr
    8e2c:	00008ee0 	andeq	r8, r0, r0, ror #29

00008e30 <start_mmu_C>:
    8e30:	e52d4004 	push	{r4}		; (str r4, [sp, #-4]!)
    8e34:	e3a03000 	mov	r3, #0
    8e38:	ee013f10 	mcr	15, 0, r3, cr1, cr0, {0}
    8e3c:	ee070f17 	mcr	15, 0, r0, cr7, cr7, {0}
    8e40:	ee080f17 	mcr	15, 0, r0, cr8, cr7, {0}
    8e44:	e59f4010 	ldr	r4, [pc, #16]	; 8e5c <start_mmu_C+0x2c>
    8e48:	e3a03000 	mov	r3, #0
    8e4c:	ee083f17 	mcr	15, 0, r3, cr8, cr7, {0}
    8e50:	ee014f10 	mcr	15, 0, r4, cr1, cr0, {0}
    8e54:	e49d4004 	pop	{r4}		; (ldr r4, [sp], #4)
    8e58:	e12fff1e 	bx	lr
    8e5c:	00808011 	addeq	r8, r0, r1, lsl r0

00008e60 <configure_mmu_C>:
    8e60:	e52d4004 	push	{r4}		; (str r4, [sp, #-4]!)
    8e64:	e3a04912 	mov	r4, #294912	; 0x48000
    8e68:	e59f302c 	ldr	r3, [pc, #44]	; 8e9c <configure_mmu_C+0x3c>
    8e6c:	e5933000 	ldr	r3, [r3]
    8e70:	e2832001 	add	r2, r3, #1
    8e74:	e59f3020 	ldr	r3, [pc, #32]	; 8e9c <configure_mmu_C+0x3c>
    8e78:	e5832000 	str	r2, [r3]
    8e7c:	ee024f10 	mcr	15, 0, r4, cr2, cr0, {0}
    8e80:	ee024f30 	mcr	15, 0, r4, cr2, cr0, {1}
    8e84:	e3a03000 	mov	r3, #0
    8e88:	ee023f50 	mcr	15, 0, r3, cr2, cr0, {2}
    8e8c:	e3a03003 	mov	r3, #3
    8e90:	ee033f10 	mcr	15, 0, r3, cr3, cr0, {0}
    8e94:	e49d4004 	pop	{r4}		; (ldr r4, [sp], #4)
    8e98:	e12fff1e 	bx	lr
    8e9c:	00008efc 	strdeq	r8, [r0], -ip

00008ea0 <vMem_Alloc>:
    8ea0:	e24dd008 	sub	sp, sp, #8
    8ea4:	e58d0004 	str	r0, [sp, #4]
    8ea8:	e3a03000 	mov	r3, #0
    8eac:	e1a00003 	mov	r0, r3
    8eb0:	e28dd008 	add	sp, sp, #8
    8eb4:	e12fff1e 	bx	lr

00008eb8 <vMem_Free>:
    8eb8:	e24dd008 	sub	sp, sp, #8
    8ebc:	e58d0004 	str	r0, [sp, #4]
    8ec0:	e58d1000 	str	r1, [sp]
    8ec4:	e28dd008 	add	sp, sp, #8
    8ec8:	e12fff1e 	bx	lr

Disassembly of section .bss:

00008ecc <freelist>:
    8ecc:	00000000 	andeq	r0, r0, r0

00008ed0 <top>:
    8ed0:	00000000 	andeq	r0, r0, r0

00008ed4 <heap_limit>:
    8ed4:	00000000 	andeq	r0, r0, r0

00008ed8 <t_table>:
    8ed8:	00000000 	andeq	r0, r0, r0

00008edc <occupation_table>:
    8edc:	00000000 	andeq	r0, r0, r0

00008ee0 <mini_table>:
    8ee0:	00000000 	andeq	r0, r0, r0

00008ee4 <kernel_tt_address>:
    8ee4:	00000000 	andeq	r0, r0, r0

00008ee8 <device_flags>:
    8ee8:	00000437 	andeq	r0, r0, r7, lsr r4

00008eec <kernel_flags>:
    8eec:	00000472 	andeq	r0, r0, r2, ror r4

00008ef0 <CL>:
	...

00008ef8 <current_process>:
    8ef8:	00000000 	andeq	r0, r0, r0

00008efc <total>:
    8efc:	00000000 	andeq	r0, r0, r0

Disassembly of section .ARM.attributes:

00000000 <.ARM.attributes>:
   0:	00002941 	andeq	r2, r0, r1, asr #18
   4:	61656100 	cmnvs	r5, r0, lsl #2
   8:	01006962 	tsteq	r0, r2, ror #18
   c:	0000001f 	andeq	r0, r0, pc, lsl r0
  10:	005a3605 	subseq	r3, sl, r5, lsl #12
  14:	01080706 	tsteq	r8, r6, lsl #14
  18:	04120109 	ldreq	r0, [r2], #-265	; 0x109
  1c:	01150114 	tsteq	r5, r4, lsl r1
  20:	01180317 	tsteq	r8, r7, lsl r3
  24:	0122011a 	teqeq	r2, sl, lsl r1
  28:	Address 0x0000000000000028 is out of bounds.


Disassembly of section .comment:

00000000 <.comment>:
   0:	3a434347 	bcc	10d0d24 <__bss_end+0x10c7e24>
   4:	4e472820 	cdpmi	8, 4, cr2, cr7, cr0, {1}
   8:	6f542055 	svcvs	0x00542055
   c:	20736c6f 	rsbscs	r6, r3, pc, ror #24
  10:	20726f66 	rsbscs	r6, r2, r6, ror #30
  14:	204d5241 	subcs	r5, sp, r1, asr #4
  18:	65626d45 	strbvs	r6, [r2, #-3397]!	; 0xd45
  1c:	64656464 	strbtvs	r6, [r5], #-1124	; 0x464
  20:	6f725020 	svcvs	0x00725020
  24:	73736563 	cmnvc	r3, #415236096	; 0x18c00000
  28:	2973726f 	ldmdbcs	r3!, {r0, r1, r2, r3, r5, r6, r9, ip, sp, lr}^
  2c:	382e3420 	stmdacc	lr!, {r5, sl, ip, sp}
  30:	3220342e 	eorcc	r3, r0, #771751936	; 0x2e000000
  34:	30343130 	eorscc	r3, r4, r0, lsr r1
  38:	20353237 	eorscs	r3, r5, r7, lsr r2
  3c:	6c657228 	sfmvs	f7, 2, [r5], #-160	; 0xffffff60
  40:	65736165 	ldrbvs	r6, [r3, #-357]!	; 0x165
  44:	415b2029 	cmpmi	fp, r9, lsr #32
  48:	652f4d52 	strvs	r4, [pc, #-3410]!	; fffff2fe <__bss_end+0xffff63fe>
  4c:	6465626d 	strbtvs	r6, [r5], #-621	; 0x26d
  50:	2d646564 	cfstr64cs	mvdx6, [r4, #-400]!	; 0xfffffe70
  54:	2d385f34 	ldccs	15, cr5, [r8, #-208]!	; 0xffffff30
  58:	6e617262 	cdpvs	2, 6, cr7, cr1, cr2, {3}
  5c:	72206863 	eorvc	r6, r0, #6488064	; 0x630000
  60:	73697665 	cmnvc	r9, #105906176	; 0x6500000
  64:	206e6f69 	rsbcs	r6, lr, r9, ror #30
  68:	31333132 	teqcc	r3, r2, lsr r1
  6c:	005d3734 	subseq	r3, sp, r4, lsr r7

Disassembly of section .debug_line:

00000000 <.debug_line>:
   0:	00000061 	andeq	r0, r0, r1, rrx
   4:	00200002 	eoreq	r0, r0, r2
   8:	01020000 	mrseq	r0, (UNDEF: 2)
   c:	000d0efb 	strdeq	r0, [sp], -fp
  10:	01010101 	tsteq	r1, r1, lsl #2
  14:	01000000 	mrseq	r0, (UNDEF: 0)
  18:	00010000 	andeq	r0, r1, r0
  1c:	74636576 	strbtvc	r6, [r3], #-1398	; 0x576
  20:	2e73726f 	cdpcs	2, 7, cr7, cr3, cr15, {3}
  24:	00000073 	andeq	r0, r0, r3, ror r0
  28:	05000000 	streq	r0, [r0, #-0]
  2c:	00800002 	addeq	r0, r0, r2
  30:	2f2f1900 	svccs	0x002f1900
  34:	2f2f2f2f 	svccs	0x002f2f2f
  38:	080b032f 	stmdaeq	fp, {r0, r1, r2, r3, r5, r8, r9}
  3c:	2f2f2f20 	svccs	0x002f2f20
  40:	2f322f2f 	svccs	0x00322f2f
  44:	2f2f322f 	svccs	0x002f322f
  48:	302f2f31 	eorcc	r2, pc, r1, lsr pc	; <UNPREDICTABLE>
  4c:	2f2f2f30 	svccs	0x002f2f30
  50:	2f322f2f 	svccs	0x00322f2f
  54:	2f322f32 	svccs	0x00322f32
  58:	2f322f32 	svccs	0x00322f32
  5c:	31303232 	teqcc	r0, r2, lsr r2
  60:	01000202 	tsteq	r0, r2, lsl #4
  64:	00005601 	andeq	r5, r0, r1, lsl #12
  68:	2a000200 	bcs	870 <_start-0x7790>
  6c:	02000000 	andeq	r0, r0, #0
  70:	0d0efb01 	vstreq	d15, [lr, #-4]
  74:	01010100 	mrseq	r0, (UNDEF: 17)
  78:	00000001 	andeq	r0, r0, r1
  7c:	01000001 	tsteq	r0, r1
  80:	72656b00 	rsbvc	r6, r5, #0, 22
  84:	2e6c656e 	cdpcs	5, 6, cr6, cr12, cr14, {3}
  88:	00000063 	andeq	r0, r0, r3, rrx
  8c:	68637300 	stmdavs	r3!, {r8, r9, ip, sp, lr}^
  90:	682e6465 	stmdavs	lr!, {r0, r2, r5, r6, sl, sp, lr}
  94:	00000000 	andeq	r0, r0, r0
  98:	02050000 	andeq	r0, r5, #0
  9c:	000080d0 	ldrdeq	r8, [r0], -r0
  a0:	674c2f18 	smlaldvs	r2, ip, r8, pc	; <UNPREDICTABLE>
  a4:	2f684c83 	svccs	0x00684c83
  a8:	01040200 	mrseq	r0, R12_usr
  ac:	0402004c 	streq	r0, [r2], #-76	; 0x4c
  b0:	2f316701 	svccs	0x00316701
  b4:	0402002f 	streq	r0, [r2], #-47	; 0x2f
  b8:	02023601 	andeq	r3, r2, #1048576	; 0x100000
  bc:	59010100 	stmdbpl	r1, {r8}
  c0:	02000000 	andeq	r0, r0, #0
  c4:	00002100 	andeq	r2, r0, r0, lsl #2
  c8:	fb010200 	blx	408d2 <__bss_end+0x379d2>
  cc:	01000d0e 	tsteq	r0, lr, lsl #26
  d0:	00010101 	andeq	r0, r1, r1, lsl #2
  d4:	00010000 	andeq	r0, r1, r0
  d8:	70000100 	andvc	r0, r0, r0, lsl #2
  dc:	6c417968 	mcrrvs	9, 6, r7, r1, cr8
  e0:	2e636f6c 	cdpcs	15, 6, cr6, cr3, cr12, {3}
  e4:	00000063 	andeq	r0, r0, r3, rrx
  e8:	05000000 	streq	r0, [r0, #-0]
  ec:	00813802 	addeq	r3, r1, r2, lsl #16
  f0:	010c0300 	mrseq	r0, LR_mon
  f4:	2f2f4c67 	svccs	0x002f4c67
  f8:	0402002f 	streq	r0, [r2], #-47	; 0x2f
  fc:	02002c01 	andeq	r2, r0, #256	; 0x100
 100:	4a060204 	bmi	180918 <__bss_end+0x177a18>
 104:	4b4b8606 	blmi	12e1924 <__bss_end+0x12d8a24>
 108:	4c4cbbf4 	mcrrmi	11, 15, fp, ip, cr4
 10c:	3083da2f 	addcc	sp, r3, pc, lsr #20
 110:	864b6783 	strbhi	r6, [fp], -r3, lsl #15
 114:	029f6767 	addseq	r6, pc, #27000832	; 0x19c0000
 118:	01010008 	tsteq	r1, r8
 11c:	0000004b 	andeq	r0, r0, fp, asr #32
 120:	001b0002 	andseq	r0, fp, r2
 124:	01020000 	mrseq	r0, (UNDEF: 2)
 128:	000d0efb 	strdeq	r0, [sp], -fp
 12c:	01010101 	tsteq	r1, r1, lsl #2
 130:	01000000 	mrseq	r0, (UNDEF: 0)
 134:	00010000 	andeq	r0, r1, r0
 138:	632e7768 	teqvs	lr, #104, 14	; 0x1a00000
 13c:	00000000 	andeq	r0, r0, r0
 140:	02050000 	andeq	r0, r5, #0
 144:	00008270 	andeq	r8, r0, r0, ror r2
 148:	4b011c03 	blmi	4715c <__bss_end+0x3e25c>
 14c:	67686767 	strbvs	r6, [r8, -r7, ror #14]!
 150:	2f9e0903 	svccs	0x009e0903
 154:	672f4e67 	strvs	r4, [pc, -r7, ror #28]!
 158:	67674f51 			; <UNDEFINED> instruction: 0x67674f51
 15c:	67696967 	strbvs	r6, [r9, -r7, ror #18]!
 160:	68696a67 	stmdavs	r9!, {r0, r1, r2, r5, r6, r9, fp, sp, lr}^
 164:	100267a0 	andne	r6, r2, r0, lsr #15
 168:	de010100 	adfles	f0, f1, f0
 16c:	02000000 	andeq	r0, r0, #0
 170:	00002900 	andeq	r2, r0, r0, lsl #18
 174:	fb010200 	blx	4097e <__bss_end+0x37a7e>
 178:	01000d0e 	tsteq	r0, lr, lsl #26
 17c:	00010101 	andeq	r0, r1, r1, lsl #2
 180:	00010000 	andeq	r0, r1, r0
 184:	73000100 	movwvc	r0, #256	; 0x100
 188:	64656863 	strbtvs	r6, [r5], #-2147	; 0x863
 18c:	0000632e 	andeq	r6, r0, lr, lsr #6
 190:	63730000 	cmnvs	r3, #0
 194:	2e646568 	cdpcs	5, 6, cr6, cr4, cr8, {3}
 198:	00000068 	andeq	r0, r0, r8, rrx
 19c:	05000000 	streq	r0, [r0, #-0]
 1a0:	0083ac02 	addeq	sl, r3, r2, lsl #24
 1a4:	9f9f1700 	svcls	0x009f1700
 1a8:	0f0367bb 	svceq	0x000367bb
 1ac:	6767bb4a 	strbvs	fp, [r7, -sl, asr #22]!
 1b0:	67836767 	strvs	r6, [r3, r7, ror #14]
 1b4:	67a04c67 	strvs	r4, [r0, r7, ror #24]!
 1b8:	040200a0 	streq	r0, [r2], #-160	; 0xa0
 1bc:	069e0601 	ldreq	r0, [lr], r1, lsl #12
 1c0:	6767c908 	strbvs	ip, [r7, -r8, lsl #18]!
 1c4:	a0678385 	rsbge	r8, r7, r5, lsl #7
 1c8:	2f9f2f68 	svccs	0x009f2f68
 1cc:	839f8383 	orrshi	r8, pc, #201326594	; 0xc000002
 1d0:	2f694b4c 	svccs	0x00694b4c
 1d4:	0402002f 	streq	r0, [r2], #-47	; 0x2f
 1d8:	02006501 	andeq	r6, r0, #4194304	; 0x400000
 1dc:	9e060204 	cdpls	2, 0, cr0, cr6, cr4, {0}
 1e0:	839fbd06 	orrshi	fp, pc, #384	; 0x180
 1e4:	009fbbd7 			; <UNDEFINED> instruction: 0x009fbbd7
 1e8:	03010402 	movweq	r0, #5122	; 0x1402
 1ec:	18036677 	stmdane	r3, {r0, r1, r2, r4, r5, r6, r9, sl, sp, lr}
 1f0:	2f1368ba 	svccs	0x001368ba
 1f4:	01040200 	mrseq	r0, R12_usr
 1f8:	2f4ca19d 	svccs	0x004ca19d
 1fc:	68832f9f 	stmvs	r3, {r0, r1, r2, r3, r4, r7, r8, r9, sl, fp, sp}
 200:	2f2f9f4b 	svccs	0x002f9f4b
 204:	04020030 	streq	r0, [r2], #-48	; 0x30
 208:	06820601 	streq	r0, [r2], r1, lsl #12
 20c:	9f9f2f9f 	svcls	0x009f2f9f
 210:	679f2f84 	ldrvs	r2, [pc, r4, lsl #31]
 214:	0402002f 	streq	r0, [r2], #-47	; 0x2f
 218:	83a16501 			; <UNDEFINED> instruction: 0x83a16501
 21c:	002f4c30 	eoreq	r4, pc, r0, lsr ip	; <UNPREDICTABLE>
 220:	2b010402 	blcs	41230 <__bss_end+0x38330>
 224:	9f849fa3 	svcls	0x00849fa3
 228:	2f9f309f 	svccs	0x009f309f
 22c:	a014692f 	andsge	r6, r4, pc, lsr #18
 230:	2f4b9f4b 	svccs	0x004b9f4b
 234:	01040200 	mrseq	r0, R12_usr
 238:	4c67852d 	cfstr64mi	mvdx8, [r7], #-180	; 0xffffff4c
 23c:	849f9f2f 	ldrhi	r9, [pc], #3887	; 244 <_start-0x7dbc>
 240:	9f30a030 	svcls	0x0030a030
 244:	2f9f9f83 	svccs	0x009f9f83
 248:	01000402 	tsteq	r0, r2, lsl #8
 24c:	00005501 	andeq	r5, r0, r1, lsl #10
 250:	2b000200 	blcs	a58 <_start-0x75a8>
 254:	02000000 	andeq	r0, r0, #0
 258:	0d0efb01 	vstreq	d15, [lr, #-4]
 25c:	01010100 	mrseq	r0, (UNDEF: 17)
 260:	00000001 	andeq	r0, r0, r1
 264:	01000001 	tsteq	r0, r1
 268:	73797300 	cmnvc	r9, #0, 6
 26c:	6c6c6163 	stfvse	f6, [ip], #-396	; 0xfffffe74
 270:	0000632e 	andeq	r6, r0, lr, lsr #6
 274:	63730000 	cmnvs	r3, #0
 278:	2e646568 	cdpcs	5, 6, cr6, cr4, cr8, {3}
 27c:	00000068 	andeq	r0, r0, r8, rrx
 280:	05000000 	streq	r0, [r0, #-0]
 284:	0089b802 	addeq	fp, r9, r2, lsl #16
 288:	4b2f1500 	blmi	bc5690 <__bss_end+0xbbc790>
 28c:	4b67302f 	blmi	19cc350 <__bss_end+0x19c3450>
 290:	014c2f4b 	cmpeq	ip, fp, asr #30
 294:	834c3030 	movthi	r3, #49200	; 0xc030
 298:	4b4b4b68 	blmi	12d3040 <__bss_end+0x12ca140>
 29c:	2f302fbc 	svccs	0x00302fbc
 2a0:	00040230 	andeq	r0, r4, r0, lsr r2
 2a4:	011c0101 	tsteq	ip, r1, lsl #2
 2a8:	00020000 	andeq	r0, r2, r0
 2ac:	0000003f 	andeq	r0, r0, pc, lsr r0
 2b0:	0efb0102 	cdpeq	1, 15, cr0, cr11, cr2, {0}
 2b4:	0101000d 	tsteq	r1, sp
 2b8:	00000101 	andeq	r0, r0, r1, lsl #2
 2bc:	00000100 	andeq	r0, r0, r0, lsl #2
 2c0:	656d7601 	strbvs	r7, [sp, #-1537]!	; 0x601
 2c4:	6d76006d 	ldclvs	0, cr0, [r6, #-436]!	; 0xfffffe4c
 2c8:	2e2f6d65 	cdpcs	13, 2, cr6, cr15, cr5, {3}
 2cc:	7600002e 	strvc	r0, [r0], -lr, lsr #32
 2d0:	2e6d656d 	cdpcs	5, 6, cr6, cr13, cr13, {3}
 2d4:	00010063 	andeq	r0, r1, r3, rrx
 2d8:	70797400 	rsbsvc	r7, r9, r0, lsl #8
 2dc:	682e7365 	stmdavs	lr!, {r0, r2, r5, r6, r8, r9, ip, sp, lr}
 2e0:	00000200 	andeq	r0, r0, r0, lsl #4
 2e4:	6d656d76 	stclvs	13, cr6, [r5, #-472]!	; 0xfffffe28
 2e8:	0100682e 	tsteq	r0, lr, lsr #16
 2ec:	00000000 	andeq	r0, r0, r0
 2f0:	8a680205 	bhi	1a00b0c <__bss_end+0x19f7c0c>
 2f4:	1c030000 	stcne	0, cr0, [r3], {-0}
 2f8:	00684d01 	rsbeq	r4, r8, r1, lsl #26
 2fc:	67020402 	strvs	r0, [r2, -r2, lsl #8]
 300:	02040200 	andeq	r0, r4, #0, 4
 304:	040200b9 	streq	r0, [r2], #-185	; 0xb9
 308:	06660601 	strbteq	r0, [r6], -r1, lsl #12
 30c:	0200686a 	andeq	r6, r0, #6946816	; 0x6a0000
 310:	00670204 	rsbeq	r0, r7, r4, lsl #4
 314:	b9020402 	stmdblt	r2, {r1, sl}
 318:	01040200 	mrseq	r0, R12_usr
 31c:	6a066606 	bvs	199b3c <__bss_end+0x190c3c>
 320:	c02f8583 	eorgt	r8, pc, r3, lsl #11
 324:	084b6868 	stmdaeq	fp, {r3, r5, r6, fp, sp, lr}^
 328:	04020023 	streq	r0, [r2], #-35	; 0x23
 32c:	02006802 	andeq	r6, r0, #131072	; 0x20000
 330:	8e080204 	cdphi	2, 0, cr0, cr8, cr4, {0}
 334:	01040200 	mrseq	r0, R12_usr
 338:	03066606 	movweq	r6, #26118	; 0x6606
 33c:	0200667a 	andeq	r6, r0, #127926272	; 0x7a00000
 340:	66060104 	strvs	r0, [r6], -r4, lsl #2
 344:	660b0306 	strvs	r0, [fp], -r6, lsl #6
 348:	3e084b68 	vmlscc.f64	d4, d8, d24
 34c:	02040200 	andeq	r0, r4, #0, 4
 350:	04020068 	streq	r0, [r2], #-104	; 0x68
 354:	00c60802 	sbceq	r0, r6, r2, lsl #16
 358:	06010402 	streq	r0, [r1], -r2, lsl #8
 35c:	00610666 	rsbeq	r0, r1, r6, ror #12
 360:	06010402 	streq	r0, [r1], -r2, lsl #8
 364:	0a030666 	beq	c1d04 <__bss_end+0xb8e04>
 368:	68318566 	ldmdavs	r1!, {r1, r2, r5, r6, r8, sl, pc}
 36c:	3067d868 	rsbcc	sp, r7, r8, ror #16
 370:	040200a1 	streq	r0, [r2], #-161	; 0xa1
 374:	02006802 	andeq	r6, r0, #131072	; 0x20000
 378:	00f00204 	rscseq	r0, r0, r4, lsl #4
 37c:	06010402 	streq	r0, [r1], -r2, lsl #8
 380:	036a0666 	cmneq	sl, #106954752	; 0x6600000
 384:	02008272 	andeq	r8, r0, #536870919	; 0x20000007
 388:	66060104 	strvs	r0, [r6], -r4, lsl #2
 38c:	02009c06 	andeq	r9, r0, #1536	; 0x600
 390:	66060104 	strvs	r0, [r6], -r4, lsl #2
 394:	66160306 	ldrvs	r0, [r6], -r6, lsl #6
 398:	6830852f 	ldmdavs	r0!, {r0, r1, r2, r3, r5, r8, sl, pc}
 39c:	007dbbd8 	ldrsbteq	fp, [sp], #-184	; 0xffffff48
 3a0:	06010402 	streq	r0, [r1], -r2, lsl #8
 3a4:	09030666 	stmdbeq	r3, {r1, r2, r5, r6, r9, sl}
 3a8:	34032f66 	strcc	r2, [r3], #-3942	; 0xf66
 3ac:	2f4b3082 	svccs	0x004b3082
 3b0:	304c3030 	subcc	r3, ip, r0, lsr r0
 3b4:	a02f2f69 	eorge	r2, pc, r9, ror #30
 3b8:	4b4e3030 	blmi	138c480 <__bss_end+0x1383580>
 3bc:	692f4b69 	stmdbvs	pc!, {r0, r3, r5, r6, r8, r9, fp, lr}	; <UNPREDICTABLE>
 3c0:	00040268 	andeq	r0, r4, r8, ror #4
 3c4:	Address 0x00000000000003c4 is out of bounds.


Disassembly of section .debug_info:

00000000 <.debug_info>:
   0:	0000004d 	andeq	r0, r0, sp, asr #32
   4:	00000002 	andeq	r0, r0, r2
   8:	01040000 	mrseq	r0, (UNDEF: 4)
   c:	00000000 	andeq	r0, r0, r0
  10:	00008000 	andeq	r8, r0, r0
  14:	000080d0 	ldrdeq	r8, [r0], -r0
  18:	74636576 	strbtvc	r6, [r3], #-1398	; 0x576
  1c:	2e73726f 	cdpcs	2, 7, cr7, cr3, cr15, {3}
  20:	682f0073 	stmdavs	pc!, {r0, r1, r4, r5, r6}	; <UNPREDICTABLE>
  24:	2f656d6f 	svccs	0x00656d6f
  28:	74736574 	ldrbtvc	r6, [r3], #-1396	; 0x574
  2c:	7370742f 	cmnvc	r0, #788529152	; 0x2f000000
  30:	4f2f6165 	svcmi	0x002f6165
  34:	61522d73 	cmpvs	r2, r3, ror sp
  38:	62657073 	rsbvs	r7, r5, #115	; 0x73
  3c:	79727265 	ldmdbvc	r2!, {r0, r2, r5, r6, r9, ip, sp, lr}^
  40:	554e4700 	strbpl	r4, [lr, #-1792]	; 0x700
  44:	20534120 	subscs	r4, r3, r0, lsr #2
  48:	33322e32 	teqcc	r2, #800	; 0x320
  4c:	0100322e 	tsteq	r0, lr, lsr #4
  50:	0001c180 	andeq	ip, r1, r0, lsl #3
  54:	14000400 	strne	r0, [r0], #-1024	; 0x400
  58:	04000000 	streq	r0, [r0], #-0
  5c:	00002501 	andeq	r2, r0, r1, lsl #10
  60:	01440100 	mrseq	r0, (UNDEF: 84)
  64:	017c0000 	cmneq	ip, r0
  68:	80d00000 	sbcshi	r0, r0, r0
  6c:	00680000 	rsbeq	r0, r8, r0
  70:	00650000 	rsbeq	r0, r5, r0
  74:	6e020000 	cdpvs	0, 0, cr0, cr2, cr0, {0}
  78:	02000001 	andeq	r0, r0, #1
  7c:	00003005 	andeq	r3, r0, r5
  80:	016e0300 	cmneq	lr, r0, lsl #6
  84:	02040000 	andeq	r0, r4, #0
  88:	00005505 	andeq	r5, r0, r5, lsl #10
  8c:	454e0400 	strbmi	r0, [lr, #-1024]	; 0x400
  90:	05000057 	streq	r0, [r0, #-87]	; 0x57
  94:	000000cb 	andeq	r0, r0, fp, asr #1
  98:	011b0501 	tsteq	fp, r1, lsl #10
  9c:	05020000 	streq	r0, [r2, #-0]
  a0:	000000fb 	strdeq	r0, [r0], -fp
  a4:	1d020003 	stcne	0, cr0, [r2, #-12]
  a8:	02000000 	andeq	r0, r0, #0
  ac:	00006007 	andeq	r6, r0, r7
  b0:	66040600 	strvs	r0, [r4], -r0, lsl #12
  b4:	07000000 	streq	r0, [r0, -r0]
  b8:	00011508 	andeq	r1, r1, r8, lsl #10
  bc:	0e020c00 	cdpeq	12, 0, cr0, cr2, cr0, {0}
  c0:	00000096 	muleq	r0, r6, r0
  c4:	00707309 	rsbseq	r7, r0, r9, lsl #6
  c8:	00960f02 	addseq	r0, r6, r2, lsl #30
  cc:	09000000 	stmdbeq	r0, {}	; <UNPREDICTABLE>
  d0:	02006370 	andeq	r6, r0, #112, 6	; 0xc0000001
  d4:	00009610 	andeq	r9, r0, r0, lsl r6
  d8:	660a0400 	strvs	r0, [sl], -r0, lsl #8
  dc:	02000001 	andeq	r0, r0, #1
  e0:	00009611 	andeq	r9, r0, r1, lsl r6
  e4:	0b000800 	bleq	20ec <_start-0x5f14>
  e8:	01600804 	cmneq	r0, r4, lsl #16
  ec:	021c0000 	andseq	r0, ip, #0
  f0:	0000f914 	andeq	pc, r0, r4, lsl r9	; <UNPREDICTABLE>
  f4:	00140a00 	andseq	r0, r4, r0, lsl #20
  f8:	15020000 	strne	r0, [r2, #-0]
  fc:	000000f9 	strdeq	r0, [r0], -r9
 100:	00000a00 	andeq	r0, r0, r0, lsl #20
 104:	16020000 	strne	r0, [r2], -r0
 108:	00000096 	muleq	r0, r6, r0
 10c:	01530a04 	cmpeq	r3, r4, lsl #20
 110:	17020000 	strne	r0, [r2, -r0]
 114:	000000ff 	strdeq	r0, [r0], -pc	; <UNPREDICTABLE>
 118:	00e20a08 	rsceq	r0, r2, r8, lsl #20
 11c:	18020000 	stmdane	r2, {}	; <UNPREDICTABLE>
 120:	00000055 	andeq	r0, r0, r5, asr r0
 124:	01740a0c 	cmneq	r4, ip, lsl #20
 128:	19020000 	stmdbne	r2, {}	; <UNPREDICTABLE>
 12c:	00000106 	andeq	r0, r0, r6, lsl #2
 130:	014d0a10 	cmpeq	sp, r0, lsl sl
 134:	1a020000 	bne	8013c <__bss_end+0x7723c>
 138:	00000025 	andeq	r0, r0, r5, lsr #32
 13c:	03eb0a14 	mvneq	r0, #20, 20	; 0x14000
 140:	1b020000 	blne	80148 <__bss_end+0x77248>
 144:	00000096 	muleq	r0, r6, r0
 148:	04060018 	streq	r0, [r6], #-24
 14c:	00000098 	muleq	r0, r8, r0
 150:	2907040c 	stmdbcs	r7, {r2, r3, sl}
 154:	06000001 	streq	r0, [r0], -r1
 158:	00006704 	andeq	r6, r0, r4, lsl #14
 15c:	00ee0800 	rsceq	r0, lr, r0, lsl #16
 160:	02080000 	andeq	r0, r8, #0
 164:	0001311e 	andeq	r3, r1, lr, lsl r1
 168:	00d80a00 	sbcseq	r0, r8, r0, lsl #20
 16c:	1f020000 	svcne	0x00020000
 170:	000000f9 	strdeq	r0, [r0], -r9
 174:	01060a00 	tsteq	r6, r0, lsl #20
 178:	20020000 	andcs	r0, r2, r0
 17c:	000000f9 	strdeq	r0, [r0], -r9
 180:	020c0004 	andeq	r0, ip, #4
 184:	00012307 	andeq	r2, r1, r7, lsl #6
 188:	08010c00 	stmdaeq	r1, {sl, fp}
 18c:	00000136 	andeq	r0, r0, r6, lsr r1
 190:	0000e80d 	andeq	lr, r0, sp, lsl #16
 194:	d0070100 	andle	r0, r7, r0, lsl #2
 198:	3c000080 	stccc	0, cr0, [r0], {128}	; 0x80
 19c:	01000000 	mrseq	r0, (UNDEF: 0)
 1a0:	0001639c 	muleq	r1, ip, r3
 1a4:	00d30e00 	sbcseq	r0, r3, r0, lsl #28
 1a8:	08010000 	stmdaeq	r1, {}	; <UNPREDICTABLE>
 1ac:	00000163 	andeq	r0, r0, r3, ror #2
 1b0:	007c9102 	rsbseq	r9, ip, r2, lsl #2
 1b4:	6905040f 	stmdbvs	r5, {r0, r1, r2, r3, sl}
 1b8:	0d00746e 	cfstrseq	mvf7, [r0, #-440]	; 0xfffffe48
 1bc:	0000010f 	andeq	r0, r0, pc, lsl #2
 1c0:	810c1001 	tsthi	ip, r1
 1c4:	001c0000 	andseq	r0, ip, r0
 1c8:	9c010000 	stcls	0, cr0, [r1], {-0}
 1cc:	0000018e 	andeq	r0, r0, lr, lsl #3
 1d0:	00000f0e 	andeq	r0, r0, lr, lsl #30
 1d4:	63110100 	tstvs	r1, #0, 2
 1d8:	02000001 	andeq	r0, r0, #1
 1dc:	10007c91 	mulne	r0, r1, ip
 1e0:	00000009 	andeq	r0, r0, r9
 1e4:	01631701 	cmneq	r3, r1, lsl #14
 1e8:	81280000 	teqhi	r8, r0
 1ec:	00100000 	andseq	r0, r0, r0
 1f0:	9c010000 	stcls	0, cr0, [r1], {-0}
 1f4:	00028711 	andeq	r8, r2, r1, lsl r7
 1f8:	f9230200 			; <UNDEFINED> instruction: 0xf9230200
 1fc:	05000000 	streq	r0, [r0, #-0]
 200:	008ef803 	addeq	pc, lr, r3, lsl #16
 204:	4c431200 	sfmmi	f1, 2, [r3], {-0}
 208:	0c240200 	sfmeq	f0, 4, [r4], #-0
 20c:	05000001 	streq	r0, [r0, #-1]
 210:	008ef003 	addeq	pc, lr, r3
 214:	014a0000 	mrseq	r0, (UNDEF: 74)
 218:	00040000 	andeq	r0, r4, r0
 21c:	00000113 	andeq	r0, r0, r3, lsl r1
 220:	00250104 	eoreq	r0, r5, r4, lsl #2
 224:	9b010000 	blls	4022c <__bss_end+0x3732c>
 228:	7c000001 	stcvc	0, cr0, [r0], {1}
 22c:	38000001 	stmdacc	r0, {r0}
 230:	38000081 	stmdacc	r0, {r0, r7}
 234:	bf000001 	svclt	0x00000001
 238:	02000000 	andeq	r0, r0, #0
 23c:	08006c66 	stmdaeq	r0, {r1, r2, r5, r6, sl, fp, sp, lr}
 240:	00490301 	subeq	r0, r9, r1, lsl #6
 244:	d8030000 	stmdale	r3, {}	; <UNPREDICTABLE>
 248:	01000001 	tsteq	r0, r1
 24c:	00004904 	andeq	r4, r0, r4, lsl #18
 250:	a5030000 	strge	r0, [r3, #-0]
 254:	01000002 	tsteq	r0, r2
 258:	00004f05 	andeq	r4, r0, r5, lsl #30
 25c:	04000400 	streq	r0, [r0], #-1024	; 0x400
 260:	00002504 	andeq	r2, r0, r4, lsl #10
 264:	07040500 	streq	r0, [r4, -r0, lsl #10]
 268:	00000129 	andeq	r0, r0, r9, lsr #2
 26c:	0001dd06 	andeq	sp, r1, r6, lsl #26
 270:	960c0100 	strls	r0, [ip], -r0, lsl #2
 274:	38000000 	stmdacc	r0, {}	; <UNPREDICTABLE>
 278:	b4000081 	strlt	r0, [r0], #-129	; 0x81
 27c:	01000000 	mrseq	r0, (UNDEF: 0)
 280:	0000969c 	muleq	r0, ip, r6
 284:	02a50700 	adceq	r0, r5, #0, 14
 288:	0c010000 	stceq	0, cr0, [r1], {-0}
 28c:	0000004f 	andeq	r0, r0, pc, asr #32
 290:	08749102 	ldmdaeq	r4!, {r1, r8, ip, pc}^
 294:	0e010066 	cdpeq	0, 0, cr0, cr1, cr6, {3}
 298:	00000049 	andeq	r0, r0, r9, asr #32
 29c:	a6095401 	strge	r5, [r9], -r1, lsl #8
 2a0:	01000001 	tsteq	r0, r1
 2a4:	0000980e 	andeq	r9, r0, lr, lsl #16
 2a8:	00550100 	subseq	r0, r5, r0, lsl #2
 2ac:	0404040a 	streq	r0, [r4], #-1034	; 0x40a
 2b0:	00000049 	andeq	r0, r0, r9, asr #32
 2b4:	0001bf0b 	andeq	fp, r1, fp, lsl #30
 2b8:	ec220100 	stfs	f0, [r2], #-0
 2bc:	48000081 	stmdami	r0, {r0, r7}
 2c0:	01000000 	mrseq	r0, (UNDEF: 0)
 2c4:	0000db9c 	muleq	r0, ip, fp
 2c8:	74700c00 	ldrbtvc	r0, [r0], #-3072	; 0xc00
 2cc:	22010072 	andcs	r0, r1, #114	; 0x72
 2d0:	00000096 	muleq	r0, r6, r0
 2d4:	07749102 	ldrbeq	r9, [r4, -r2, lsl #2]!
 2d8:	000002a5 	andeq	r0, r0, r5, lsr #5
 2dc:	004f2201 	subeq	r2, pc, r1, lsl #4
 2e0:	91020000 	mrsls	r0, (UNDEF: 2)
 2e4:	00660870 	rsbeq	r0, r6, r0, ror r8
 2e8:	00492401 	subeq	r2, r9, r1, lsl #8
 2ec:	54010000 	strpl	r0, [r1], #-0
 2f0:	01ec0b00 	mvneq	r0, r0, lsl #22
 2f4:	2c010000 	stccs	0, cr0, [r1], {-0}
 2f8:	00008234 	andeq	r8, r0, r4, lsr r2
 2fc:	0000003c 	andeq	r0, r0, ip, lsr r0
 300:	010d9c01 	tsteq	sp, r1, lsl #24
 304:	cd070000 	stcgt	0, cr0, [r7, #-0]
 308:	01000001 	tsteq	r0, r1
 30c:	00010d2c 	andeq	r0, r1, ip, lsr #26
 310:	7c910200 	lfmvc	f0, 4, [r1], {0}
 314:	0001fa07 	andeq	pc, r1, r7, lsl #20
 318:	4f2c0100 	svcmi	0x002c0100
 31c:	02000000 	andeq	r0, r0, #0
 320:	04007891 	streq	r7, [r0], #-2193	; 0x891
 324:	00011304 	andeq	r1, r1, r4, lsl #6
 328:	08010500 	stmdaeq	r1, {r8, sl}
 32c:	0000013f 	andeq	r0, r0, pc, lsr r1
 330:	706f7408 	rsbvc	r7, pc, r8, lsl #8
 334:	0d080100 	stfeqs	f0, [r8, #-0]
 338:	05000001 	streq	r0, [r0, #-1]
 33c:	008ed003 	addeq	sp, lr, r3
 340:	01b40900 			; <UNDEFINED> instruction: 0x01b40900
 344:	09010000 	stmdbeq	r1, {}	; <UNPREDICTABLE>
 348:	0000010d 	andeq	r0, r0, sp, lsl #2
 34c:	8ed40305 	cdphi	3, 13, cr0, cr4, cr5, {0}
 350:	ab0d0000 	blge	340358 <__bss_end+0x337458>
 354:	01000001 	tsteq	r0, r1
 358:	00004906 	andeq	r4, r0, r6, lsl #18
 35c:	cc030500 	cfstr32gt	mvfx0, [r3], {-0}
 360:	0000008e 	andeq	r0, r0, lr, lsl #1
 364:	000000a8 	andeq	r0, r0, r8, lsr #1
 368:	01e30004 	mvneq	r0, r4
 36c:	01040000 	mrseq	r0, (UNDEF: 4)
 370:	00000025 	andeq	r0, r0, r5, lsr #32
 374:	00021e01 	andeq	r1, r2, r1, lsl #28
 378:	00017c00 	andeq	r7, r1, r0, lsl #24
 37c:	00827000 	addeq	r7, r2, r0
 380:	00013c00 	andeq	r3, r1, r0, lsl #24
 384:	00011c00 	andeq	r1, r1, r0, lsl #24
 388:	07020200 	streq	r0, [r2, -r0, lsl #4]
 38c:	00000123 	andeq	r0, r0, r3, lsr #2
 390:	29070402 	stmdbcs	r7, {r1, sl}
 394:	02000001 	andeq	r0, r0, #1
 398:	01360801 	teqeq	r6, r1, lsl #16
 39c:	04030000 	streq	r0, [r3], #-0
 3a0:	01000002 	tsteq	r0, r2
 3a4:	0082701c 	addeq	r7, r2, ip, lsl r0
 3a8:	00004c00 	andeq	r4, r0, r0, lsl #24
 3ac:	5d9c0100 	ldfpls	f0, [ip]
 3b0:	04000000 	streq	r0, [r0], #-0
 3b4:	01007872 	tsteq	r0, r2, ror r8
 3b8:	00002c1e 	andeq	r2, r0, lr, lsl ip
 3bc:	74910200 	ldrvc	r0, [r1], #512	; 0x200
 3c0:	02320500 	eorseq	r0, r2, #0, 10
 3c4:	2b010000 	blcs	403cc <__bss_end+0x374cc>
 3c8:	000082bc 			; <UNDEFINED> instruction: 0x000082bc
 3cc:	00000018 	andeq	r0, r0, r8, lsl r0
 3d0:	23059c01 	movwcs	r9, #23553	; 0x5c01
 3d4:	01000002 	tsteq	r0, r2
 3d8:	0082d431 	addeq	sp, r2, r1, lsr r4
 3dc:	00001800 	andeq	r1, r0, r0, lsl #16
 3e0:	069c0100 	ldreq	r0, [ip], r0, lsl #2
 3e4:	0000022a 	andeq	r0, r0, sl, lsr #4
 3e8:	82ec3a01 	rschi	r3, ip, #4096	; 0x1000
 3ec:	00c00000 	sbceq	r0, r0, r0
 3f0:	9c010000 	stcls	0, cr0, [r1], {-0}
 3f4:	00617204 	rsbeq	r7, r1, r4, lsl #4
 3f8:	002c3c01 	eoreq	r3, ip, r1, lsl #24
 3fc:	91020000 	mrsls	r0, (UNDEF: 2)
 400:	78720474 	ldmdavc	r2!, {r2, r4, r5, r6, sl}^
 404:	2c3d0100 	ldfcss	f0, [sp], #-0
 408:	02000000 	andeq	r0, r0, #0
 40c:	00007091 	muleq	r0, r1, r0
 410:	000002f3 	strdeq	r0, [r0], -r3
 414:	02550004 	subseq	r0, r5, #4
 418:	01040000 	mrseq	r0, (UNDEF: 4)
 41c:	00000025 	andeq	r0, r0, r5, lsr #32
 420:	00023f01 	andeq	r3, r2, r1, lsl #30
 424:	00017c00 	andeq	r7, r1, r0, lsl #24
 428:	0083ac00 	addeq	sl, r3, r0, lsl #24
 42c:	00060c00 	andeq	r0, r6, r0, lsl #24
 430:	00016b00 	andeq	r6, r1, r0, lsl #22
 434:	016e0200 	cmneq	lr, r0, lsl #4
 438:	05020000 	streq	r0, [r2, #-0]
 43c:	00000030 	andeq	r0, r0, r0, lsr r0
 440:	00016e03 	andeq	r6, r1, r3, lsl #28
 444:	05020400 	streq	r0, [r2, #-1024]	; 0x400
 448:	00000055 	andeq	r0, r0, r5, asr r0
 44c:	57454e04 	strbpl	r4, [r5, -r4, lsl #28]
 450:	cb050000 	blgt	140458 <__bss_end+0x137558>
 454:	01000000 	mrseq	r0, (UNDEF: 0)
 458:	00011b05 	andeq	r1, r1, r5, lsl #22
 45c:	fb050200 	blx	140c66 <__bss_end+0x137d66>
 460:	03000000 	movweq	r0, #0
 464:	001d0200 	andseq	r0, sp, r0, lsl #4
 468:	07020000 	streq	r0, [r2, -r0]
 46c:	00000060 	andeq	r0, r0, r0, rrx
 470:	00660406 	rsbeq	r0, r6, r6, lsl #8
 474:	08070000 	stmdaeq	r7, {}	; <UNPREDICTABLE>
 478:	00000115 	andeq	r0, r0, r5, lsl r1
 47c:	960e020c 	strls	r0, [lr], -ip, lsl #4
 480:	09000000 	stmdbeq	r0, {}	; <UNPREDICTABLE>
 484:	02007073 	andeq	r7, r0, #115	; 0x73
 488:	0000960f 	andeq	r9, r0, pc, lsl #12
 48c:	70090000 	andvc	r0, r9, r0
 490:	10020063 	andne	r0, r2, r3, rrx
 494:	00000096 	muleq	r0, r6, r0
 498:	01660a04 	cmneq	r6, r4, lsl #20
 49c:	11020000 	mrsne	r0, (UNDEF: 2)
 4a0:	00000096 	muleq	r0, r6, r0
 4a4:	040b0008 	streq	r0, [fp], #-8
 4a8:	00016008 	andeq	r6, r1, r8
 4ac:	14021c00 	strne	r1, [r2], #-3072	; 0xc00
 4b0:	000000f9 	strdeq	r0, [r0], -r9
 4b4:	0000140a 	andeq	r1, r0, sl, lsl #8
 4b8:	f9150200 			; <UNDEFINED> instruction: 0xf9150200
 4bc:	00000000 	andeq	r0, r0, r0
 4c0:	0000000a 	andeq	r0, r0, sl
 4c4:	96160200 	ldrls	r0, [r6], -r0, lsl #4
 4c8:	04000000 	streq	r0, [r0], #-0
 4cc:	0001530a 	andeq	r5, r1, sl, lsl #6
 4d0:	ff170200 			; <UNDEFINED> instruction: 0xff170200
 4d4:	08000000 	stmdaeq	r0, {}	; <UNPREDICTABLE>
 4d8:	0000e20a 	andeq	lr, r0, sl, lsl #4
 4dc:	55180200 	ldrpl	r0, [r8, #-512]	; 0x200
 4e0:	0c000000 	stceq	0, cr0, [r0], {-0}
 4e4:	0001740a 	andeq	r7, r1, sl, lsl #8
 4e8:	06190200 	ldreq	r0, [r9], -r0, lsl #4
 4ec:	10000001 	andne	r0, r0, r1
 4f0:	00014d0a 	andeq	r4, r1, sl, lsl #26
 4f4:	251a0200 	ldrcs	r0, [sl, #-512]	; 0x200
 4f8:	14000000 	strne	r0, [r0], #-0
 4fc:	0003eb0a 	andeq	lr, r3, sl, lsl #22
 500:	961b0200 	ldrls	r0, [fp], -r0, lsl #4
 504:	18000000 	stmdane	r0, {}	; <UNPREDICTABLE>
 508:	98040600 	stmdals	r4, {r9, sl}
 50c:	0c000000 	stceq	0, cr0, [r0], {-0}
 510:	01290704 	teqeq	r9, r4, lsl #14
 514:	04060000 	streq	r0, [r6], #-0
 518:	00000067 	andeq	r0, r0, r7, rrx
 51c:	0000ee08 	andeq	lr, r0, r8, lsl #28
 520:	1e020800 	cdpne	8, 0, cr0, cr2, cr0, {0}
 524:	00000131 	andeq	r0, r0, r1, lsr r1
 528:	0000d80a 	andeq	sp, r0, sl, lsl #16
 52c:	f91f0200 			; <UNDEFINED> instruction: 0xf91f0200
 530:	00000000 	andeq	r0, r0, r0
 534:	0001060a 	andeq	r0, r1, sl, lsl #12
 538:	f9200200 			; <UNDEFINED> instruction: 0xf9200200
 53c:	04000000 	streq	r0, [r0], #-0
 540:	025e0d00 	subseq	r0, lr, #0, 26
 544:	06010000 	streq	r0, [r1], -r0
 548:	000083ac 	andeq	r8, r0, ip, lsr #7
 54c:	00000054 	andeq	r0, r0, r4, asr r0
 550:	016f9c01 	cmneq	pc, r1, lsl #24
 554:	970e0000 	strls	r0, [lr, -r0]
 558:	01000002 	tsteq	r0, r2
 55c:	00010606 	andeq	r0, r1, r6, lsl #12
 560:	74910200 	ldrvc	r0, [r1], #512	; 0x200
 564:	0100660f 	tsteq	r0, pc, lsl #12
 568:	00005506 	andeq	r5, r0, r6, lsl #10
 56c:	70910200 	addsvc	r0, r1, r0, lsl #4
 570:	0002a50e 	andeq	sl, r2, lr, lsl #10
 574:	ff060100 			; <UNDEFINED> instruction: 0xff060100
 578:	02000000 	andeq	r0, r0, #0
 57c:	0d006c91 	stceq	12, cr6, [r0, #-580]	; 0xfffffdbc
 580:	000002c4 	andeq	r0, r0, r4, asr #5
 584:	84001901 	strhi	r1, [r0], #-2305	; 0x901
 588:	00780000 	rsbseq	r0, r8, r0
 58c:	9c010000 	stcls	0, cr0, [r1], {-0}
 590:	000001c9 	andeq	r0, r0, r9, asr #3
 594:	6263700f 	rsbvs	r7, r3, #15
 598:	f9190100 			; <UNDEFINED> instruction: 0xf9190100
 59c:	02000000 	andeq	r0, r0, #0
 5a0:	660f6c91 			; <UNDEFINED> instruction: 0x660f6c91
 5a4:	55190100 	ldrpl	r0, [r9, #-256]	; 0x100
 5a8:	02000000 	andeq	r0, r0, #0
 5ac:	a50e6891 	strge	r6, [lr, #-2193]	; 0x891
 5b0:	01000002 	tsteq	r0, r2
 5b4:	0000ff19 	andeq	pc, r0, r9, lsl pc	; <UNPREDICTABLE>
 5b8:	64910200 	ldrvs	r0, [r1], #512	; 0x200
 5bc:	0000040e 	andeq	r0, r0, lr, lsl #8
 5c0:	96190100 	ldrls	r0, [r9], -r0, lsl #2
 5c4:	02000000 	andeq	r0, r0, #0
 5c8:	63106091 	tstvs	r0, #145	; 0x91
 5cc:	01007874 	tsteq	r0, r4, ror r8
 5d0:	0001061d 	andeq	r0, r1, sp, lsl r6
 5d4:	74910200 	ldrvc	r0, [r1], #512	; 0x200
 5d8:	02cd0d00 	sbceq	r0, sp, #0, 26
 5dc:	23010000 	movwcs	r0, #4096	; 0x1000
 5e0:	00008478 	andeq	r8, r0, r8, ror r4
 5e4:	000000e8 	andeq	r0, r0, r8, ror #1
 5e8:	02159c01 	andseq	r9, r5, #256	; 0x100
 5ec:	660f0000 	strvs	r0, [pc], -r0
 5f0:	55230100 	strpl	r0, [r3, #-256]!	; 0x100
 5f4:	02000000 	andeq	r0, r0, #0
 5f8:	040e6c91 	streq	r6, [lr], #-3217	; 0xc91
 5fc:	01000000 	mrseq	r0, (UNDEF: 0)
 600:	00009623 	andeq	r9, r0, r3, lsr #12
 604:	68910200 	ldmvs	r1, {r9}
 608:	00029f0e 	andeq	r9, r2, lr, lsl #30
 60c:	ff230100 			; <UNDEFINED> instruction: 0xff230100
 610:	02000000 	andeq	r0, r0, #0
 614:	bc116491 	cfldrslt	mvf6, [r1], {145}	; 0x91
 618:	01000002 	tsteq	r0, r2
 61c:	0000f925 	andeq	pc, r0, r5, lsr #18
 620:	74910200 	ldrvc	r0, [r1], #512	; 0x200
 624:	02811200 	addeq	r1, r1, #0, 4
 628:	34010000 	strcc	r0, [r1], #-0
 62c:	00008560 	andeq	r8, r0, r0, ror #10
 630:	00000068 	andeq	r0, r0, r8, rrx
 634:	aa139c01 	bge	4e7640 <__bss_end+0x4de740>
 638:	01000002 	tsteq	r0, r2
 63c:	0085c83d 	addeq	ip, r5, sp, lsr r8
 640:	0000f000 	andeq	pc, r0, r0
 644:	589c0100 	ldmpl	ip, {r8}
 648:	11000002 	tstne	r0, r2
 64c:	0000023a 	andeq	r0, r0, sl, lsr r2
 650:	00f93e01 	rscseq	r3, r9, r1, lsl #28
 654:	91020000 	mrsls	r0, (UNDEF: 2)
 658:	6d741074 	ldclvs	0, cr1, [r4, #-464]!	; 0xfffffe30
 65c:	3f010070 	svccc	0x00010070
 660:	000000f9 	strdeq	r0, [r0], -r9
 664:	00709102 	rsbseq	r9, r0, r2, lsl #2
 668:	00027b14 	andeq	r7, r2, r4, lsl fp
 66c:	b85b0100 	ldmdalt	fp, {r8}^
 670:	34000086 	strcc	r0, [r0], #-134	; 0x86
 674:	01000000 	mrseq	r0, (UNDEF: 0)
 678:	0247129c 	subeq	r1, r7, #156, 4	; 0xc0000009
 67c:	61010000 	mrsvs	r0, (UNDEF: 1)
 680:	000086ec 	andeq	r8, r0, ip, ror #13
 684:	00000038 	andeq	r0, r0, r8, lsr r0
 688:	67139c01 	ldrvs	r9, [r3, -r1, lsl #24]
 68c:	01000002 	tsteq	r0, r2
 690:	00872467 	addeq	r2, r7, r7, ror #8
 694:	00018000 	andeq	r8, r1, r0
 698:	a89c0100 	ldmge	ip, {r8}
 69c:	15000002 	strne	r0, [r0, #-2]
 6a0:	000087c4 	andeq	r8, r0, r4, asr #15
 6a4:	00000044 	andeq	r0, r0, r4, asr #32
 6a8:	706d7410 	rsbvc	r7, sp, r0, lsl r4
 6ac:	f9750100 			; <UNDEFINED> instruction: 0xf9750100
 6b0:	02000000 	andeq	r0, r0, #0
 6b4:	00007491 	muleq	r0, r1, r4
 6b8:	00025313 	andeq	r5, r2, r3, lsl r3
 6bc:	a48e0100 	strge	r0, [lr], #256	; 0x100
 6c0:	14000088 	strne	r0, [r0], #-136	; 0x88
 6c4:	01000001 	tsteq	r0, r1
 6c8:	0002d59c 	muleq	r2, ip, r5
 6cc:	88d41500 	ldmhi	r4, {r8, sl, ip}^
 6d0:	00300000 	eorseq	r0, r0, r0
 6d4:	74100000 	ldrvc	r0, [r0], #-0
 6d8:	0100706d 	tsteq	r0, sp, rrx
 6dc:	0000f994 	muleq	r0, r4, r9
 6e0:	00540100 	subseq	r0, r4, r0, lsl #2
 6e4:	02871600 	addeq	r1, r7, #0, 12
 6e8:	23020000 	movwcs	r0, #8192	; 0x2000
 6ec:	000000f9 	strdeq	r0, [r0], -r9
 6f0:	8ef80305 	cdphi	3, 15, cr0, cr8, cr5, {0}
 6f4:	43170000 	tstmi	r7, #0
 6f8:	2402004c 	strcs	r0, [r2], #-76	; 0x4c
 6fc:	0000010c 	andeq	r0, r0, ip, lsl #2
 700:	8ef00305 	cdphi	3, 15, cr0, cr0, cr5, {0}
 704:	e4000000 	str	r0, [r0], #-0
 708:	04000001 	streq	r0, [r0], #-1
 70c:	0003ab00 	andeq	sl, r3, r0, lsl #22
 710:	25010400 	strcs	r0, [r1, #-1024]	; 0x400
 714:	01000000 	mrseq	r0, (UNDEF: 0)
 718:	0000032f 	andeq	r0, r0, pc, lsr #6
 71c:	0000017c 	andeq	r0, r0, ip, ror r1
 720:	000089b8 			; <UNDEFINED> instruction: 0x000089b8
 724:	000000b0 	strheq	r0, [r0], -r0	; <UNPREDICTABLE>
 728:	0000024d 	andeq	r0, r0, sp, asr #4
 72c:	00016e02 	andeq	r6, r1, r2, lsl #28
 730:	30050200 	andcc	r0, r5, r0, lsl #4
 734:	03000000 	movweq	r0, #0
 738:	0000016e 	andeq	r0, r0, lr, ror #2
 73c:	55050204 	strpl	r0, [r5, #-516]	; 0x204
 740:	04000000 	streq	r0, [r0], #-0
 744:	0057454e 	subseq	r4, r7, lr, asr #10
 748:	00cb0500 	sbceq	r0, fp, r0, lsl #10
 74c:	05010000 	streq	r0, [r1, #-0]
 750:	0000011b 	andeq	r0, r0, fp, lsl r1
 754:	00fb0502 	rscseq	r0, fp, r2, lsl #10
 758:	00030000 	andeq	r0, r3, r0
 75c:	00001d02 	andeq	r1, r0, r2, lsl #26
 760:	60070200 	andvs	r0, r7, r0, lsl #4
 764:	06000000 	streq	r0, [r0], -r0
 768:	00006604 	andeq	r6, r0, r4, lsl #12
 76c:	15080700 	strne	r0, [r8, #-1792]	; 0x700
 770:	0c000001 	stceq	0, cr0, [r0], {1}
 774:	00960e02 	addseq	r0, r6, r2, lsl #28
 778:	73090000 	movwvc	r0, #36864	; 0x9000
 77c:	0f020070 	svceq	0x00020070
 780:	00000096 	muleq	r0, r6, r0
 784:	63700900 	cmnvs	r0, #0, 18
 788:	96100200 	ldrls	r0, [r0], -r0, lsl #4
 78c:	04000000 	streq	r0, [r0], #-0
 790:	0001660a 	andeq	r6, r1, sl, lsl #12
 794:	96110200 	ldrls	r0, [r1], -r0, lsl #4
 798:	08000000 	stmdaeq	r0, {}	; <UNPREDICTABLE>
 79c:	08040b00 	stmdaeq	r4, {r8, r9, fp}
 7a0:	00000160 	andeq	r0, r0, r0, ror #2
 7a4:	f914021c 			; <UNDEFINED> instruction: 0xf914021c
 7a8:	0a000000 	beq	7b0 <_start-0x7850>
 7ac:	00000014 	andeq	r0, r0, r4, lsl r0
 7b0:	00f91502 	rscseq	r1, r9, r2, lsl #10
 7b4:	0a000000 	beq	7bc <_start-0x7844>
 7b8:	00000000 	andeq	r0, r0, r0
 7bc:	00961602 	addseq	r1, r6, r2, lsl #12
 7c0:	0a040000 	beq	1007c8 <__bss_end+0xf78c8>
 7c4:	00000153 	andeq	r0, r0, r3, asr r1
 7c8:	00ff1702 	rscseq	r1, pc, r2, lsl #14
 7cc:	0a080000 	beq	2007d4 <__bss_end+0x1f78d4>
 7d0:	000000e2 	andeq	r0, r0, r2, ror #1
 7d4:	00551802 	subseq	r1, r5, r2, lsl #16
 7d8:	0a0c0000 	beq	3007e0 <__bss_end+0x2f78e0>
 7dc:	00000174 	andeq	r0, r0, r4, ror r1
 7e0:	01061902 	tsteq	r6, r2, lsl #18
 7e4:	0a100000 	beq	4007ec <__bss_end+0x3f78ec>
 7e8:	0000014d 	andeq	r0, r0, sp, asr #2
 7ec:	00251a02 	eoreq	r1, r5, r2, lsl #20
 7f0:	0a140000 	beq	5007f8 <__bss_end+0x4f78f8>
 7f4:	000003eb 	andeq	r0, r0, fp, ror #7
 7f8:	00961b02 	addseq	r1, r6, r2, lsl #22
 7fc:	00180000 	andseq	r0, r8, r0
 800:	00980406 	addseq	r0, r8, r6, lsl #8
 804:	040c0000 	streq	r0, [ip], #-0
 808:	00012907 	andeq	r2, r1, r7, lsl #18
 80c:	67040600 	strvs	r0, [r4, -r0, lsl #12]
 810:	08000000 	stmdaeq	r0, {}	; <UNPREDICTABLE>
 814:	000000ee 	andeq	r0, r0, lr, ror #1
 818:	311e0208 	tstcc	lr, r8, lsl #4
 81c:	0a000001 	beq	828 <_start-0x77d8>
 820:	000000d8 	ldrdeq	r0, [r0], -r8
 824:	00f91f02 	rscseq	r1, r9, r2, lsl #30
 828:	0a000000 	beq	830 <_start-0x77d0>
 82c:	00000106 	andeq	r0, r0, r6, lsl #2
 830:	00f92002 	rscseq	r2, r9, r2
 834:	00040000 	andeq	r0, r4, r0
 838:	0003030d 	andeq	r0, r3, sp, lsl #6
 83c:	b8040100 	stmdalt	r4, {r8}
 840:	14000089 	strne	r0, [r0], #-137	; 0x89
 844:	01000000 	mrseq	r0, (UNDEF: 0)
 848:	02dc0e9c 	sbcseq	r0, ip, #156, 28	; 0x9c0
 84c:	09010000 	stmdbeq	r1, {}	; <UNPREDICTABLE>
 850:	000089cc 	andeq	r8, r0, ip, asr #19
 854:	00000028 	andeq	r0, r0, r8, lsr #32
 858:	01669c01 	cmneq	r6, r1, lsl #24
 85c:	190f0000 	stmdbne	pc, {}	; <UNPREDICTABLE>
 860:	01000003 	tsteq	r0, r3
 864:	0000ff09 	andeq	pc, r0, r9, lsl #30
 868:	74910200 	ldrvc	r0, [r1], #512	; 0x200
 86c:	02f30d00 	rscseq	r0, r3, #0, 26
 870:	0f010000 	svceq	0x00010000
 874:	000089f4 	strdeq	r8, [r0], -r4
 878:	00000004 	andeq	r0, r0, r4
 87c:	e5109c01 	ldr	r9, [r0, #-3073]	; 0xc01
 880:	01000002 	tsteq	r0, r2
 884:	0089f811 	addeq	pc, r9, r1, lsl r8	; <UNPREDICTABLE>
 888:	00002800 	andeq	r2, r0, r0, lsl #16
 88c:	9b9c0100 	blls	fe700c94 <__bss_end+0xfe6f7d94>
 890:	11000001 	tstne	r0, r1
 894:	00000319 	andeq	r0, r0, r9, lsl r3
 898:	00ff1201 	rscseq	r1, pc, r1, lsl #4
 89c:	91020000 	mrsls	r0, (UNDEF: 2)
 8a0:	0e12007c 	mrceq	0, 0, r0, cr2, cr12, {3}
 8a4:	01000003 	tsteq	r0, r3
 8a8:	008a2018 	addeq	r2, sl, r8, lsl r0
 8ac:	00004800 	andeq	r4, r0, r0, lsl #16
 8b0:	bf9c0100 	svclt	0x009c0100
 8b4:	11000001 	tstne	r0, r1
 8b8:	00000324 	andeq	r0, r0, r4, lsr #6
 8bc:	01bf1901 			; <UNDEFINED> instruction: 0x01bf1901
 8c0:	91020000 	mrsls	r0, (UNDEF: 2)
 8c4:	04130074 	ldreq	r0, [r3], #-116	; 0x74
 8c8:	746e6905 	strbtvc	r6, [lr], #-2309	; 0x905
 8cc:	02871400 	addeq	r1, r7, #0, 8
 8d0:	23020000 	movwcs	r0, #8192	; 0x2000
 8d4:	000000f9 	strdeq	r0, [r0], -r9
 8d8:	8ef80305 	cdphi	3, 15, cr0, cr8, cr5, {0}
 8dc:	43150000 	tstmi	r5, #0
 8e0:	2402004c 	strcs	r0, [r2], #-76	; 0x4c
 8e4:	0000010c 	andeq	r0, r0, ip, lsl #2
 8e8:	8ef00305 	cdphi	3, 15, cr0, cr0, cr5, {0}
 8ec:	9d000000 	stcls	0, cr0, [r0, #-0]
 8f0:	04000002 	streq	r0, [r0], #-2
 8f4:	0004e700 	andeq	lr, r4, r0, lsl #14
 8f8:	25010400 	strcs	r0, [r1, #-1024]	; 0x400
 8fc:	01000000 	mrseq	r0, (UNDEF: 0)
 900:	0000042c 	andeq	r0, r0, ip, lsr #8
 904:	0000017c 	andeq	r0, r0, ip, ror r1
 908:	00008a68 	andeq	r8, r0, r8, ror #20
 90c:	00000464 	andeq	r0, r0, r4, ror #8
 910:	000002a6 	andeq	r0, r0, r6, lsr #5
 914:	23070202 	movwcs	r0, #29186	; 0x7202
 918:	03000001 	movweq	r0, #1
 91c:	0000034a 	andeq	r0, r0, sl, asr #6
 920:	00370502 	eorseq	r0, r7, r2, lsl #10
 924:	04020000 	streq	r0, [r2], #-0
 928:	00012907 	andeq	r2, r1, r7, lsl #18
 92c:	03820300 	orreq	r0, r2, #0, 6
 930:	06020000 	streq	r0, [r2], -r0
 934:	00000049 	andeq	r0, r0, r9, asr #32
 938:	36080102 	strcc	r0, [r8], -r2, lsl #2
 93c:	03000001 	movweq	r0, #1
 940:	000003f3 	strdeq	r0, [r0], -r3
 944:	002c2e03 	eoreq	r2, ip, r3, lsl #28
 948:	d9030000 	stmdble	r3, {}	; <UNPREDICTABLE>
 94c:	03000003 	movweq	r0, #3
 950:	00003e2f 	andeq	r3, r0, pc, lsr #28
 954:	03930400 	orrseq	r0, r3, #0, 8
 958:	1c010000 	stcne	0, cr0, [r1], {-0}
 95c:	0000008c 	andeq	r0, r0, ip, lsl #1
 960:	00008a68 	andeq	r8, r0, r8, ror #20
 964:	000000d4 	ldrdeq	r0, [r0], -r4
 968:	008c9c01 	addeq	r9, ip, r1, lsl #24
 96c:	69050000 	stmdbvs	r5, {}	; <UNPREDICTABLE>
 970:	8c1e0100 	ldfhis	f0, [lr], {-0}
 974:	02000000 	andeq	r0, r0, #0
 978:	06007491 			; <UNDEFINED> instruction: 0x06007491
 97c:	6e690504 	cdpvs	5, 6, cr0, cr9, cr4, {0}
 980:	bf070074 	svclt	0x00070074
 984:	01000003 	tsteq	r0, r3
 988:	008b3c33 	addeq	r3, fp, r3, lsr ip
 98c:	00017800 	andeq	r7, r1, r0, lsl #16
 990:	0f9c0100 	svceq	0x009c0100
 994:	08000001 	stmdaeq	r0, {r0}
 998:	00000420 	andeq	r0, r0, r0, lsr #8
 99c:	010f3301 	tsteq	pc, r1, lsl #6
 9a0:	91020000 	mrsls	r0, (UNDEF: 2)
 9a4:	0069055c 	rsbeq	r0, r9, ip, asr r5
 9a8:	008c3801 	addeq	r3, ip, r1, lsl #16
 9ac:	91020000 	mrsls	r0, (UNDEF: 2)
 9b0:	8b540974 	blhi	1502f88 <__bss_end+0x14fa088>
 9b4:	00840000 	addeq	r0, r4, r0
 9b8:	00ea0000 	rsceq	r0, sl, r0
 9bc:	3c0a0000 	stccc	0, cr0, [sl], {-0}
 9c0:	01000004 	tsteq	r0, r4
 9c4:	00010f3b 	andeq	r0, r1, fp, lsr pc
 9c8:	68910200 	ldmvs	r1, {r9}
 9cc:	01006a05 	tsteq	r0, r5, lsl #20
 9d0:	00008c3e 	andeq	r8, r0, lr, lsr ip
 9d4:	70910200 	addsvc	r0, r1, r0, lsl #4
 9d8:	8bfc0b00 	blhi	fff035e0 <__bss_end+0xffefa6e0>
 9dc:	00900000 	addseq	r0, r0, r0
 9e0:	3c0a0000 	stccc	0, cr0, [sl], {-0}
 9e4:	01000004 	tsteq	r0, r4
 9e8:	00010f46 	andeq	r0, r1, r6, asr #30
 9ec:	64910200 	ldrvs	r0, [r1], #512	; 0x200
 9f0:	01006a05 	tsteq	r0, r5, lsl #20
 9f4:	00008c48 	andeq	r8, r0, r8, asr #24
 9f8:	6c910200 	lfmvs	f0, 4, [r1], {0}
 9fc:	040c0000 	streq	r0, [ip], #-0
 a00:	00000050 	andeq	r0, r0, r0, asr r0
 a04:	00041c0d 	andeq	r1, r4, sp, lsl #24
 a08:	0f500100 	svceq	0x00500100
 a0c:	b4000001 	strlt	r0, [r0], #-1
 a10:	fc00008c 	stc2	0, cr0, [r0], {140}	; 0x8c
 a14:	01000000 	mrseq	r0, (UNDEF: 0)
 a18:	00015d9c 	muleq	r1, ip, sp
 a1c:	00690500 	rsbeq	r0, r9, r0, lsl #10
 a20:	008c5201 	addeq	r5, ip, r1, lsl #4
 a24:	91020000 	mrsls	r0, (UNDEF: 2)
 a28:	006a057c 	rsbeq	r0, sl, ip, ror r5
 a2c:	008c5301 	addeq	r5, ip, r1, lsl #6
 a30:	91020000 	mrsls	r0, (UNDEF: 2)
 a34:	8d100b78 	vldrhi	d0, [r0, #-480]	; 0xfffffe20
 a38:	00540000 	subseq	r0, r4, r0
 a3c:	6b050000 	blvs	140a44 <__bss_end+0x137b44>
 a40:	8c5f0100 	ldfhie	f0, [pc], {-0}
 a44:	02000000 	andeq	r0, r0, #0
 a48:	00007491 	muleq	r0, r1, r4
 a4c:	0004380d 	andeq	r3, r4, sp, lsl #16
 a50:	0f6d0100 	svceq	0x006d0100
 a54:	b0000001 	andlt	r0, r0, r1
 a58:	8000008d 	andhi	r0, r0, sp, lsl #1
 a5c:	01000000 	mrseq	r0, (UNDEF: 0)
 a60:	0001839c 	muleq	r1, ip, r3
 a64:	00690500 	rsbeq	r0, r9, r0, lsl #10
 a68:	008c6f01 	addeq	r6, ip, r1, lsl #30
 a6c:	91020000 	mrsls	r0, (UNDEF: 2)
 a70:	510e007c 	tstpl	lr, ip, ror r0
 a74:	01000003 	tsteq	r0, r3
 a78:	008e30ad 	addeq	r3, lr, sp, lsr #1
 a7c:	00003000 	andeq	r3, r0, r0
 a80:	a69c0100 	ldrge	r0, [ip], r0, lsl #2
 a84:	0a000001 	beq	a90 <_start-0x7570>
 a88:	00000449 	andeq	r0, r0, r9, asr #8
 a8c:	0037af01 	eorseq	sl, r7, r1, lsl #30
 a90:	54010000 	strpl	r0, [r1], #-0
 a94:	03af0e00 			; <UNDEFINED> instruction: 0x03af0e00
 a98:	bc010000 	stclt	0, cr0, [r1], {-0}
 a9c:	00008e60 	andeq	r8, r0, r0, ror #28
 aa0:	00000040 	andeq	r0, r0, r0, asr #32
 aa4:	01c99c01 	biceq	r9, r9, r1, lsl #24
 aa8:	650a0000 	strvs	r0, [sl, #-0]
 aac:	01000003 	tsteq	r0, r3
 ab0:	000037be 			; <UNDEFINED> instruction: 0x000037be
 ab4:	00540100 	subseq	r0, r4, r0, lsl #2
 ab8:	0003880f 	andeq	r8, r3, pc, lsl #16
 abc:	f1cc0100 			; <UNDEFINED> instruction: 0xf1cc0100
 ac0:	a0000001 	andge	r0, r0, r1
 ac4:	1800008e 	stmdane	r0, {r1, r2, r3, r7}
 ac8:	01000000 	mrseq	r0, (UNDEF: 0)
 acc:	0001f19c 	muleq	r1, ip, r1
 ad0:	035d0800 	cmpeq	sp, #0, 16
 ad4:	cc010000 	stcgt	0, cr0, [r1], {-0}
 ad8:	00000037 	andeq	r0, r0, r7, lsr r0
 adc:	007c9102 	rsbseq	r9, ip, r2, lsl #2
 ae0:	005b040c 	subseq	r0, fp, ip, lsl #8
 ae4:	6d0e0000 	stcvs	0, cr0, [lr, #-0]
 ae8:	01000003 	tsteq	r0, r3
 aec:	008eb8d1 	ldrdeq	fp, [lr], r1
 af0:	00001400 	andeq	r1, r0, r0, lsl #8
 af4:	299c0100 	ldmibcs	ip, {r8}
 af8:	10000002 	andne	r0, r0, r2
 afc:	00727470 	rsbseq	r7, r2, r0, ror r4
 b00:	01f1d101 	mvnseq	sp, r1, lsl #2
 b04:	91020000 	mrsls	r0, (UNDEF: 2)
 b08:	035d087c 	cmpeq	sp, #124, 16	; 0x7c0000
 b0c:	d1010000 	mrsle	r0, (UNDEF: 1)
 b10:	00000037 	andeq	r0, r0, r7, lsr r0
 b14:	00789102 	rsbseq	r9, r8, r2, lsl #2
 b18:	00040f0a 	andeq	r0, r4, sl, lsl #30
 b1c:	50120100 	andspl	r0, r2, r0, lsl #2
 b20:	05000000 	streq	r0, [r0, #-0]
 b24:	008ee803 	addeq	lr, lr, r3, lsl #16
 b28:	03fc0a00 	mvnseq	r0, #0, 20
 b2c:	13010000 	movwne	r0, #4096	; 0x1000
 b30:	00000050 	andeq	r0, r0, r0, asr r0
 b34:	8eec0305 	cdphi	3, 14, cr0, cr12, cr5, {0}
 b38:	240a0000 	strcs	r0, [sl], #-0
 b3c:	01000004 	tsteq	r0, r4
 b40:	00005016 	andeq	r5, r0, r6, lsl r0
 b44:	d8030500 	stmdale	r3, {r8, sl}
 b48:	0a00008e 	beq	d88 <_start-0x7278>
 b4c:	00000339 	andeq	r0, r0, r9, lsr r3
 b50:	01f11701 	mvnseq	r1, r1, lsl #14
 b54:	03050000 	movweq	r0, #20480	; 0x5000
 b58:	00008edc 	ldrdeq	r8, [r0], -ip
 b5c:	0003770a 	andeq	r7, r3, sl, lsl #14
 b60:	f1180100 			; <UNDEFINED> instruction: 0xf1180100
 b64:	05000001 	streq	r0, [r0, #-1]
 b68:	008ee003 	addeq	lr, lr, r3
 b6c:	03e10a00 	mvneq	r0, #0, 20
 b70:	1a010000 	bne	40b78 <__bss_end+0x37c78>
 b74:	0000010f 	andeq	r0, r0, pc, lsl #2
 b78:	8ee40305 	cdphi	3, 14, cr0, cr4, cr5, {0}
 b7c:	09110000 	ldmdbeq	r1, {}	; <UNPREDICTABLE>
 b80:	01000004 	tsteq	r0, r4
 b84:	00005003 	andeq	r5, r0, r3
 b88:	fc030500 	stc2	5, cr0, [r3], {-0}
 b8c:	0000008e 	andeq	r0, r0, lr, lsl #1

Disassembly of section .debug_abbrev:

00000000 <.debug_abbrev>:
   0:	10001101 	andne	r1, r0, r1, lsl #2
   4:	12011106 	andne	r1, r1, #-2147483647	; 0x80000001
   8:	1b080301 	blne	200c14 <__bss_end+0x1f7d14>
   c:	13082508 	movwne	r2, #34056	; 0x8508
  10:	00000005 	andeq	r0, r0, r5
  14:	25011101 	strcs	r1, [r1, #-257]	; 0x101
  18:	030b130e 	movweq	r1, #45838	; 0xb30e
  1c:	110e1b0e 	tstne	lr, lr, lsl #22
  20:	10061201 	andne	r1, r6, r1, lsl #4
  24:	02000017 	andeq	r0, r0, #23
  28:	0e030016 	mcreq	0, 0, r0, cr3, cr6, {0}
  2c:	0b3b0b3a 	bleq	ec2d1c <__bss_end+0xeb9e1c>
  30:	00001349 	andeq	r1, r0, r9, asr #6
  34:	03010403 	movweq	r0, #5123	; 0x1403
  38:	3a0b0b0e 	bcc	2c2c78 <__bss_end+0x2b9d78>
  3c:	010b3b0b 	tsteq	fp, fp, lsl #22
  40:	04000013 	streq	r0, [r0], #-19
  44:	08030028 	stmdaeq	r3, {r3, r5}
  48:	00000d1c 	andeq	r0, r0, ip, lsl sp
  4c:	03002805 	movweq	r2, #2053	; 0x805
  50:	000d1c0e 	andeq	r1, sp, lr, lsl #24
  54:	000f0600 	andeq	r0, pc, r0, lsl #12
  58:	13490b0b 	movtne	r0, #39691	; 0x9b0b
  5c:	15070000 	strne	r0, [r7, #-0]
  60:	00192700 	andseq	r2, r9, r0, lsl #14
  64:	01130800 	tsteq	r3, r0, lsl #16
  68:	0b0b0e03 	bleq	2c387c <__bss_end+0x2ba97c>
  6c:	0b3b0b3a 	bleq	ec2d5c <__bss_end+0xeb9e5c>
  70:	00001301 	andeq	r1, r0, r1, lsl #6
  74:	03000d09 	movweq	r0, #3337	; 0xd09
  78:	3b0b3a08 	blcc	2ce8a0 <__bss_end+0x2c59a0>
  7c:	3813490b 	ldmdacc	r3, {r0, r1, r3, r8, fp, lr}
  80:	0a00000b 	beq	b4 <_start-0x7f4c>
  84:	0e03000d 	cdpeq	0, 0, cr0, cr3, cr13, {0}
  88:	0b3b0b3a 	bleq	ec2d78 <__bss_end+0xeb9e78>
  8c:	0b381349 	bleq	e04db8 <__bss_end+0xdfbeb8>
  90:	0f0b0000 	svceq	0x000b0000
  94:	000b0b00 	andeq	r0, fp, r0, lsl #22
  98:	00240c00 	eoreq	r0, r4, r0, lsl #24
  9c:	0b3e0b0b 	bleq	f82cd0 <__bss_end+0xf79dd0>
  a0:	00000e03 	andeq	r0, r0, r3, lsl #28
  a4:	3f012e0d 	svccc	0x00012e0d
  a8:	3a0e0319 	bcc	380d14 <__bss_end+0x377e14>
  ac:	110b3b0b 	tstne	fp, fp, lsl #22
  b0:	40061201 	andmi	r1, r6, r1, lsl #4
  b4:	19429718 	stmdbne	r2, {r3, r4, r8, r9, sl, ip, pc}^
  b8:	00001301 	andeq	r1, r0, r1, lsl #6
  bc:	0300340e 	movweq	r3, #1038	; 0x40e
  c0:	3b0b3a0e 	blcc	2ce900 <__bss_end+0x2c5a00>
  c4:	0213490b 	andseq	r4, r3, #180224	; 0x2c000
  c8:	0f000018 	svceq	0x00000018
  cc:	0b0b0024 	bleq	2c0164 <__bss_end+0x2b7264>
  d0:	08030b3e 	stmdaeq	r3, {r1, r2, r3, r4, r5, r8, r9, fp}
  d4:	2e100000 	cdpcs	0, 1, cr0, cr0, cr0, {0}
  d8:	03193f00 	tsteq	r9, #0, 30
  dc:	3b0b3a0e 	blcc	2ce91c <__bss_end+0x2c5a1c>
  e0:	4919270b 	ldmdbmi	r9, {r0, r1, r3, r8, r9, sl, sp}
  e4:	12011113 	andne	r1, r1, #-1073741820	; 0xc0000004
  e8:	96184006 	ldrls	r4, [r8], -r6
  ec:	00001942 	andeq	r1, r0, r2, asr #18
  f0:	03003411 	movweq	r3, #1041	; 0x411
  f4:	3b0b3a0e 	blcc	2ce934 <__bss_end+0x2c5a34>
  f8:	3f13490b 	svccc	0x0013490b
  fc:	00180219 	andseq	r0, r8, r9, lsl r2
 100:	00341200 	eorseq	r1, r4, r0, lsl #4
 104:	0b3a0803 	bleq	e82118 <__bss_end+0xe79218>
 108:	13490b3b 	movtne	r0, #39739	; 0x9b3b
 10c:	1802193f 	stmdane	r2, {r0, r1, r2, r3, r4, r5, r8, fp, ip}
 110:	01000000 	mrseq	r0, (UNDEF: 0)
 114:	0e250111 	mcreq	1, 1, r0, cr5, cr1, {0}
 118:	0e030b13 	vmoveq.32	d3[0], r0
 11c:	01110e1b 	tsteq	r1, fp, lsl lr
 120:	17100612 			; <UNDEFINED> instruction: 0x17100612
 124:	13020000 	movwne	r0, #8192	; 0x2000
 128:	0b080301 	bleq	200d34 <__bss_end+0x1f7e34>
 12c:	3b0b3a0b 	blcc	2ce960 <__bss_end+0x2c5a60>
 130:	0013010b 	andseq	r0, r3, fp, lsl #2
 134:	000d0300 	andeq	r0, sp, r0, lsl #6
 138:	0b3a0e03 	bleq	e8394c <__bss_end+0xe7aa4c>
 13c:	13490b3b 	movtne	r0, #39739	; 0x9b3b
 140:	00000b38 	andeq	r0, r0, r8, lsr fp
 144:	0b000f04 	bleq	3d5c <_start-0x42a4>
 148:	0013490b 	andseq	r4, r3, fp, lsl #18
 14c:	00240500 	eoreq	r0, r4, r0, lsl #10
 150:	0b3e0b0b 	bleq	f82d84 <__bss_end+0xf79e84>
 154:	00000e03 	andeq	r0, r0, r3, lsl #28
 158:	3f012e06 	svccc	0x00012e06
 15c:	3a0e0319 	bcc	380dc8 <__bss_end+0x377ec8>
 160:	270b3b0b 	strcs	r3, [fp, -fp, lsl #22]
 164:	11134919 	tstne	r3, r9, lsl r9
 168:	40061201 	andmi	r1, r6, r1, lsl #4
 16c:	19429718 	stmdbne	r2, {r3, r4, r8, r9, sl, ip, pc}^
 170:	00001301 	andeq	r1, r0, r1, lsl #6
 174:	03000507 	movweq	r0, #1287	; 0x507
 178:	3b0b3a0e 	blcc	2ce9b8 <__bss_end+0x2c5ab8>
 17c:	0213490b 	andseq	r4, r3, #180224	; 0x2c000
 180:	08000018 	stmdaeq	r0, {r3, r4}
 184:	08030034 	stmdaeq	r3, {r2, r4, r5}
 188:	0b3b0b3a 	bleq	ec2e78 <__bss_end+0xeb9f78>
 18c:	18021349 	stmdane	r2, {r0, r3, r6, r8, r9, ip}
 190:	34090000 	strcc	r0, [r9], #-0
 194:	3a0e0300 	bcc	380d9c <__bss_end+0x377e9c>
 198:	490b3b0b 	stmdbmi	fp, {r0, r1, r3, r8, r9, fp, ip, sp}
 19c:	00180213 	andseq	r0, r8, r3, lsl r2
 1a0:	000f0a00 	andeq	r0, pc, r0, lsl #20
 1a4:	00000b0b 	andeq	r0, r0, fp, lsl #22
 1a8:	3f012e0b 	svccc	0x00012e0b
 1ac:	3a0e0319 	bcc	380e18 <__bss_end+0x377f18>
 1b0:	270b3b0b 	strcs	r3, [fp, -fp, lsl #22]
 1b4:	12011119 	andne	r1, r1, #1073741830	; 0x40000006
 1b8:	97184006 	ldrls	r4, [r8, -r6]
 1bc:	13011942 	movwne	r1, #6466	; 0x1942
 1c0:	050c0000 	streq	r0, [ip, #-0]
 1c4:	3a080300 	bcc	200dcc <__bss_end+0x1f7ecc>
 1c8:	490b3b0b 	stmdbmi	fp, {r0, r1, r3, r8, r9, fp, ip, sp}
 1cc:	00180213 	andseq	r0, r8, r3, lsl r2
 1d0:	00340d00 	eorseq	r0, r4, r0, lsl #26
 1d4:	0b3a0e03 	bleq	e839e8 <__bss_end+0xe7aae8>
 1d8:	13490b3b 	movtne	r0, #39739	; 0x9b3b
 1dc:	1802193f 	stmdane	r2, {r0, r1, r2, r3, r4, r5, r8, fp, ip}
 1e0:	01000000 	mrseq	r0, (UNDEF: 0)
 1e4:	0e250111 	mcreq	1, 1, r0, cr5, cr1, {0}
 1e8:	0e030b13 	vmoveq.32	d3[0], r0
 1ec:	01110e1b 	tsteq	r1, fp, lsl lr
 1f0:	17100612 			; <UNDEFINED> instruction: 0x17100612
 1f4:	24020000 	strcs	r0, [r2], #-0
 1f8:	3e0b0b00 	vmlacc.f64	d0, d11, d0
 1fc:	000e030b 	andeq	r0, lr, fp, lsl #6
 200:	012e0300 	teqeq	lr, r0, lsl #6
 204:	0e03193f 	mcreq	9, 0, r1, cr3, cr15, {1}
 208:	0b3b0b3a 	bleq	ec2ef8 <__bss_end+0xeb9ff8>
 20c:	06120111 			; <UNDEFINED> instruction: 0x06120111
 210:	42961840 	addsmi	r1, r6, #64, 16	; 0x400000
 214:	00130119 	andseq	r0, r3, r9, lsl r1
 218:	00340400 	eorseq	r0, r4, r0, lsl #8
 21c:	0b3a0803 	bleq	e82230 <__bss_end+0xe79330>
 220:	13490b3b 	movtne	r0, #39739	; 0x9b3b
 224:	00001802 	andeq	r1, r0, r2, lsl #16
 228:	3f002e05 	svccc	0x00002e05
 22c:	3a0e0319 	bcc	380e98 <__bss_end+0x377f98>
 230:	110b3b0b 	tstne	fp, fp, lsl #22
 234:	40061201 	andmi	r1, r6, r1, lsl #4
 238:	19429618 	stmdbne	r2, {r3, r4, r9, sl, ip, pc}^
 23c:	2e060000 	cdpcs	0, 0, cr0, cr6, cr0, {0}
 240:	03193f01 	tsteq	r9, #1, 30
 244:	3b0b3a0e 	blcc	2cea84 <__bss_end+0x2c5b84>
 248:	1201110b 	andne	r1, r1, #-1073741822	; 0xc0000002
 24c:	96184006 	ldrls	r4, [r8], -r6
 250:	00001942 	andeq	r1, r0, r2, asr #18
 254:	01110100 	tsteq	r1, r0, lsl #2
 258:	0b130e25 	bleq	4c3af4 <__bss_end+0x4babf4>
 25c:	0e1b0e03 	cdpeq	14, 1, cr0, cr11, cr3, {0}
 260:	06120111 			; <UNDEFINED> instruction: 0x06120111
 264:	00001710 	andeq	r1, r0, r0, lsl r7
 268:	03001602 	movweq	r1, #1538	; 0x602
 26c:	3b0b3a0e 	blcc	2ceaac <__bss_end+0x2c5bac>
 270:	0013490b 	andseq	r4, r3, fp, lsl #18
 274:	01040300 	mrseq	r0, LR_abt
 278:	0b0b0e03 	bleq	2c3a8c <__bss_end+0x2bab8c>
 27c:	0b3b0b3a 	bleq	ec2f6c <__bss_end+0xeba06c>
 280:	00001301 	andeq	r1, r0, r1, lsl #6
 284:	03002804 	movweq	r2, #2052	; 0x804
 288:	000d1c08 	andeq	r1, sp, r8, lsl #24
 28c:	00280500 	eoreq	r0, r8, r0, lsl #10
 290:	0d1c0e03 	ldceq	14, cr0, [ip, #-12]
 294:	0f060000 	svceq	0x00060000
 298:	490b0b00 	stmdbmi	fp, {r8, r9, fp}
 29c:	07000013 	smladeq	r0, r3, r0, r0
 2a0:	19270015 	stmdbne	r7!, {r0, r2, r4}
 2a4:	13080000 	movwne	r0, #32768	; 0x8000
 2a8:	0b0e0301 	bleq	380eb4 <__bss_end+0x377fb4>
 2ac:	3b0b3a0b 	blcc	2ceae0 <__bss_end+0x2c5be0>
 2b0:	0013010b 	andseq	r0, r3, fp, lsl #2
 2b4:	000d0900 	andeq	r0, sp, r0, lsl #18
 2b8:	0b3a0803 	bleq	e822cc <__bss_end+0xe793cc>
 2bc:	13490b3b 	movtne	r0, #39739	; 0x9b3b
 2c0:	00000b38 	andeq	r0, r0, r8, lsr fp
 2c4:	03000d0a 	movweq	r0, #3338	; 0xd0a
 2c8:	3b0b3a0e 	blcc	2ceb08 <__bss_end+0x2c5c08>
 2cc:	3813490b 	ldmdacc	r3, {r0, r1, r3, r8, fp, lr}
 2d0:	0b00000b 	bleq	304 <_start-0x7cfc>
 2d4:	0b0b000f 	bleq	2c0318 <__bss_end+0x2b7418>
 2d8:	240c0000 	strcs	r0, [ip], #-0
 2dc:	3e0b0b00 	vmlacc.f64	d0, d11, d0
 2e0:	000e030b 	andeq	r0, lr, fp, lsl #6
 2e4:	012e0d00 	teqeq	lr, r0, lsl #26
 2e8:	0e03193f 	mcreq	9, 0, r1, cr3, cr15, {1}
 2ec:	0b3b0b3a 	bleq	ec2fdc <__bss_end+0xeba0dc>
 2f0:	01111927 	tsteq	r1, r7, lsr #18
 2f4:	18400612 	stmdane	r0, {r1, r4, r9, sl}^
 2f8:	01194296 			; <UNDEFINED> instruction: 0x01194296
 2fc:	0e000013 	mcreq	0, 0, r0, cr0, cr3, {0}
 300:	0e030005 	cdpeq	0, 0, cr0, cr3, cr5, {0}
 304:	0b3b0b3a 	bleq	ec2ff4 <__bss_end+0xeba0f4>
 308:	18021349 	stmdane	r2, {r0, r3, r6, r8, r9, ip}
 30c:	050f0000 	streq	r0, [pc, #-0]	; 314 <_start-0x7cec>
 310:	3a080300 	bcc	200f18 <__bss_end+0x1f8018>
 314:	490b3b0b 	stmdbmi	fp, {r0, r1, r3, r8, r9, fp, ip, sp}
 318:	00180213 	andseq	r0, r8, r3, lsl r2
 31c:	00341000 	eorseq	r1, r4, r0
 320:	0b3a0803 	bleq	e82334 <__bss_end+0xe79434>
 324:	13490b3b 	movtne	r0, #39739	; 0x9b3b
 328:	00001802 	andeq	r1, r0, r2, lsl #16
 32c:	03003411 	movweq	r3, #1041	; 0x411
 330:	3b0b3a0e 	blcc	2ceb70 <__bss_end+0x2c5c70>
 334:	0213490b 	andseq	r4, r3, #180224	; 0x2c000
 338:	12000018 	andne	r0, r0, #24
 33c:	193f002e 	ldmdbne	pc!, {r1, r2, r3, r5}	; <UNPREDICTABLE>
 340:	0b3a0e03 	bleq	e83b54 <__bss_end+0xe7ac54>
 344:	01110b3b 	tsteq	r1, fp, lsr fp
 348:	18400612 	stmdane	r0, {r1, r4, r9, sl}^
 34c:	00194296 	mulseq	r9, r6, r2
 350:	012e1300 	teqeq	lr, r0, lsl #6
 354:	0e03193f 	mcreq	9, 0, r1, cr3, cr15, {1}
 358:	0b3b0b3a 	bleq	ec3048 <__bss_end+0xeba148>
 35c:	06120111 			; <UNDEFINED> instruction: 0x06120111
 360:	42961840 	addsmi	r1, r6, #64, 16	; 0x400000
 364:	00130119 	andseq	r0, r3, r9, lsl r1
 368:	002e1400 	eoreq	r1, lr, r0, lsl #8
 36c:	0e03193f 	mcreq	9, 0, r1, cr3, cr15, {1}
 370:	0b3b0b3a 	bleq	ec3060 <__bss_end+0xeba160>
 374:	06120111 			; <UNDEFINED> instruction: 0x06120111
 378:	42971840 	addsmi	r1, r7, #64, 16	; 0x400000
 37c:	15000019 	strne	r0, [r0, #-25]
 380:	0111010b 	tsteq	r1, fp, lsl #2
 384:	00000612 	andeq	r0, r0, r2, lsl r6
 388:	03003416 	movweq	r3, #1046	; 0x416
 38c:	3b0b3a0e 	blcc	2cebcc <__bss_end+0x2c5ccc>
 390:	3f13490b 	svccc	0x0013490b
 394:	00180219 	andseq	r0, r8, r9, lsl r2
 398:	00341700 	eorseq	r1, r4, r0, lsl #14
 39c:	0b3a0803 	bleq	e823b0 <__bss_end+0xe794b0>
 3a0:	13490b3b 	movtne	r0, #39739	; 0x9b3b
 3a4:	1802193f 	stmdane	r2, {r0, r1, r2, r3, r4, r5, r8, fp, ip}
 3a8:	01000000 	mrseq	r0, (UNDEF: 0)
 3ac:	0e250111 	mcreq	1, 1, r0, cr5, cr1, {0}
 3b0:	0e030b13 	vmoveq.32	d3[0], r0
 3b4:	01110e1b 	tsteq	r1, fp, lsl lr
 3b8:	17100612 			; <UNDEFINED> instruction: 0x17100612
 3bc:	16020000 	strne	r0, [r2], -r0
 3c0:	3a0e0300 	bcc	380fc8 <__bss_end+0x3780c8>
 3c4:	490b3b0b 	stmdbmi	fp, {r0, r1, r3, r8, r9, fp, ip, sp}
 3c8:	03000013 	movweq	r0, #19
 3cc:	0e030104 	adfeqs	f0, f3, f4
 3d0:	0b3a0b0b 	bleq	e83004 <__bss_end+0xe7a104>
 3d4:	13010b3b 	movwne	r0, #6971	; 0x1b3b
 3d8:	28040000 	stmdacs	r4, {}	; <UNPREDICTABLE>
 3dc:	1c080300 	stcne	3, cr0, [r8], {-0}
 3e0:	0500000d 	streq	r0, [r0, #-13]
 3e4:	0e030028 	cdpeq	0, 0, cr0, cr3, cr8, {1}
 3e8:	00000d1c 	andeq	r0, r0, ip, lsl sp
 3ec:	0b000f06 	bleq	400c <_start-0x3ff4>
 3f0:	0013490b 	andseq	r4, r3, fp, lsl #18
 3f4:	00150700 	andseq	r0, r5, r0, lsl #14
 3f8:	00001927 	andeq	r1, r0, r7, lsr #18
 3fc:	03011308 	movweq	r1, #4872	; 0x1308
 400:	3a0b0b0e 	bcc	2c3040 <__bss_end+0x2ba140>
 404:	010b3b0b 	tsteq	fp, fp, lsl #22
 408:	09000013 	stmdbeq	r0, {r0, r1, r4}
 40c:	0803000d 	stmdaeq	r3, {r0, r2, r3}
 410:	0b3b0b3a 	bleq	ec3100 <__bss_end+0xeba200>
 414:	0b381349 	bleq	e05140 <__bss_end+0xdfc240>
 418:	0d0a0000 	stceq	0, cr0, [sl, #-0]
 41c:	3a0e0300 	bcc	381024 <__bss_end+0x378124>
 420:	490b3b0b 	stmdbmi	fp, {r0, r1, r3, r8, r9, fp, ip, sp}
 424:	000b3813 	andeq	r3, fp, r3, lsl r8
 428:	000f0b00 	andeq	r0, pc, r0, lsl #22
 42c:	00000b0b 	andeq	r0, r0, fp, lsl #22
 430:	0b00240c 	bleq	9468 <__bss_end+0x568>
 434:	030b3e0b 	movweq	r3, #48651	; 0xbe0b
 438:	0d00000e 	stceq	0, cr0, [r0, #-56]	; 0xffffffc8
 43c:	193f002e 	ldmdbne	pc!, {r1, r2, r3, r5}	; <UNPREDICTABLE>
 440:	0b3a0e03 	bleq	e83c54 <__bss_end+0xe7ad54>
 444:	01110b3b 	tsteq	r1, fp, lsr fp
 448:	18400612 	stmdane	r0, {r1, r4, r9, sl}^
 44c:	00194297 	mulseq	r9, r7, r2
 450:	012e0e00 	teqeq	lr, r0, lsl #28
 454:	0e03193f 	mcreq	9, 0, r1, cr3, cr15, {1}
 458:	0b3b0b3a 	bleq	ec3148 <__bss_end+0xeba248>
 45c:	01111927 	tsteq	r1, r7, lsr #18
 460:	18400612 	stmdane	r0, {r1, r4, r9, sl}^
 464:	01194297 			; <UNDEFINED> instruction: 0x01194297
 468:	0f000013 	svceq	0x00000013
 46c:	0e030005 	cdpeq	0, 0, cr0, cr3, cr5, {0}
 470:	0b3b0b3a 	bleq	ec3160 <__bss_end+0xeba260>
 474:	18021349 	stmdane	r2, {r0, r3, r6, r8, r9, ip}
 478:	2e100000 	cdpcs	0, 1, cr0, cr0, cr0, {0}
 47c:	03193f01 	tsteq	r9, #1, 30
 480:	3b0b3a0e 	blcc	2cecc0 <__bss_end+0x2c5dc0>
 484:	1201110b 	andne	r1, r1, #-1073741822	; 0xc0000002
 488:	97184006 	ldrls	r4, [r8, -r6]
 48c:	13011942 	movwne	r1, #6466	; 0x1942
 490:	34110000 	ldrcc	r0, [r1], #-0
 494:	3a0e0300 	bcc	38109c <__bss_end+0x37819c>
 498:	490b3b0b 	stmdbmi	fp, {r0, r1, r3, r8, r9, fp, ip, sp}
 49c:	00180213 	andseq	r0, r8, r3, lsl r2
 4a0:	012e1200 	teqeq	lr, r0, lsl #4
 4a4:	0e03193f 	mcreq	9, 0, r1, cr3, cr15, {1}
 4a8:	0b3b0b3a 	bleq	ec3198 <__bss_end+0xeba298>
 4ac:	06120111 			; <UNDEFINED> instruction: 0x06120111
 4b0:	42961840 	addsmi	r1, r6, #64, 16	; 0x400000
 4b4:	00130119 	andseq	r0, r3, r9, lsl r1
 4b8:	00241300 	eoreq	r1, r4, r0, lsl #6
 4bc:	0b3e0b0b 	bleq	f830f0 <__bss_end+0xf7a1f0>
 4c0:	00000803 	andeq	r0, r0, r3, lsl #16
 4c4:	03003414 	movweq	r3, #1044	; 0x414
 4c8:	3b0b3a0e 	blcc	2ced08 <__bss_end+0x2c5e08>
 4cc:	3f13490b 	svccc	0x0013490b
 4d0:	00180219 	andseq	r0, r8, r9, lsl r2
 4d4:	00341500 	eorseq	r1, r4, r0, lsl #10
 4d8:	0b3a0803 	bleq	e824ec <__bss_end+0xe795ec>
 4dc:	13490b3b 	movtne	r0, #39739	; 0x9b3b
 4e0:	1802193f 	stmdane	r2, {r0, r1, r2, r3, r4, r5, r8, fp, ip}
 4e4:	01000000 	mrseq	r0, (UNDEF: 0)
 4e8:	0e250111 	mcreq	1, 1, r0, cr5, cr1, {0}
 4ec:	0e030b13 	vmoveq.32	d3[0], r0
 4f0:	01110e1b 	tsteq	r1, fp, lsl lr
 4f4:	17100612 			; <UNDEFINED> instruction: 0x17100612
 4f8:	24020000 	strcs	r0, [r2], #-0
 4fc:	3e0b0b00 	vmlacc.f64	d0, d11, d0
 500:	000e030b 	andeq	r0, lr, fp, lsl #6
 504:	00160300 	andseq	r0, r6, r0, lsl #6
 508:	0b3a0e03 	bleq	e83d1c <__bss_end+0xe7ae1c>
 50c:	13490b3b 	movtne	r0, #39739	; 0x9b3b
 510:	2e040000 	cdpcs	0, 0, cr0, cr4, cr0, {0}
 514:	03193f01 	tsteq	r9, #1, 30
 518:	3b0b3a0e 	blcc	2ced58 <__bss_end+0x2c5e58>
 51c:	4919270b 	ldmdbmi	r9, {r0, r1, r3, r8, r9, sl, sp}
 520:	12011113 	andne	r1, r1, #-1073741820	; 0xc0000004
 524:	96184006 	ldrls	r4, [r8], -r6
 528:	13011942 	movwne	r1, #6466	; 0x1942
 52c:	34050000 	strcc	r0, [r5], #-0
 530:	3a080300 	bcc	201138 <__bss_end+0x1f8238>
 534:	490b3b0b 	stmdbmi	fp, {r0, r1, r3, r8, r9, fp, ip, sp}
 538:	00180213 	andseq	r0, r8, r3, lsl r2
 53c:	00240600 	eoreq	r0, r4, r0, lsl #12
 540:	0b3e0b0b 	bleq	f83174 <__bss_end+0xf7a274>
 544:	00000803 	andeq	r0, r0, r3, lsl #16
 548:	3f012e07 	svccc	0x00012e07
 54c:	3a0e0319 	bcc	3811b8 <__bss_end+0x3782b8>
 550:	270b3b0b 	strcs	r3, [fp, -fp, lsl #22]
 554:	12011119 	andne	r1, r1, #1073741830	; 0x40000006
 558:	96184006 	ldrls	r4, [r8], -r6
 55c:	13011942 	movwne	r1, #6466	; 0x1942
 560:	05080000 	streq	r0, [r8, #-0]
 564:	3a0e0300 	bcc	38116c <__bss_end+0x37826c>
 568:	490b3b0b 	stmdbmi	fp, {r0, r1, r3, r8, r9, fp, ip, sp}
 56c:	00180213 	andseq	r0, r8, r3, lsl r2
 570:	010b0900 	tsteq	fp, r0, lsl #18
 574:	06120111 			; <UNDEFINED> instruction: 0x06120111
 578:	00001301 	andeq	r1, r0, r1, lsl #6
 57c:	0300340a 	movweq	r3, #1034	; 0x40a
 580:	3b0b3a0e 	blcc	2cedc0 <__bss_end+0x2c5ec0>
 584:	0213490b 	andseq	r4, r3, #180224	; 0x2c000
 588:	0b000018 	bleq	5f0 <_start-0x7a10>
 58c:	0111010b 	tsteq	r1, fp, lsl #2
 590:	00000612 	andeq	r0, r0, r2, lsl r6
 594:	0b000f0c 	bleq	41cc <_start-0x3e34>
 598:	0013490b 	andseq	r4, r3, fp, lsl #18
 59c:	012e0d00 	teqeq	lr, r0, lsl #26
 5a0:	0e03193f 	mcreq	9, 0, r1, cr3, cr15, {1}
 5a4:	0b3b0b3a 	bleq	ec3294 <__bss_end+0xeba394>
 5a8:	01111349 	tsteq	r1, r9, asr #6
 5ac:	18400612 	stmdane	r0, {r1, r4, r9, sl}^
 5b0:	01194297 			; <UNDEFINED> instruction: 0x01194297
 5b4:	0e000013 	mcreq	0, 0, r0, cr0, cr3, {0}
 5b8:	193f012e 	ldmdbne	pc!, {r1, r2, r3, r5, r8}	; <UNPREDICTABLE>
 5bc:	0b3a0e03 	bleq	e83dd0 <__bss_end+0xe7aed0>
 5c0:	19270b3b 	stmdbne	r7!, {r0, r1, r3, r4, r5, r8, r9, fp}
 5c4:	06120111 			; <UNDEFINED> instruction: 0x06120111
 5c8:	42971840 	addsmi	r1, r7, #64, 16	; 0x400000
 5cc:	00130119 	andseq	r0, r3, r9, lsl r1
 5d0:	012e0f00 	teqeq	lr, r0, lsl #30
 5d4:	0e03193f 	mcreq	9, 0, r1, cr3, cr15, {1}
 5d8:	0b3b0b3a 	bleq	ec32c8 <__bss_end+0xeba3c8>
 5dc:	13491927 	movtne	r1, #39207	; 0x9927
 5e0:	06120111 			; <UNDEFINED> instruction: 0x06120111
 5e4:	42971840 	addsmi	r1, r7, #64, 16	; 0x400000
 5e8:	00130119 	andseq	r0, r3, r9, lsl r1
 5ec:	00051000 	andeq	r1, r5, r0
 5f0:	0b3a0803 	bleq	e82604 <__bss_end+0xe79704>
 5f4:	13490b3b 	movtne	r0, #39739	; 0x9b3b
 5f8:	00001802 	andeq	r1, r0, r2, lsl #16
 5fc:	03003411 	movweq	r3, #1041	; 0x411
 600:	3b0b3a0e 	blcc	2cee40 <__bss_end+0x2c5f40>
 604:	3f13490b 	svccc	0x0013490b
 608:	00180219 	andseq	r0, r8, r9, lsl r2
	...

Disassembly of section .debug_aranges:

00000000 <.debug_aranges>:
   0:	0000001c 	andeq	r0, r0, ip, lsl r0
   4:	00000002 	andeq	r0, r0, r2
   8:	00040000 	andeq	r0, r4, r0
   c:	00000000 	andeq	r0, r0, r0
  10:	00008000 	andeq	r8, r0, r0
  14:	000000d0 	ldrdeq	r0, [r0], -r0	; <UNPREDICTABLE>
	...
  20:	0000001c 	andeq	r0, r0, ip, lsl r0
  24:	00510002 	subseq	r0, r1, r2
  28:	00040000 	andeq	r0, r4, r0
  2c:	00000000 	andeq	r0, r0, r0
  30:	000080d0 	ldrdeq	r8, [r0], -r0
  34:	00000068 	andeq	r0, r0, r8, rrx
	...
  40:	0000001c 	andeq	r0, r0, ip, lsl r0
  44:	02160002 	andseq	r0, r6, #2
  48:	00040000 	andeq	r0, r4, r0
  4c:	00000000 	andeq	r0, r0, r0
  50:	00008138 	andeq	r8, r0, r8, lsr r1
  54:	00000138 	andeq	r0, r0, r8, lsr r1
	...
  60:	0000001c 	andeq	r0, r0, ip, lsl r0
  64:	03640002 	cmneq	r4, #2
  68:	00040000 	andeq	r0, r4, r0
  6c:	00000000 	andeq	r0, r0, r0
  70:	00008270 	andeq	r8, r0, r0, ror r2
  74:	0000013c 	andeq	r0, r0, ip, lsr r1
	...
  80:	0000001c 	andeq	r0, r0, ip, lsl r0
  84:	04100002 	ldreq	r0, [r0], #-2
  88:	00040000 	andeq	r0, r4, r0
  8c:	00000000 	andeq	r0, r0, r0
  90:	000083ac 	andeq	r8, r0, ip, lsr #7
  94:	0000060c 	andeq	r0, r0, ip, lsl #12
	...
  a0:	0000001c 	andeq	r0, r0, ip, lsl r0
  a4:	07070002 	streq	r0, [r7, -r2]
  a8:	00040000 	andeq	r0, r4, r0
  ac:	00000000 	andeq	r0, r0, r0
  b0:	000089b8 			; <UNDEFINED> instruction: 0x000089b8
  b4:	000000b0 	strheq	r0, [r0], -r0	; <UNPREDICTABLE>
	...
  c0:	0000001c 	andeq	r0, r0, ip, lsl r0
  c4:	08ef0002 	stmiaeq	pc!, {r1}^	; <UNPREDICTABLE>
  c8:	00040000 	andeq	r0, r4, r0
  cc:	00000000 	andeq	r0, r0, r0
  d0:	00008a68 	andeq	r8, r0, r8, ror #20
  d4:	00000464 	andeq	r0, r0, r4, ror #8
	...

Disassembly of section .debug_str:

00000000 <.debug_str>:
   0:	5f626370 	svcpl	0x00626370
   4:	73677261 	cmnvc	r7, #268435462	; 0x10000006
   8:	616d6b00 	cmnvs	sp, r0, lsl #22
   c:	63006e69 	movwvs	r6, #3689	; 0xe69
  10:	00427470 	subeq	r7, r2, r0, ror r4
  14:	7478656e 	ldrbtvc	r6, [r8], #-1390	; 0x56e
  18:	6263705f 	rsbvs	r7, r3, #95	; 0x5f
  1c:	6e756600 	cdpvs	6, 7, cr6, cr5, cr0, {0}
  20:	745f7463 	ldrbvc	r7, [pc], #-1123	; 28 <_start-0x7fd8>
  24:	554e4700 	strbpl	r4, [lr, #-1792]	; 0x700
  28:	34204320 	strtcc	r4, [r0], #-800	; 0x320
  2c:	342e382e 	strtcc	r3, [lr], #-2094	; 0x82e
  30:	31303220 	teqcc	r0, r0, lsr #4
  34:	32373034 	eorscc	r3, r7, #52	; 0x34
  38:	72282035 	eorvc	r2, r8, #53	; 0x35
  3c:	61656c65 	cmnvs	r5, r5, ror #24
  40:	20296573 	eorcs	r6, r9, r3, ror r5
  44:	4d52415b 	ldfmie	f4, [r2, #-364]	; 0xfffffe94
  48:	626d652f 	rsbvs	r6, sp, #197132288	; 0xbc00000
  4c:	65646465 	strbvs	r6, [r4, #-1125]!	; 0x465
  50:	5f342d64 	svcpl	0x00342d64
  54:	72622d38 	rsbvc	r2, r2, #56, 26	; 0xe00
  58:	68636e61 	stmdavs	r3!, {r0, r5, r6, r9, sl, fp, sp, lr}^
  5c:	76657220 	strbtvc	r7, [r5], -r0, lsr #4
  60:	6f697369 	svcvs	0x00697369
  64:	3132206e 	teqcc	r2, lr, rrx
  68:	37343133 			; <UNDEFINED> instruction: 0x37343133
  6c:	6d2d205d 	stcvs	0, cr2, [sp, #-372]!	; 0xfffffe8c
  70:	612d6f6e 	teqvs	sp, lr, ror #30
  74:	2d736370 	ldclcs	3, cr6, [r3, #-448]!	; 0xfffffe40
  78:	6d617266 	sfmvs	f7, 2, [r1, #-408]!	; 0xfffffe68
  7c:	6d2d2065 	stcvs	0, cr2, [sp, #-404]!	; 0xfffffe6c
  80:	68637261 	stmdavs	r3!, {r0, r5, r6, r9, ip, sp, lr}^
  84:	6d72613d 	ldfvse	f6, [r2, #-244]!	; 0xffffff0c
  88:	207a3676 	rsbscs	r3, sl, r6, ror r6
  8c:	72616d2d 	rsbvc	r6, r1, #2880	; 0xb40
  90:	6d2d206d 	stcvs	0, cr2, [sp, #-436]!	; 0xfffffe4c
  94:	6d756874 	ldclvs	8, cr6, [r5, #-464]!	; 0xfffffe30
  98:	6e692d62 	cdpvs	13, 6, cr2, cr9, cr2, {3}
  9c:	77726574 			; <UNDEFINED> instruction: 0x77726574
  a0:	206b726f 	rsbcs	r7, fp, pc, ror #4
  a4:	2d20672d 	stccs	7, cr6, [r0, #-180]!	; 0xffffff4c
  a8:	696d6f66 	stmdbvs	sp!, {r1, r2, r5, r6, r8, r9, sl, fp, sp, lr}^
  ac:	72662d74 	rsbvc	r2, r6, #116, 26	; 0x1d00
  b0:	2d656d61 	stclcs	13, cr6, [r5, #-388]!	; 0xfffffe7c
  b4:	6e696f70 	mcrvs	15, 3, r6, cr9, cr0, {3}
  b8:	20726574 	rsbscs	r6, r2, r4, ror r5
  bc:	7266662d 	rsbvc	r6, r6, #47185920	; 0x2d00000
  c0:	74736565 	ldrbtvc	r6, [r3], #-1381	; 0x565
  c4:	69646e61 	stmdbvs	r4!, {r0, r5, r6, r9, sl, fp, sp, lr}^
  c8:	5700676e 	strpl	r6, [r0, -lr, ror #14]
  cc:	49544941 	ldmdbmi	r4, {r0, r6, r8, fp, lr}^
  d0:	6300474e 	movwvs	r4, #1870	; 0x74e
  d4:	00417470 	subeq	r7, r1, r0, ror r4
  d8:	73726966 	cmnvc	r2, #1671168	; 0x198000
  dc:	63705f74 	cmnvs	r0, #116, 30	; 0x1d0
  e0:	63700062 	cmnvs	r0, #98	; 0x62
  e4:	00665f62 	rsbeq	r5, r6, r2, ror #30
  e8:	636e7566 	cmnvs	lr, #427819008	; 0x19800000
  ec:	68630041 	stmdavs	r3!, {r0, r6}^
  f0:	656e6961 	strbvs	r6, [lr, #-2401]!	; 0x961
  f4:	696c5f64 	stmdbvs	ip!, {r2, r5, r6, r8, r9, sl, fp, ip, lr}^
  f8:	54007473 	strpl	r7, [r0], #-1139	; 0x473
  fc:	494d5245 	stmdbmi	sp, {r0, r2, r6, r9, ip, lr}^
 100:	4554414e 	ldrbmi	r4, [r4, #-334]	; 0x14e
 104:	616c0044 	cmnvs	ip, r4, asr #32
 108:	705f7473 	subsvc	r7, pc, r3, ror r4	; <UNPREDICTABLE>
 10c:	66006263 	strvs	r6, [r0], -r3, ror #4
 110:	42636e75 	rsbmi	r6, r3, #1872	; 0x750
 114:	78746300 	ldmdavc	r4!, {r8, r9, sp, lr}^
 118:	5200735f 	andpl	r7, r0, #2080374785	; 0x7c000001
 11c:	494e4e55 	stmdbmi	lr, {r0, r2, r4, r6, r9, sl, fp, lr}^
 120:	7300474e 	movwvc	r4, #1870	; 0x74e
 124:	74726f68 	ldrbtvc	r6, [r2], #-3944	; 0xf68
 128:	736e7520 	cmnvc	lr, #32, 10	; 0x8000000
 12c:	656e6769 	strbvs	r6, [lr, #-1897]!	; 0x769
 130:	6e692064 	cdpvs	0, 6, cr2, cr9, cr4, {3}
 134:	6e750074 	mrcvs	0, 3, r0, cr5, cr4, {3}
 138:	6e676973 	mcrvs	9, 3, r6, cr7, cr3, {3}
 13c:	63206465 	teqvs	r0, #1694498816	; 0x65000000
 140:	00726168 	rsbseq	r6, r2, r8, ror #2
 144:	6e72656b 	cdpvs	5, 7, cr6, cr2, cr11, {3}
 148:	632e6c65 	teqvs	lr, #25856	; 0x6500
 14c:	61747300 	cmnvs	r4, r0, lsl #6
 150:	74006574 	strvc	r6, [r0], #-1396	; 0x574
 154:	73706d65 	cmnvc	r0, #6464	; 0x1940
 158:	65747441 	ldrbvs	r7, [r4, #-1089]!	; 0x441
 15c:	0065746e 	rsbeq	r7, r5, lr, ror #8
 160:	5f626370 	svcpl	0x00626370
 164:	6e690073 	mcrvs	0, 3, r0, cr9, cr3, {3}
 168:	735f7469 	cmpvc	pc, #1761607680	; 0x69000000
 16c:	74530070 	ldrbvc	r0, [r3], #-112	; 0x70
 170:	00657461 	rsbeq	r7, r5, r1, ror #8
 174:	5f626370 	svcpl	0x00626370
 178:	00787463 	rsbseq	r7, r8, r3, ror #8
 17c:	6d6f682f 	stclvs	8, cr6, [pc, #-188]!	; c8 <_start-0x7f38>
 180:	65742f65 	ldrbvs	r2, [r4, #-3941]!	; 0xf65
 184:	742f7473 	strtvc	r7, [pc], #-1139	; 18c <_start-0x7e74>
 188:	61657370 	smcvs	22320	; 0x5730
 18c:	2d734f2f 	ldclcs	15, cr4, [r3, #-188]!	; 0xffffff44
 190:	70736152 	rsbsvc	r6, r3, r2, asr r1
 194:	72656265 	rsbvc	r6, r5, #1342177286	; 0x50000006
 198:	70007972 	andvc	r7, r0, r2, ror r9
 19c:	6c417968 	mcrrvs	9, 6, r7, r1, cr8
 1a0:	2e636f6c 	cdpcs	15, 6, cr6, cr3, cr12, {3}
 1a4:	72700063 	rsbsvc	r0, r0, #99	; 0x63
 1a8:	66007665 	strvs	r7, [r0], -r5, ror #12
 1ac:	6c656572 	cfstr64vs	mvdx6, [r5], #-456	; 0xfffffe38
 1b0:	00747369 	rsbseq	r7, r4, r9, ror #6
 1b4:	70616568 	rsbvc	r6, r1, r8, ror #10
 1b8:	6d696c5f 	stclvs	12, cr6, [r9, #-380]!	; 0xfffffe84
 1bc:	70007469 	andvc	r7, r0, r9, ror #8
 1c0:	6c417968 	mcrrvs	9, 6, r7, r1, cr8
 1c4:	5f636f6c 	svcpl	0x00636f6c
 1c8:	65657266 	strbvs	r7, [r5, #-614]!	; 0x266
 1cc:	61656800 	cmnvs	r5, r0, lsl #16
 1d0:	74735f70 	ldrbtvc	r5, [r3], #-3952	; 0xf70
 1d4:	00747261 	rsbseq	r7, r4, r1, ror #4
 1d8:	7478656e 	ldrbtvc	r6, [r8], #-1390	; 0x56e
 1dc:	79687000 	stmdbvc	r8!, {ip, sp, lr}^
 1e0:	6f6c6c41 	svcvs	0x006c6c41
 1e4:	6c615f63 	stclvs	15, cr5, [r1], #-396	; 0xfffffe74
 1e8:	00636f6c 	rsbeq	r6, r3, ip, ror #30
 1ec:	41796870 	cmnmi	r9, r0, ror r8
 1f0:	636f6c6c 	cmnvs	pc, #108, 24	; 0x6c00
 1f4:	696e695f 	stmdbvs	lr!, {r0, r1, r2, r3, r4, r6, r8, fp, sp, lr}^
 1f8:	65680074 	strbvs	r0, [r8, #-116]!	; 0x74
 1fc:	735f7061 	cmpvc	pc, #97	; 0x61
 200:	00657a69 	rsbeq	r7, r5, r9, ror #20
 204:	5f746573 	svcpl	0x00746573
 208:	6b636974 	blvs	18da7e0 <__bss_end+0x18d18e0>
 20c:	646e615f 	strbtvs	r6, [lr], #-351	; 0x15f
 210:	616e655f 	cmnvs	lr, pc, asr r5
 214:	5f656c62 	svcpl	0x00656c62
 218:	656d6974 	strbvs	r6, [sp, #-2420]!	; 0x974
 21c:	77680072 			; <UNDEFINED> instruction: 0x77680072
 220:	6c00632e 	stcvs	3, cr6, [r0], {46}	; 0x2e
 224:	6f5f6465 	svcvs	0x005f6465
 228:	6e69006e 	cdpvs	0, 6, cr0, cr9, cr14, {3}
 22c:	685f7469 	ldmdavs	pc, {r0, r3, r5, r6, sl, ip, sp, lr}^	; <UNPREDICTABLE>
 230:	656c0077 	strbvs	r0, [ip, #-119]!	; 0x77
 234:	666f5f64 	strbtvs	r5, [pc], -r4, ror #30
 238:	72700066 	rsbsvc	r0, r0, #102	; 0x66
 23c:	7300636f 	movwvc	r6, #879	; 0x36f
 240:	64656863 	strbtvs	r6, [r5], #-2147	; 0x863
 244:	7300632e 	movwvc	r6, #814	; 0x32e
 248:	74726174 	ldrbtvc	r6, [r2], #-372	; 0x174
 24c:	6863735f 	stmdavs	r3!, {r0, r1, r2, r3, r4, r6, r8, r9, ip, sp, lr}^
 250:	63006465 	movwvs	r6, #1125	; 0x465
 254:	735f7874 	cmpvc	pc, #116, 16	; 0x740000
 258:	63746977 	cmnvs	r4, #1949696	; 0x1dc000
 25c:	6e690068 	cdpvs	0, 6, cr0, cr9, cr8, {3}
 260:	635f7469 	cmpvs	pc, #1761607680	; 0x69000000
 264:	63007874 	movwvs	r7, #2164	; 0x874
 268:	735f7874 	cmpvc	pc, #116, 16	; 0x740000
 26c:	63746977 	cmnvs	r4, #1949696	; 0x1dc000
 270:	72665f68 	rsbvc	r5, r6, #104, 30	; 0x1a0
 274:	695f6d6f 	ldmdbvs	pc, {r0, r1, r2, r3, r5, r6, r8, sl, fp, sp, lr}^	; <UNPREDICTABLE>
 278:	65007172 	strvs	r7, [r0, #-370]	; 0x172
 27c:	7463656c 	strbtvc	r6, [r3], #-1388	; 0x56c
 280:	61747300 	cmnvs	r4, r0, lsl #6
 284:	635f7472 	cmpvs	pc, #1912602624	; 0x72000000
 288:	65727275 	ldrbvs	r7, [r2, #-629]!	; 0x275
 28c:	705f746e 	subsvc	r7, pc, lr, ror #8
 290:	65636f72 	strbvs	r6, [r3, #-3954]!	; 0xf72
 294:	63007373 	movwvs	r7, #883	; 0x373
 298:	65746e6f 	ldrbvs	r6, [r4, #-3695]!	; 0xe6f
 29c:	73007478 	movwvc	r7, #1144	; 0x478
 2a0:	6b636174 	blvs	18d8878 <__bss_end+0x18cf978>
 2a4:	7a69735f 	bvc	1a5d028 <__bss_end+0x1a54128>
 2a8:	65740065 	ldrbvs	r0, [r4, #-101]!	; 0x65
 2ac:	6e696d72 	mcrvs	13, 3, r6, cr9, cr2, {3}
 2b0:	5f657461 	svcpl	0x00657461
 2b4:	636f7270 	cmnvs	pc, #112, 4
 2b8:	00737365 	rsbseq	r7, r3, r5, ror #6
 2bc:	5f77656e 	svcpl	0x0077656e
 2c0:	00626370 	rsbeq	r6, r2, r0, ror r3
 2c4:	74696e69 	strbtvc	r6, [r9], #-3689	; 0xe69
 2c8:	6263705f 	rsbvs	r7, r3, #95	; 0x5f
 2cc:	65726300 	ldrbvs	r6, [r2, #-768]!	; 0x300
 2d0:	5f657461 	svcpl	0x00657461
 2d4:	636f7270 	cmnvs	pc, #112, 4
 2d8:	00737365 	rsbseq	r7, r3, r5, ror #6
 2dc:	5f737973 	svcpl	0x00737973
 2e0:	74696177 	strbtvc	r6, [r9], #-375	; 0x177
 2e4:	536f6400 	cmnpl	pc, #0, 8
 2e8:	61437379 	hvcvs	14137	; 0x3739
 2ec:	61576c6c 	cmpvs	r7, ip, ror #24
 2f0:	64007469 	strvs	r7, [r0], #-1129	; 0x469
 2f4:	7379536f 	cmnvc	r9, #-1140850687	; 0xbc000001
 2f8:	6c6c6143 	stfvse	f6, [ip], #-268	; 0xfffffef4
 2fc:	6f626552 	svcvs	0x00626552
 300:	7300746f 	movwvc	r7, #1135	; 0x46f
 304:	725f7379 	subsvc	r7, pc, #-469762047	; 0xe4000001
 308:	6f6f6265 	svcvs	0x006f6265
 30c:	57530074 			; <UNDEFINED> instruction: 0x57530074
 310:	6e614849 	cdpvs	8, 6, cr4, cr1, cr9, {2}
 314:	72656c64 	rsbvc	r6, r5, #100, 24	; 0x6400
 318:	51626e00 	cmnpl	r2, r0, lsl #28
 31c:	746e6175 	strbtvc	r6, [lr], #-373	; 0x175
 320:	00736d75 	rsbseq	r6, r3, r5, ror sp
 324:	536d756e 	cmnpl	sp, #461373440	; 0x1b800000
 328:	61437379 	hvcvs	14137	; 0x3739
 32c:	73006c6c 	movwvc	r6, #3180	; 0xc6c
 330:	61637379 	smcvs	14137	; 0x3739
 334:	632e6c6c 	teqvs	lr, #108, 24	; 0x6c00
 338:	63636f00 	cmnvs	r3, #0, 30
 33c:	74617075 	strbtvc	r7, [r1], #-117	; 0x75
 340:	5f6e6f69 	svcpl	0x006e6f69
 344:	6c626174 	stfvse	f6, [r2], #-464	; 0xfffffe30
 348:	69750065 	ldmdbvs	r5!, {r0, r2, r5, r6}^
 34c:	3233746e 	eorscc	r7, r3, #1845493760	; 0x6e000000
 350:	61747300 	cmnvs	r4, r0, lsl #6
 354:	6d5f7472 	cfldrdvs	mvd7, [pc, #-456]	; 194 <_start-0x7e6c>
 358:	435f756d 	cmpmi	pc, #457179136	; 0x1b400000
 35c:	50626e00 	rsbpl	r6, r2, r0, lsl #28
 360:	73656761 	cmnvc	r5, #25427968	; 0x1840000
 364:	5f747000 	svcpl	0x00747000
 368:	72646461 	rsbvc	r6, r4, #1627389952	; 0x61000000
 36c:	654d7600 	strbvs	r7, [sp, #-1536]	; 0x600
 370:	72465f6d 	subvc	r5, r6, #436	; 0x1b4
 374:	6d006565 	cfstr32vs	mvfx6, [r0, #-404]	; 0xfffffe6c
 378:	5f696e69 	svcpl	0x00696e69
 37c:	6c626174 	stfvse	f6, [r2], #-464	; 0xfffffe30
 380:	69750065 	ldmdbvs	r5!, {r0, r2, r5, r6}^
 384:	0038746e 	eorseq	r7, r8, lr, ror #8
 388:	6d654d76 	stclvs	13, cr4, [r5, #-472]!	; 0xfffffe28
 38c:	6c6c415f 	stfvse	f4, [ip], #-380	; 0xfffffe84
 390:	6900636f 	stmdbvs	r0, {r0, r1, r2, r3, r5, r6, r8, r9, sp, lr}
 394:	5f74696e 	svcpl	0x0074696e
 398:	6e72656b 	cdpvs	5, 7, cr6, cr2, cr11, {3}
 39c:	6172745f 	cmnvs	r2, pc, asr r4
 3a0:	616c736e 	cmnvs	ip, lr, ror #6
 3a4:	6e6f6974 	mcrvs	9, 3, r6, cr15, cr4, {3}
 3a8:	6261745f 	rsbvs	r7, r1, #1593835520	; 0x5f000000
 3ac:	6300656c 	movwvs	r6, #1388	; 0x56c
 3b0:	69666e6f 	stmdbvs	r6!, {r0, r1, r2, r3, r5, r6, r9, sl, fp, sp, lr}^
 3b4:	65727567 	ldrbvs	r7, [r2, #-1383]!	; 0x567
 3b8:	756d6d5f 	strbvc	r6, [sp, #-3423]!	; 0xd5f
 3bc:	6900435f 	stmdbvs	r0, {r0, r1, r2, r3, r4, r6, r8, r9, lr}
 3c0:	5f74696e 	svcpl	0x0074696e
 3c4:	745f6f6e 	ldrbvc	r6, [pc], #-3950	; 3cc <_start-0x7c34>
 3c8:	736e6172 	cmnvc	lr, #-2147483620	; 0x8000001c
 3cc:	6974616c 	ldmdbvs	r4!, {r2, r3, r5, r6, r8, sp, lr}^
 3d0:	705f6e6f 	subsvc	r6, pc, pc, ror #28
 3d4:	73656761 	cmnvc	r5, #25427968	; 0x1840000
 3d8:	6e697500 	cdpvs	5, 6, cr7, cr9, cr0, {0}
 3dc:	745f3874 	ldrbvc	r3, [pc], #-2164	; 3e4 <_start-0x7c1c>
 3e0:	72656b00 	rsbvc	r6, r5, #0, 22
 3e4:	5f6c656e 	svcpl	0x006c656e
 3e8:	615f7474 	cmpvs	pc, r4, ror r4	; <UNPREDICTABLE>
 3ec:	65726464 	ldrbvs	r6, [r2, #-1124]!	; 0x464
 3f0:	75007373 	strvc	r7, [r0, #-883]	; 0x373
 3f4:	33746e69 	cmncc	r4, #1680	; 0x690
 3f8:	00745f32 	rsbseq	r5, r4, r2, lsr pc
 3fc:	6e72656b 	cdpvs	5, 7, cr6, cr2, cr11, {3}
 400:	665f6c65 	ldrbvs	r6, [pc], -r5, ror #24
 404:	7367616c 	cmnvc	r7, #108, 2
 408:	746f7400 	strbtvc	r7, [pc], #-1024	; 410 <_start-0x7bf0>
 40c:	64006c61 	strvs	r6, [r0], #-3169	; 0xc61
 410:	63697665 	cmnvs	r9, #105906176	; 0x6500000
 414:	6c665f65 	stclvs	15, cr5, [r6], #-404	; 0xfffffe6c
 418:	00736761 	rsbseq	r6, r3, r1, ror #14
 41c:	5f77656e 	svcpl	0x0077656e
 420:	73726966 	cmnvc	r2, #1671168	; 0x198000
 424:	61745f74 	cmnvs	r4, r4, ror pc
 428:	00656c62 	rsbeq	r6, r5, r2, ror #24
 42c:	6d656d76 	stclvs	13, cr6, [r5, #-472]!	; 0xfffffe28
 430:	656d762f 	strbvs	r7, [sp, #-1583]!	; 0x62f
 434:	00632e6d 	rsbeq	r2, r3, sp, ror #28
 438:	5f77656e 	svcpl	0x0077656e
 43c:	6f636573 	svcvs	0x00636573
 440:	745f646e 	ldrbvc	r6, [pc], #-1134	; 448 <_start-0x7bb8>
 444:	656c6261 	strbvs	r6, [ip, #-609]!	; 0x261
 448:	6e6f6300 	cdpvs	3, 6, cr6, cr15, cr0, {0}
 44c:	6c6f7274 	sfmvs	f7, 2, [pc], #-464	; 284 <_start-0x7d7c>
	...

Disassembly of section .debug_frame:

00000000 <.debug_frame>:
   0:	0000000c 	andeq	r0, r0, ip
   4:	ffffffff 			; <UNDEFINED> instruction: 0xffffffff
   8:	7c020001 	stcvc	0, cr0, [r2], {1}
   c:	000d0c0e 	andeq	r0, sp, lr, lsl #24
  10:	00000010 	andeq	r0, r0, r0, lsl r0
  14:	00000000 	andeq	r0, r0, r0
  18:	000080d0 	ldrdeq	r8, [r0], -r0
  1c:	0000003c 	andeq	r0, r0, ip, lsr r0
  20:	00080e42 	andeq	r0, r8, r2, asr #28
  24:	00000010 	andeq	r0, r0, r0, lsl r0
  28:	00000000 	andeq	r0, r0, r0
  2c:	0000810c 	andeq	r8, r0, ip, lsl #2
  30:	0000001c 	andeq	r0, r0, ip, lsl r0
  34:	00080e42 	andeq	r0, r8, r2, asr #28
  38:	00000014 	andeq	r0, r0, r4, lsl r0
  3c:	00000000 	andeq	r0, r0, r0
  40:	00008128 	andeq	r8, r0, r8, lsr #2
  44:	00000010 	andeq	r0, r0, r0, lsl r0
  48:	83080e42 	movwhi	r0, #36418	; 0x8e42
  4c:	00018e02 	andeq	r8, r1, r2, lsl #28
  50:	0000000c 	andeq	r0, r0, ip
  54:	ffffffff 			; <UNDEFINED> instruction: 0xffffffff
  58:	7c020001 	stcvc	0, cr0, [r2], {1}
  5c:	000d0c0e 	andeq	r0, sp, lr, lsl #24
  60:	00000018 	andeq	r0, r0, r8, lsl r0
  64:	00000050 	andeq	r0, r0, r0, asr r0
  68:	00008138 	andeq	r8, r0, r8, lsr r1
  6c:	000000b4 	strheq	r0, [r0], -r4
  70:	84080e42 	strhi	r0, [r8], #-3650	; 0xe42
  74:	42018502 	andmi	r8, r1, #8388608	; 0x800000
  78:	0000100e 	andeq	r1, r0, lr
  7c:	00000014 	andeq	r0, r0, r4, lsl r0
  80:	00000050 	andeq	r0, r0, r0, asr r0
  84:	000081ec 	andeq	r8, r0, ip, ror #3
  88:	00000048 	andeq	r0, r0, r8, asr #32
  8c:	84040e42 	strhi	r0, [r4], #-3650	; 0xe42
  90:	100e4201 	andne	r4, lr, r1, lsl #4
  94:	00000010 	andeq	r0, r0, r0, lsl r0
  98:	00000050 	andeq	r0, r0, r0, asr r0
  9c:	00008234 	andeq	r8, r0, r4, lsr r2
  a0:	0000003c 	andeq	r0, r0, ip, lsr r0
  a4:	00080e42 	andeq	r0, r8, r2, asr #28
  a8:	0000000c 	andeq	r0, r0, ip
  ac:	ffffffff 			; <UNDEFINED> instruction: 0xffffffff
  b0:	7c020001 	stcvc	0, cr0, [r2], {1}
  b4:	000d0c0e 	andeq	r0, sp, lr, lsl #24
  b8:	00000014 	andeq	r0, r0, r4, lsl r0
  bc:	000000a8 	andeq	r0, r0, r8, lsr #1
  c0:	00008270 	andeq	r8, r0, r0, ror r2
  c4:	0000004c 	andeq	r0, r0, ip, asr #32
  c8:	8e040e42 	cdphi	14, 0, cr0, cr4, cr2, {2}
  cc:	100e4201 	andne	r4, lr, r1, lsl #4
  d0:	00000014 	andeq	r0, r0, r4, lsl r0
  d4:	000000a8 	andeq	r0, r0, r8, lsr #1
  d8:	000082bc 			; <UNDEFINED> instruction: 0x000082bc
  dc:	00000018 	andeq	r0, r0, r8, lsl r0
  e0:	83080e42 	movwhi	r0, #36418	; 0x8e42
  e4:	00018e02 	andeq	r8, r1, r2, lsl #28
  e8:	00000014 	andeq	r0, r0, r4, lsl r0
  ec:	000000a8 	andeq	r0, r0, r8, lsr #1
  f0:	000082d4 	ldrdeq	r8, [r0], -r4
  f4:	00000018 	andeq	r0, r0, r8, lsl r0
  f8:	83080e42 	movwhi	r0, #36418	; 0x8e42
  fc:	00018e02 	andeq	r8, r1, r2, lsl #28
 100:	00000014 	andeq	r0, r0, r4, lsl r0
 104:	000000a8 	andeq	r0, r0, r8, lsr #1
 108:	000082ec 	andeq	r8, r0, ip, ror #5
 10c:	000000c0 	andeq	r0, r0, r0, asr #1
 110:	8e040e42 	cdphi	14, 0, cr0, cr4, cr2, {2}
 114:	100e4201 	andne	r4, lr, r1, lsl #4
 118:	0000000c 	andeq	r0, r0, ip
 11c:	ffffffff 			; <UNDEFINED> instruction: 0xffffffff
 120:	7c020001 	stcvc	0, cr0, [r2], {1}
 124:	000d0c0e 	andeq	r0, sp, lr, lsl #24
 128:	00000014 	andeq	r0, r0, r4, lsl r0
 12c:	00000118 	andeq	r0, r0, r8, lsl r1
 130:	000083ac 	andeq	r8, r0, ip, lsr #7
 134:	00000054 	andeq	r0, r0, r4, asr r0
 138:	8e040e42 	cdphi	14, 0, cr0, cr4, cr2, {2}
 13c:	180e4201 	stmdane	lr, {r0, r9, lr}
 140:	00000014 	andeq	r0, r0, r4, lsl r0
 144:	00000118 	andeq	r0, r0, r8, lsl r1
 148:	00008400 	andeq	r8, r0, r0, lsl #8
 14c:	00000078 	andeq	r0, r0, r8, ror r0
 150:	8e040e42 	cdphi	14, 0, cr0, cr4, cr2, {2}
 154:	200e4201 	andcs	r4, lr, r1, lsl #4
 158:	00000014 	andeq	r0, r0, r4, lsl r0
 15c:	00000118 	andeq	r0, r0, r8, lsl r1
 160:	00008478 	andeq	r8, r0, r8, ror r4
 164:	000000e8 	andeq	r0, r0, r8, ror #1
 168:	8e040e42 	cdphi	14, 0, cr0, cr4, cr2, {2}
 16c:	200e4201 	andcs	r4, lr, r1, lsl #4
 170:	00000014 	andeq	r0, r0, r4, lsl r0
 174:	00000118 	andeq	r0, r0, r8, lsl r1
 178:	00008560 	andeq	r8, r0, r0, ror #10
 17c:	00000068 	andeq	r0, r0, r8, rrx
 180:	83080e42 	movwhi	r0, #36418	; 0x8e42
 184:	00018e02 	andeq	r8, r1, r2, lsl #28
 188:	00000014 	andeq	r0, r0, r4, lsl r0
 18c:	00000118 	andeq	r0, r0, r8, lsl r1
 190:	000085c8 	andeq	r8, r0, r8, asr #11
 194:	000000f0 	strdeq	r0, [r0], -r0	; <UNPREDICTABLE>
 198:	8e040e42 	cdphi	14, 0, cr0, cr4, cr2, {2}
 19c:	100e4201 	andne	r4, lr, r1, lsl #4
 1a0:	0000000c 	andeq	r0, r0, ip
 1a4:	00000118 	andeq	r0, r0, r8, lsl r1
 1a8:	000086b8 			; <UNDEFINED> instruction: 0x000086b8
 1ac:	00000034 	andeq	r0, r0, r4, lsr r0
 1b0:	00000014 	andeq	r0, r0, r4, lsl r0
 1b4:	00000118 	andeq	r0, r0, r8, lsl r1
 1b8:	000086ec 	andeq	r8, r0, ip, ror #13
 1bc:	00000038 	andeq	r0, r0, r8, lsr r0
 1c0:	83080e42 	movwhi	r0, #36418	; 0x8e42
 1c4:	00018e02 	andeq	r8, r1, r2, lsl #28
 1c8:	00000014 	andeq	r0, r0, r4, lsl r0
 1cc:	00000118 	andeq	r0, r0, r8, lsl r1
 1d0:	00008724 	andeq	r8, r0, r4, lsr #14
 1d4:	00000180 	andeq	r0, r0, r0, lsl #3
 1d8:	8e040e42 	cdphi	14, 0, cr0, cr4, cr2, {2}
 1dc:	100e4201 	andne	r4, lr, r1, lsl #4
 1e0:	0000000c 	andeq	r0, r0, ip
 1e4:	00000118 	andeq	r0, r0, r8, lsl r1
 1e8:	000088a4 	andeq	r8, r0, r4, lsr #17
 1ec:	00000114 	andeq	r0, r0, r4, lsl r1
 1f0:	0000000c 	andeq	r0, r0, ip
 1f4:	ffffffff 			; <UNDEFINED> instruction: 0xffffffff
 1f8:	7c020001 	stcvc	0, cr0, [r2], {1}
 1fc:	000d0c0e 	andeq	r0, sp, lr, lsl #24
 200:	00000014 	andeq	r0, r0, r4, lsl r0
 204:	000001f0 	strdeq	r0, [r0], -r0	; <UNPREDICTABLE>
 208:	000089b8 			; <UNDEFINED> instruction: 0x000089b8
 20c:	00000014 	andeq	r0, r0, r4, lsl r0
 210:	8e040e42 	cdphi	14, 0, cr0, cr4, cr2, {2}
 214:	00000001 	andeq	r0, r0, r1
 218:	00000014 	andeq	r0, r0, r4, lsl r0
 21c:	000001f0 	strdeq	r0, [r0], -r0	; <UNPREDICTABLE>
 220:	000089cc 	andeq	r8, r0, ip, asr #19
 224:	00000028 	andeq	r0, r0, r8, lsr #32
 228:	8e040e42 	cdphi	14, 0, cr0, cr4, cr2, {2}
 22c:	100e4201 	andne	r4, lr, r1, lsl #4
 230:	0000000c 	andeq	r0, r0, ip
 234:	000001f0 	strdeq	r0, [r0], -r0	; <UNPREDICTABLE>
 238:	000089f4 	strdeq	r8, [r0], -r4
 23c:	00000004 	andeq	r0, r0, r4
 240:	00000010 	andeq	r0, r0, r0, lsl r0
 244:	000001f0 	strdeq	r0, [r0], -r0	; <UNPREDICTABLE>
 248:	000089f8 	strdeq	r8, [r0], -r8	; <UNPREDICTABLE>
 24c:	00000028 	andeq	r0, r0, r8, lsr #32
 250:	00080e42 	andeq	r0, r8, r2, asr #28
 254:	00000014 	andeq	r0, r0, r4, lsl r0
 258:	000001f0 	strdeq	r0, [r0], -r0	; <UNPREDICTABLE>
 25c:	00008a20 	andeq	r8, r0, r0, lsr #20
 260:	00000048 	andeq	r0, r0, r8, asr #32
 264:	8e040e42 	cdphi	14, 0, cr0, cr4, cr2, {2}
 268:	100e4201 	andne	r4, lr, r1, lsl #4
 26c:	0000000c 	andeq	r0, r0, ip
 270:	ffffffff 			; <UNDEFINED> instruction: 0xffffffff
 274:	7c020001 	stcvc	0, cr0, [r2], {1}
 278:	000d0c0e 	andeq	r0, sp, lr, lsl #24
 27c:	00000014 	andeq	r0, r0, r4, lsl r0
 280:	0000026c 	andeq	r0, r0, ip, ror #4
 284:	00008a68 	andeq	r8, r0, r8, ror #20
 288:	000000d4 	ldrdeq	r0, [r0], -r4
 28c:	8e040e42 	cdphi	14, 0, cr0, cr4, cr2, {2}
 290:	100e4201 	andne	r4, lr, r1, lsl #4
 294:	00000014 	andeq	r0, r0, r4, lsl r0
 298:	0000026c 	andeq	r0, r0, ip, ror #4
 29c:	00008b3c 	andeq	r8, r0, ip, lsr fp
 2a0:	00000178 	andeq	r0, r0, r8, ror r1
 2a4:	8e040e42 	cdphi	14, 0, cr0, cr4, cr2, {2}
 2a8:	280e4201 	stmdacs	lr, {r0, r9, lr}
 2ac:	00000010 	andeq	r0, r0, r0, lsl r0
 2b0:	0000026c 	andeq	r0, r0, ip, ror #4
 2b4:	00008cb4 			; <UNDEFINED> instruction: 0x00008cb4
 2b8:	000000fc 	strdeq	r0, [r0], -ip
 2bc:	00100e42 	andseq	r0, r0, r2, asr #28
 2c0:	00000010 	andeq	r0, r0, r0, lsl r0
 2c4:	0000026c 	andeq	r0, r0, ip, ror #4
 2c8:	00008db0 			; <UNDEFINED> instruction: 0x00008db0
 2cc:	00000080 	andeq	r0, r0, r0, lsl #1
 2d0:	00080e42 	andeq	r0, r8, r2, asr #28
 2d4:	00000014 	andeq	r0, r0, r4, lsl r0
 2d8:	0000026c 	andeq	r0, r0, ip, ror #4
 2dc:	00008e30 	andeq	r8, r0, r0, lsr lr
 2e0:	00000030 	andeq	r0, r0, r0, lsr r0
 2e4:	84040e42 	strhi	r0, [r4], #-3650	; 0xe42
 2e8:	00000001 	andeq	r0, r0, r1
 2ec:	00000014 	andeq	r0, r0, r4, lsl r0
 2f0:	0000026c 	andeq	r0, r0, ip, ror #4
 2f4:	00008e60 	andeq	r8, r0, r0, ror #28
 2f8:	00000040 	andeq	r0, r0, r0, asr #32
 2fc:	84040e42 	strhi	r0, [r4], #-3650	; 0xe42
 300:	00000001 	andeq	r0, r0, r1
 304:	00000010 	andeq	r0, r0, r0, lsl r0
 308:	0000026c 	andeq	r0, r0, ip, ror #4
 30c:	00008ea0 	andeq	r8, r0, r0, lsr #29
 310:	00000018 	andeq	r0, r0, r8, lsl r0
 314:	00080e42 	andeq	r0, r8, r2, asr #28
 318:	00000010 	andeq	r0, r0, r0, lsl r0
 31c:	0000026c 	andeq	r0, r0, ip, ror #4
 320:	00008eb8 			; <UNDEFINED> instruction: 0x00008eb8
 324:	00000014 	andeq	r0, r0, r4, lsl r0
 328:	00080e42 	andeq	r0, r8, r2, asr #28
