
kernel.elf:     file format elf32-littlearm


Disassembly of section .text:

00008000 <_start>:
    8000:	e59ff018 	ldr	pc, [pc, #24]	; 8020 <reset_handler>
    8004:	e59ff018 	ldr	pc, [pc, #24]	; 8024 <undefined_handler>
    8008:	e59ff018 	ldr	pc, [pc, #24]	; 8028 <swi_handler>
    800c:	e59ff018 	ldr	pc, [pc, #24]	; 802c <prefetch_handler>
    8010:	e59ff018 	ldr	pc, [pc, #24]	; 8030 <data_handler>
    8014:	e59ff018 	ldr	pc, [pc, #24]	; 8034 <unused_handler>
    8018:	e59ff018 	ldr	pc, [pc, #24]	; 8038 <irq_handler>
    801c:	e59ff018 	ldr	pc, [pc, #24]	; 803c <fiq_handler>

00008020 <reset_handler>:
    8020:	00008040 	andeq	r8, r0, r0, asr #32

00008024 <undefined_handler>:
    8024:	00008084 	andeq	r8, r0, r4, lsl #1

00008028 <swi_handler>:
    8028:	000080cc 	andeq	r8, r0, ip, asr #1

0000802c <prefetch_handler>:
    802c:	00008088 	andeq	r8, r0, r8, lsl #1

00008030 <data_handler>:
    8030:	0000808c 	andeq	r8, r0, ip, lsl #1

00008034 <unused_handler>:
    8034:	00008090 	muleq	r0, r0, r0

00008038 <irq_handler>:
    8038:	000080c8 	andeq	r8, r0, r8, asr #1

0000803c <fiq_handler>:
    803c:	00008094 	muleq	r0, r4, r0

00008040 <reset>:
    8040:	e3a00902 	mov	r0, #32768	; 0x8000
    8044:	e3a01000 	mov	r1, #0
    8048:	e8b003fc 	ldm	r0!, {r2, r3, r4, r5, r6, r7, r8, r9}
    804c:	e8a103fc 	stmia	r1!, {r2, r3, r4, r5, r6, r7, r8, r9}
    8050:	e8b003fc 	ldm	r0!, {r2, r3, r4, r5, r6, r7, r8, r9}
    8054:	e8a103fc 	stmia	r1!, {r2, r3, r4, r5, r6, r7, r8, r9}
    8058:	e3a000d1 	mov	r0, #209	; 0xd1
    805c:	e121f000 	msr	CPSR_c, r0
    8060:	e3a0d90e 	mov	sp, #229376	; 0x38000
    8064:	e3a000d2 	mov	r0, #210	; 0xd2
    8068:	e121f000 	msr	CPSR_c, r0
    806c:	e3a0d701 	mov	sp, #262144	; 0x40000
    8070:	e3a000d3 	mov	r0, #211	; 0xd3
    8074:	e121f000 	msr	CPSR_c, r0
    8078:	e3a0d912 	mov	sp, #294912	; 0x48000
    807c:	eb00002a 	bl	812c <kmain>

00008080 <hang>:
    8080:	eafffffe 	b	8080 <hang>

00008084 <undefined>:
    8084:	eafffffe 	b	8084 <undefined>

00008088 <prefetch>:
    8088:	eafffffe 	b	8088 <prefetch>

0000808c <data>:
    808c:	eafffffe 	b	808c <data>

00008090 <unused>:
    8090:	eafffffe 	b	8090 <unused>

00008094 <fiq>:
    8094:	eafffffe 	b	8094 <fiq>

00008098 <PUT32>:
    8098:	e5801000 	str	r1, [r0]
    809c:	e12fff1e 	bx	lr

000080a0 <PUT16>:
    80a0:	e1c010b0 	strh	r1, [r0]
    80a4:	e12fff1e 	bx	lr

000080a8 <PUT8>:
    80a8:	e5c01000 	strb	r1, [r0]
    80ac:	e12fff1e 	bx	lr

000080b0 <GET32>:
    80b0:	e5900000 	ldr	r0, [r0]
    80b4:	e12fff1e 	bx	lr

000080b8 <GETPC>:
    80b8:	e1a0000e 	mov	r0, lr
    80bc:	e12fff1e 	bx	lr

000080c0 <BRANCHTO>:
    80c0:	e12fff10 	bx	r0

000080c4 <dummy>:
    80c4:	e12fff1e 	bx	lr

000080c8 <irq>:
    80c8:	ea000190 	b	8710 <ctx_switch_from_irq>

000080cc <swi>:
    80cc:	ea000251 	b	8a18 <SWIHandler>

000080d0 <funcA>:
    80d0:	e24dd008 	sub	sp, sp, #8
    80d4:	e3a03000 	mov	r3, #0
    80d8:	e58d3004 	str	r3, [sp, #4]
    80dc:	ea000000 	b	80e4 <funcA+0x14>
    80e0:	e1a00000 	nop			; (mov r0, r0)
    80e4:	e59d3004 	ldr	r3, [sp, #4]
    80e8:	e2833001 	add	r3, r3, #1
    80ec:	e58d3004 	str	r3, [sp, #4]
    80f0:	e59d2004 	ldr	r2, [sp, #4]
    80f4:	e59f3010 	ldr	r3, [pc, #16]	; 810c <funcA+0x3c>
    80f8:	e1520003 	cmp	r2, r3
    80fc:	dafffff7 	ble	80e0 <funcA+0x10>
    8100:	e3a03000 	mov	r3, #0
    8104:	e58d3004 	str	r3, [sp, #4]
    8108:	eafffff4 	b	80e0 <funcA+0x10>
    810c:	0016e360 	andseq	lr, r6, r0, ror #6

00008110 <funcB>:
    8110:	e24dd008 	sub	sp, sp, #8
    8114:	e3a03001 	mov	r3, #1
    8118:	e58d3004 	str	r3, [sp, #4]
    811c:	e59d3004 	ldr	r3, [sp, #4]
    8120:	e2833002 	add	r3, r3, #2
    8124:	e58d3004 	str	r3, [sp, #4]
    8128:	eafffffb 	b	811c <funcB+0xc>

0000812c <kmain>:
    812c:	e92d4008 	push	{r3, lr}
    8130:	eb000070 	bl	82f8 <init_hw>
    8134:	eb000249 	bl	8a60 <init_kern_translation_table>
    8138:	eb0002d5 	bl	8c94 <configure_mmu_C>
    813c:	eb0002c8 	bl	8c64 <start_mmu_C>
    8140:	eafffffe 	b	8140 <kmain+0x14>

00008144 <phyAlloc_alloc>:
    8144:	e92d0030 	push	{r4, r5}
    8148:	e24dd008 	sub	sp, sp, #8
    814c:	e58d0004 	str	r0, [sp, #4]
    8150:	e59f3094 	ldr	r3, [pc, #148]	; 81ec <phyAlloc_alloc+0xa8>
    8154:	e5934000 	ldr	r4, [r3]
    8158:	e59f508c 	ldr	r5, [pc, #140]	; 81ec <phyAlloc_alloc+0xa8>
    815c:	ea000001 	b	8168 <phyAlloc_alloc+0x24>
    8160:	e1a05004 	mov	r5, r4
    8164:	e5944000 	ldr	r4, [r4]
    8168:	e3540000 	cmp	r4, #0
    816c:	0a000003 	beq	8180 <phyAlloc_alloc+0x3c>
    8170:	e5942004 	ldr	r2, [r4, #4]
    8174:	e59d3004 	ldr	r3, [sp, #4]
    8178:	e1520003 	cmp	r2, r3
    817c:	3afffff7 	bcc	8160 <phyAlloc_alloc+0x1c>
    8180:	e3540000 	cmp	r4, #0
    8184:	1a000011 	bne	81d0 <phyAlloc_alloc+0x8c>
    8188:	e59f3060 	ldr	r3, [pc, #96]	; 81f0 <phyAlloc_alloc+0xac>
    818c:	e5934000 	ldr	r4, [r3]
    8190:	e59f3058 	ldr	r3, [pc, #88]	; 81f0 <phyAlloc_alloc+0xac>
    8194:	e5932000 	ldr	r2, [r3]
    8198:	e59d3004 	ldr	r3, [sp, #4]
    819c:	e2833003 	add	r3, r3, #3
    81a0:	e3c33003 	bic	r3, r3, #3
    81a4:	e0822003 	add	r2, r2, r3
    81a8:	e59f3040 	ldr	r3, [pc, #64]	; 81f0 <phyAlloc_alloc+0xac>
    81ac:	e5832000 	str	r2, [r3]
    81b0:	e59f3038 	ldr	r3, [pc, #56]	; 81f0 <phyAlloc_alloc+0xac>
    81b4:	e5932000 	ldr	r2, [r3]
    81b8:	e59f3034 	ldr	r3, [pc, #52]	; 81f4 <phyAlloc_alloc+0xb0>
    81bc:	e5933000 	ldr	r3, [r3]
    81c0:	e1520003 	cmp	r2, r3
    81c4:	9a000003 	bls	81d8 <phyAlloc_alloc+0x94>
    81c8:	e3a03000 	mov	r3, #0
    81cc:	ea000002 	b	81dc <phyAlloc_alloc+0x98>
    81d0:	e5943000 	ldr	r3, [r4]
    81d4:	e5853000 	str	r3, [r5]
    81d8:	e1a03004 	mov	r3, r4
    81dc:	e1a00003 	mov	r0, r3
    81e0:	e28dd008 	add	sp, sp, #8
    81e4:	e8bd0030 	pop	{r4, r5}
    81e8:	e12fff1e 	bx	lr
    81ec:	00008d00 	andeq	r8, r0, r0, lsl #26
    81f0:	00008d04 	andeq	r8, r0, r4, lsl #26
    81f4:	00008d08 	andeq	r8, r0, r8, lsl #26

000081f8 <phyAlloc_free>:
    81f8:	e52d4004 	push	{r4}		; (str r4, [sp, #-4]!)
    81fc:	e24dd00c 	sub	sp, sp, #12
    8200:	e58d0004 	str	r0, [sp, #4]
    8204:	e58d1000 	str	r1, [sp]
    8208:	e59d4004 	ldr	r4, [sp, #4]
    820c:	e59d3000 	ldr	r3, [sp]
    8210:	e2833003 	add	r3, r3, #3
    8214:	e3c33003 	bic	r3, r3, #3
    8218:	e5843004 	str	r3, [r4, #4]
    821c:	e59f3018 	ldr	r3, [pc, #24]	; 823c <phyAlloc_free+0x44>
    8220:	e5933000 	ldr	r3, [r3]
    8224:	e5843000 	str	r3, [r4]
    8228:	e59f300c 	ldr	r3, [pc, #12]	; 823c <phyAlloc_free+0x44>
    822c:	e5834000 	str	r4, [r3]
    8230:	e28dd00c 	add	sp, sp, #12
    8234:	e8bd0010 	pop	{r4}
    8238:	e12fff1e 	bx	lr
    823c:	00008d00 	andeq	r8, r0, r0, lsl #26

00008240 <phyAlloc_init>:
    8240:	e24dd008 	sub	sp, sp, #8
    8244:	e58d0004 	str	r0, [sp, #4]
    8248:	e58d1000 	str	r1, [sp]
    824c:	e59f3020 	ldr	r3, [pc, #32]	; 8274 <phyAlloc_init+0x34>
    8250:	e59d2004 	ldr	r2, [sp, #4]
    8254:	e5832000 	str	r2, [r3]
    8258:	e59d2004 	ldr	r2, [sp, #4]
    825c:	e59d3000 	ldr	r3, [sp]
    8260:	e0822003 	add	r2, r2, r3
    8264:	e59f300c 	ldr	r3, [pc, #12]	; 8278 <phyAlloc_init+0x38>
    8268:	e5832000 	str	r2, [r3]
    826c:	e28dd008 	add	sp, sp, #8
    8270:	e12fff1e 	bx	lr
    8274:	00008d04 	andeq	r8, r0, r4, lsl #26
    8278:	00008d08 	andeq	r8, r0, r8, lsl #26

0000827c <set_tick_and_enable_timer>:
    827c:	e52de004 	push	{lr}		; (str lr, [sp, #-4]!)
    8280:	e24dd00c 	sub	sp, sp, #12
    8284:	e59f0030 	ldr	r0, [pc, #48]	; 82bc <set_tick_and_enable_timer+0x40>
    8288:	ebffff88 	bl	80b0 <GET32>
    828c:	e58d0004 	str	r0, [sp, #4]
    8290:	e59d3004 	ldr	r3, [sp, #4]
    8294:	e2833702 	add	r3, r3, #524288	; 0x80000
    8298:	e58d3004 	str	r3, [sp, #4]
    829c:	e59f001c 	ldr	r0, [pc, #28]	; 82c0 <set_tick_and_enable_timer+0x44>
    82a0:	e59d1004 	ldr	r1, [sp, #4]
    82a4:	ebffff7b 	bl	8098 <PUT32>
    82a8:	e59f0014 	ldr	r0, [pc, #20]	; 82c4 <set_tick_and_enable_timer+0x48>
    82ac:	e3a01002 	mov	r1, #2
    82b0:	ebffff78 	bl	8098 <PUT32>
    82b4:	e28dd00c 	add	sp, sp, #12
    82b8:	e8bd8000 	pop	{pc}
    82bc:	20003004 	andcs	r3, r0, r4
    82c0:	20003010 	andcs	r3, r0, r0, lsl r0
    82c4:	20003000 	andcs	r3, r0, r0

000082c8 <led_off>:
    82c8:	e92d4008 	push	{r3, lr}
    82cc:	e59f0008 	ldr	r0, [pc, #8]	; 82dc <led_off+0x14>
    82d0:	e3a01801 	mov	r1, #65536	; 0x10000
    82d4:	ebffff6f 	bl	8098 <PUT32>
    82d8:	e8bd8008 	pop	{r3, pc}
    82dc:	2020001c 	eorcs	r0, r0, ip, lsl r0

000082e0 <led_on>:
    82e0:	e92d4008 	push	{r3, lr}
    82e4:	e59f0008 	ldr	r0, [pc, #8]	; 82f4 <led_on+0x14>
    82e8:	e3a01801 	mov	r1, #65536	; 0x10000
    82ec:	ebffff69 	bl	8098 <PUT32>
    82f0:	e8bd8008 	pop	{r3, pc}
    82f4:	20200028 	eorcs	r0, r0, r8, lsr #32

000082f8 <init_hw>:
    82f8:	e52de004 	push	{lr}		; (str lr, [sp, #-4]!)
    82fc:	e24dd00c 	sub	sp, sp, #12
    8300:	e59f0098 	ldr	r0, [pc, #152]	; 83a0 <init_hw+0xa8>
    8304:	ebffff69 	bl	80b0 <GET32>
    8308:	e58d0004 	str	r0, [sp, #4]
    830c:	e59d3004 	ldr	r3, [sp, #4]
    8310:	e3c33707 	bic	r3, r3, #1835008	; 0x1c0000
    8314:	e58d3004 	str	r3, [sp, #4]
    8318:	e59d3004 	ldr	r3, [sp, #4]
    831c:	e3833701 	orr	r3, r3, #262144	; 0x40000
    8320:	e58d3004 	str	r3, [sp, #4]
    8324:	e59f0074 	ldr	r0, [pc, #116]	; 83a0 <init_hw+0xa8>
    8328:	e59d1004 	ldr	r1, [sp, #4]
    832c:	ebffff59 	bl	8098 <PUT32>
    8330:	e59f006c 	ldr	r0, [pc, #108]	; 83a4 <init_hw+0xac>
    8334:	e3a01801 	mov	r1, #65536	; 0x10000
    8338:	ebffff56 	bl	8098 <PUT32>
    833c:	e59f0064 	ldr	r0, [pc, #100]	; 83a8 <init_hw+0xb0>
    8340:	ebffff5a 	bl	80b0 <GET32>
    8344:	e58d0000 	str	r0, [sp]
    8348:	e59d3000 	ldr	r3, [sp]
    834c:	e2833702 	add	r3, r3, #524288	; 0x80000
    8350:	e58d3000 	str	r3, [sp]
    8354:	e59f0050 	ldr	r0, [pc, #80]	; 83ac <init_hw+0xb4>
    8358:	e59d1000 	ldr	r1, [sp]
    835c:	ebffff4d 	bl	8098 <PUT32>
    8360:	e59f0048 	ldr	r0, [pc, #72]	; 83b0 <init_hw+0xb8>
    8364:	e3a01002 	mov	r1, #2
    8368:	ebffff4a 	bl	8098 <PUT32>
    836c:	e59f0040 	ldr	r0, [pc, #64]	; 83b4 <init_hw+0xbc>
    8370:	e3a01002 	mov	r1, #2
    8374:	ebffff47 	bl	8098 <PUT32>
    8378:	e92d0001 	push	{r0}
    837c:	e10f0000 	mrs	r0, CPSR
    8380:	e3800080 	orr	r0, r0, #128	; 0x80
    8384:	e121f000 	msr	CPSR_c, r0
    8388:	e8bd0001 	pop	{r0}
    838c:	e3a00805 	mov	r0, #327680	; 0x50000
    8390:	e3a01a32 	mov	r1, #204800	; 0x32000
    8394:	ebffffa9 	bl	8240 <phyAlloc_init>
    8398:	e28dd00c 	add	sp, sp, #12
    839c:	e8bd8000 	pop	{pc}
    83a0:	20200004 	eorcs	r0, r0, r4
    83a4:	2020001c 	eorcs	r0, r0, ip, lsl r0
    83a8:	20003004 	andcs	r3, r0, r4
    83ac:	20003010 	andcs	r3, r0, r0, lsl r0
    83b0:	20003000 	andcs	r3, r0, r0
    83b4:	2000b210 	andcs	fp, r0, r0, lsl r2

000083b8 <init_ctx>:
    83b8:	e52de004 	push	{lr}		; (str lr, [sp, #-4]!)
    83bc:	e24dd014 	sub	sp, sp, #20
    83c0:	e58d000c 	str	r0, [sp, #12]
    83c4:	e58d1008 	str	r1, [sp, #8]
    83c8:	e58d2004 	str	r2, [sp, #4]
    83cc:	e59d0004 	ldr	r0, [sp, #4]
    83d0:	ebffff5b 	bl	8144 <phyAlloc_alloc>
    83d4:	e1a02000 	mov	r2, r0
    83d8:	e59d300c 	ldr	r3, [sp, #12]
    83dc:	e5832008 	str	r2, [r3, #8]
    83e0:	e59d300c 	ldr	r3, [sp, #12]
    83e4:	e5933008 	ldr	r3, [r3, #8]
    83e8:	e2833e7f 	add	r3, r3, #2032	; 0x7f0
    83ec:	e283300c 	add	r3, r3, #12
    83f0:	e59d200c 	ldr	r2, [sp, #12]
    83f4:	e5823000 	str	r3, [r2]
    83f8:	e59d300c 	ldr	r3, [sp, #12]
    83fc:	e59d2008 	ldr	r2, [sp, #8]
    8400:	e5832004 	str	r2, [r3, #4]
    8404:	e28dd014 	add	sp, sp, #20
    8408:	e8bd8000 	pop	{pc}

0000840c <init_pcb>:
    840c:	e52de004 	push	{lr}		; (str lr, [sp, #-4]!)
    8410:	e24dd01c 	sub	sp, sp, #28
    8414:	e58d000c 	str	r0, [sp, #12]
    8418:	e58d1008 	str	r1, [sp, #8]
    841c:	e58d2004 	str	r2, [sp, #4]
    8420:	e58d3000 	str	r3, [sp]
    8424:	e59d300c 	ldr	r3, [sp, #12]
    8428:	e59d2008 	ldr	r2, [sp, #8]
    842c:	e5832008 	str	r2, [r3, #8]
    8430:	e59d300c 	ldr	r3, [sp, #12]
    8434:	e59d2000 	ldr	r2, [sp]
    8438:	e5832004 	str	r2, [r3, #4]
    843c:	e3a0000c 	mov	r0, #12
    8440:	ebffff3f 	bl	8144 <phyAlloc_alloc>
    8444:	e58d0014 	str	r0, [sp, #20]
    8448:	e59d0014 	ldr	r0, [sp, #20]
    844c:	e59d1008 	ldr	r1, [sp, #8]
    8450:	e59d2004 	ldr	r2, [sp, #4]
    8454:	ebffffd7 	bl	83b8 <init_ctx>
    8458:	e59d300c 	ldr	r3, [sp, #12]
    845c:	e59d2014 	ldr	r2, [sp, #20]
    8460:	e583200c 	str	r2, [r3, #12]
    8464:	e59d300c 	ldr	r3, [sp, #12]
    8468:	e3a02000 	mov	r2, #0
    846c:	e5832010 	str	r2, [r3, #16]
    8470:	e28dd01c 	add	sp, sp, #28
    8474:	e8bd8000 	pop	{pc}

00008478 <create_process>:
    8478:	e52de004 	push	{lr}		; (str lr, [sp, #-4]!)
    847c:	e24dd01c 	sub	sp, sp, #28
    8480:	e58d000c 	str	r0, [sp, #12]
    8484:	e58d1008 	str	r1, [sp, #8]
    8488:	e58d2004 	str	r2, [sp, #4]
    848c:	e3a00018 	mov	r0, #24
    8490:	ebffff2b 	bl	8144 <phyAlloc_alloc>
    8494:	e58d0014 	str	r0, [sp, #20]
    8498:	e59d0014 	ldr	r0, [sp, #20]
    849c:	e59d100c 	ldr	r1, [sp, #12]
    84a0:	e59d2004 	ldr	r2, [sp, #4]
    84a4:	e59d3008 	ldr	r3, [sp, #8]
    84a8:	ebffffd7 	bl	840c <init_pcb>
    84ac:	e59f30a8 	ldr	r3, [pc, #168]	; 855c <create_process+0xe4>
    84b0:	e5933000 	ldr	r3, [r3]
    84b4:	e5933010 	ldr	r3, [r3, #16]
    84b8:	e3530000 	cmp	r3, #0
    84bc:	0a000018 	beq	8524 <create_process+0xac>
    84c0:	e59f3094 	ldr	r3, [pc, #148]	; 855c <create_process+0xe4>
    84c4:	e5933000 	ldr	r3, [r3]
    84c8:	e5933010 	ldr	r3, [r3, #16]
    84cc:	e3530001 	cmp	r3, #1
    84d0:	0a000013 	beq	8524 <create_process+0xac>
    84d4:	e59f3080 	ldr	r3, [pc, #128]	; 855c <create_process+0xe4>
    84d8:	e5933000 	ldr	r3, [r3]
    84dc:	e5933010 	ldr	r3, [r3, #16]
    84e0:	e3530003 	cmp	r3, #3
    84e4:	0a00000e 	beq	8524 <create_process+0xac>
    84e8:	e59f306c 	ldr	r3, [pc, #108]	; 855c <create_process+0xe4>
    84ec:	e5933000 	ldr	r3, [r3]
    84f0:	e5933010 	ldr	r3, [r3, #16]
    84f4:	e3530002 	cmp	r3, #2
    84f8:	0a000009 	beq	8524 <create_process+0xac>
    84fc:	e59f3058 	ldr	r3, [pc, #88]	; 855c <create_process+0xe4>
    8500:	e59d2014 	ldr	r2, [sp, #20]
    8504:	e5832000 	str	r2, [r3]
    8508:	e59f304c 	ldr	r3, [pc, #76]	; 855c <create_process+0xe4>
    850c:	e59d2014 	ldr	r2, [sp, #20]
    8510:	e5832000 	str	r2, [r3]
    8514:	e59f3040 	ldr	r3, [pc, #64]	; 855c <create_process+0xe4>
    8518:	e59d2014 	ldr	r2, [sp, #20]
    851c:	e5832004 	str	r2, [r3, #4]
    8520:	ea00000b 	b	8554 <create_process+0xdc>
    8524:	e59f3030 	ldr	r3, [pc, #48]	; 855c <create_process+0xe4>
    8528:	e5933004 	ldr	r3, [r3, #4]
    852c:	e59d2014 	ldr	r2, [sp, #20]
    8530:	e5832000 	str	r2, [r3]
    8534:	e59f3020 	ldr	r3, [pc, #32]	; 855c <create_process+0xe4>
    8538:	e59d2014 	ldr	r2, [sp, #20]
    853c:	e5832004 	str	r2, [r3, #4]
    8540:	e59f3014 	ldr	r3, [pc, #20]	; 855c <create_process+0xe4>
    8544:	e5933004 	ldr	r3, [r3, #4]
    8548:	e59f200c 	ldr	r2, [pc, #12]	; 855c <create_process+0xe4>
    854c:	e5922000 	ldr	r2, [r2]
    8550:	e5832000 	str	r2, [r3]
    8554:	e28dd01c 	add	sp, sp, #28
    8558:	e8bd8000 	pop	{pc}
    855c:	00008d20 	andeq	r8, r0, r0, lsr #26

00008560 <start_current_process>:
    8560:	e92d4008 	push	{r3, lr}
    8564:	e92d0001 	push	{r0}
    8568:	e10f0000 	mrs	r0, CPSR
    856c:	e3c00080 	bic	r0, r0, #128	; 0x80
    8570:	e121f000 	msr	CPSR_c, r0
    8574:	e8bd0001 	pop	{r0}
    8578:	ebffff3f 	bl	827c <set_tick_and_enable_timer>
    857c:	e59f3040 	ldr	r3, [pc, #64]	; 85c4 <start_current_process+0x64>
    8580:	e5933000 	ldr	r3, [r3]
    8584:	e3a02002 	mov	r2, #2
    8588:	e5832010 	str	r2, [r3, #16]
    858c:	e59f3030 	ldr	r3, [pc, #48]	; 85c4 <start_current_process+0x64>
    8590:	e5933000 	ldr	r3, [r3]
    8594:	e5933008 	ldr	r3, [r3, #8]
    8598:	e12fff33 	blx	r3
    859c:	e92d0001 	push	{r0}
    85a0:	e10f0000 	mrs	r0, CPSR
    85a4:	e3800080 	orr	r0, r0, #128	; 0x80
    85a8:	e121f000 	msr	CPSR_c, r0
    85ac:	e8bd0001 	pop	{r0}
    85b0:	e59f300c 	ldr	r3, [pc, #12]	; 85c4 <start_current_process+0x64>
    85b4:	e5933000 	ldr	r3, [r3]
    85b8:	e3a02003 	mov	r2, #3
    85bc:	e5832010 	str	r2, [r3, #16]
    85c0:	e8bd8008 	pop	{r3, pc}
    85c4:	00008d28 	andeq	r8, r0, r8, lsr #26

000085c8 <terminate_process>:
    85c8:	e52de004 	push	{lr}		; (str lr, [sp, #-4]!)
    85cc:	e24dd00c 	sub	sp, sp, #12
    85d0:	e59f30e0 	ldr	r3, [pc, #224]	; 86b8 <terminate_process+0xf0>
    85d4:	e5933000 	ldr	r3, [r3]
    85d8:	e58d3004 	str	r3, [sp, #4]
    85dc:	ea00002d 	b	8698 <terminate_process+0xd0>
    85e0:	e59d3004 	ldr	r3, [sp, #4]
    85e4:	e5933000 	ldr	r3, [r3]
    85e8:	e58d3004 	str	r3, [sp, #4]
    85ec:	ea000000 	b	85f4 <terminate_process+0x2c>
    85f0:	e1a00000 	nop			; (mov r0, r0)
    85f4:	e59d3004 	ldr	r3, [sp, #4]
    85f8:	e5933000 	ldr	r3, [r3]
    85fc:	e5933010 	ldr	r3, [r3, #16]
    8600:	e3530003 	cmp	r3, #3
    8604:	0a000005 	beq	8620 <terminate_process+0x58>
    8608:	e59d3004 	ldr	r3, [sp, #4]
    860c:	e5932000 	ldr	r2, [r3]
    8610:	e59f30a0 	ldr	r3, [pc, #160]	; 86b8 <terminate_process+0xf0>
    8614:	e5933000 	ldr	r3, [r3]
    8618:	e1520003 	cmp	r2, r3
    861c:	1affffef 	bne	85e0 <terminate_process+0x18>
    8620:	e59d3004 	ldr	r3, [sp, #4]
    8624:	e5933000 	ldr	r3, [r3]
    8628:	e5933010 	ldr	r3, [r3, #16]
    862c:	e3530003 	cmp	r3, #3
    8630:	1a000018 	bne	8698 <terminate_process+0xd0>
    8634:	e59d3004 	ldr	r3, [sp, #4]
    8638:	e5933000 	ldr	r3, [r3]
    863c:	e5933000 	ldr	r3, [r3]
    8640:	e58d3000 	str	r3, [sp]
    8644:	e59d3004 	ldr	r3, [sp, #4]
    8648:	e5933000 	ldr	r3, [r3]
    864c:	e593300c 	ldr	r3, [r3, #12]
    8650:	e5933008 	ldr	r3, [r3, #8]
    8654:	e1a00003 	mov	r0, r3
    8658:	e3a01b02 	mov	r1, #2048	; 0x800
    865c:	ebfffee5 	bl	81f8 <phyAlloc_free>
    8660:	e59d3004 	ldr	r3, [sp, #4]
    8664:	e5933000 	ldr	r3, [r3]
    8668:	e593300c 	ldr	r3, [r3, #12]
    866c:	e1a00003 	mov	r0, r3
    8670:	e3a0100c 	mov	r1, #12
    8674:	ebfffedf 	bl	81f8 <phyAlloc_free>
    8678:	e59d3004 	ldr	r3, [sp, #4]
    867c:	e5933000 	ldr	r3, [r3]
    8680:	e1a00003 	mov	r0, r3
    8684:	e3a01018 	mov	r1, #24
    8688:	ebfffeda 	bl	81f8 <phyAlloc_free>
    868c:	e59d3004 	ldr	r3, [sp, #4]
    8690:	e59d2000 	ldr	r2, [sp]
    8694:	e5832000 	str	r2, [r3]
    8698:	e59d3004 	ldr	r3, [sp, #4]
    869c:	e5932000 	ldr	r2, [r3]
    86a0:	e59f3010 	ldr	r3, [pc, #16]	; 86b8 <terminate_process+0xf0>
    86a4:	e5933000 	ldr	r3, [r3]
    86a8:	e1520003 	cmp	r2, r3
    86ac:	1affffcf 	bne	85f0 <terminate_process+0x28>
    86b0:	e28dd00c 	add	sp, sp, #12
    86b4:	e8bd8000 	pop	{pc}
    86b8:	00008d20 	andeq	r8, r0, r0, lsr #26

000086bc <elect>:
    86bc:	e59f3010 	ldr	r3, [pc, #16]	; 86d4 <elect+0x18>
    86c0:	e5933000 	ldr	r3, [r3]
    86c4:	e5932000 	ldr	r2, [r3]
    86c8:	e59f3004 	ldr	r3, [pc, #4]	; 86d4 <elect+0x18>
    86cc:	e5832000 	str	r2, [r3]
    86d0:	e12fff1e 	bx	lr
    86d4:	00008d28 	andeq	r8, r0, r8, lsr #26

000086d8 <start_sched>:
    86d8:	e92d4008 	push	{r3, lr}
    86dc:	e92d0001 	push	{r0}
    86e0:	e10f0000 	mrs	r0, CPSR
    86e4:	e3c00080 	bic	r0, r0, #128	; 0x80
    86e8:	e121f000 	msr	CPSR_c, r0
    86ec:	e8bd0001 	pop	{r0}
    86f0:	ebfffee1 	bl	827c <set_tick_and_enable_timer>
    86f4:	e59f300c 	ldr	r3, [pc, #12]	; 8708 <start_sched+0x30>
    86f8:	e5932000 	ldr	r2, [r3]
    86fc:	e59f3008 	ldr	r3, [pc, #8]	; 870c <start_sched+0x34>
    8700:	e5832000 	str	r2, [r3]
    8704:	e8bd8008 	pop	{r3, pc}
    8708:	00008d20 	andeq	r8, r0, r0, lsr #26
    870c:	00008d28 	andeq	r8, r0, r8, lsr #26

00008710 <ctx_switch_from_irq>:
    8710:	e52de004 	push	{lr}		; (str lr, [sp, #-4]!)
    8714:	e24dd00c 	sub	sp, sp, #12
    8718:	e92d0001 	push	{r0}
    871c:	e10f0000 	mrs	r0, CPSR
    8720:	e3800080 	orr	r0, r0, #128	; 0x80
    8724:	e121f000 	msr	CPSR_c, r0
    8728:	e8bd0001 	pop	{r0}
    872c:	e24ee004 	sub	lr, lr, #4
    8730:	f96d0513 	srsdb	sp!, #19
    8734:	f1020013 	cps	#19
    8738:	e59f3150 	ldr	r3, [pc, #336]	; 8890 <ctx_switch_from_irq+0x180>
    873c:	e5933000 	ldr	r3, [r3]
    8740:	e3530000 	cmp	r3, #0
    8744:	0a000013 	beq	8798 <ctx_switch_from_irq+0x88>
    8748:	e59f3140 	ldr	r3, [pc, #320]	; 8890 <ctx_switch_from_irq+0x180>
    874c:	e5933000 	ldr	r3, [r3]
    8750:	e5933010 	ldr	r3, [r3, #16]
    8754:	e3530000 	cmp	r3, #0
    8758:	0a00000e 	beq	8798 <ctx_switch_from_irq+0x88>
    875c:	e92d1fff 	push	{r0, r1, r2, r3, r4, r5, r6, r7, r8, r9, sl, fp, ip}
    8760:	e59f3128 	ldr	r3, [pc, #296]	; 8890 <ctx_switch_from_irq+0x180>
    8764:	e5933000 	ldr	r3, [r3]
    8768:	e593300c 	ldr	r3, [r3, #12]
    876c:	e1a0200d 	mov	r2, sp
    8770:	e5832000 	str	r2, [r3]
    8774:	e59f3114 	ldr	r3, [pc, #276]	; 8890 <ctx_switch_from_irq+0x180>
    8778:	e5933000 	ldr	r3, [r3]
    877c:	e593300c 	ldr	r3, [r3, #12]
    8780:	e1a0200e 	mov	r2, lr
    8784:	e5832004 	str	r2, [r3, #4]
    8788:	e59f3100 	ldr	r3, [pc, #256]	; 8890 <ctx_switch_from_irq+0x180>
    878c:	e5933000 	ldr	r3, [r3]
    8790:	e3a02001 	mov	r2, #1
    8794:	e5832010 	str	r2, [r3, #16]
    8798:	ebffffc7 	bl	86bc <elect>
    879c:	e59f30ec 	ldr	r3, [pc, #236]	; 8890 <ctx_switch_from_irq+0x180>
    87a0:	e5933000 	ldr	r3, [r3]
    87a4:	e5933010 	ldr	r3, [r3, #16]
    87a8:	e3530003 	cmp	r3, #3
    87ac:	1a000014 	bne	8804 <ctx_switch_from_irq+0xf4>
    87b0:	e59f30d8 	ldr	r3, [pc, #216]	; 8890 <ctx_switch_from_irq+0x180>
    87b4:	e5933000 	ldr	r3, [r3]
    87b8:	e58d3004 	str	r3, [sp, #4]
    87bc:	ea000002 	b	87cc <ctx_switch_from_irq+0xbc>
    87c0:	e59d3004 	ldr	r3, [sp, #4]
    87c4:	e5933000 	ldr	r3, [r3]
    87c8:	e58d3004 	str	r3, [sp, #4]
    87cc:	e59d3004 	ldr	r3, [sp, #4]
    87d0:	e5933000 	ldr	r3, [r3]
    87d4:	e5933010 	ldr	r3, [r3, #16]
    87d8:	e3530003 	cmp	r3, #3
    87dc:	0afffff7 	beq	87c0 <ctx_switch_from_irq+0xb0>
    87e0:	e59d3004 	ldr	r3, [sp, #4]
    87e4:	e5932000 	ldr	r2, [r3]
    87e8:	e59f30a0 	ldr	r3, [pc, #160]	; 8890 <ctx_switch_from_irq+0x180>
    87ec:	e5832000 	str	r2, [r3]
    87f0:	ebffff74 	bl	85c8 <terminate_process>
    87f4:	ea000002 	b	8804 <ctx_switch_from_irq+0xf4>
    87f8:	ebffff58 	bl	8560 <start_current_process>
    87fc:	ebffffae 	bl	86bc <elect>
    8800:	ea000000 	b	8808 <ctx_switch_from_irq+0xf8>
    8804:	e1a00000 	nop			; (mov r0, r0)
    8808:	e59f3080 	ldr	r3, [pc, #128]	; 8890 <ctx_switch_from_irq+0x180>
    880c:	e5933000 	ldr	r3, [r3]
    8810:	e5933010 	ldr	r3, [r3, #16]
    8814:	e3530000 	cmp	r3, #0
    8818:	0afffff6 	beq	87f8 <ctx_switch_from_irq+0xe8>
    881c:	e59f306c 	ldr	r3, [pc, #108]	; 8890 <ctx_switch_from_irq+0x180>
    8820:	e5933000 	ldr	r3, [r3]
    8824:	e5933010 	ldr	r3, [r3, #16]
    8828:	e3530001 	cmp	r3, #1
    882c:	1a000003 	bne	8840 <ctx_switch_from_irq+0x130>
    8830:	e59f3058 	ldr	r3, [pc, #88]	; 8890 <ctx_switch_from_irq+0x180>
    8834:	e5933000 	ldr	r3, [r3]
    8838:	e3a02002 	mov	r2, #2
    883c:	e5832010 	str	r2, [r3, #16]
    8840:	e59f3048 	ldr	r3, [pc, #72]	; 8890 <ctx_switch_from_irq+0x180>
    8844:	e5933000 	ldr	r3, [r3]
    8848:	e593300c 	ldr	r3, [r3, #12]
    884c:	e5933000 	ldr	r3, [r3]
    8850:	e1a0d003 	mov	sp, r3
    8854:	e59f3034 	ldr	r3, [pc, #52]	; 8890 <ctx_switch_from_irq+0x180>
    8858:	e5933000 	ldr	r3, [r3]
    885c:	e593300c 	ldr	r3, [r3, #12]
    8860:	e5933004 	ldr	r3, [r3, #4]
    8864:	e1a0e003 	mov	lr, r3
    8868:	e8bd1fff 	pop	{r0, r1, r2, r3, r4, r5, r6, r7, r8, r9, sl, fp, ip}
    886c:	e92d0001 	push	{r0}
    8870:	e10f0000 	mrs	r0, CPSR
    8874:	e3c00080 	bic	r0, r0, #128	; 0x80
    8878:	e121f000 	msr	CPSR_c, r0
    887c:	e8bd0001 	pop	{r0}
    8880:	ebfffe7d 	bl	827c <set_tick_and_enable_timer>
    8884:	f8bd0a00 	rfeia	sp!
    8888:	e28dd00c 	add	sp, sp, #12
    888c:	e8bd8000 	pop	{pc}
    8890:	00008d28 	andeq	r8, r0, r8, lsr #26

00008894 <ctx_switch>:
    8894:	e59f3108 	ldr	r3, [pc, #264]	; 89a4 <ctx_switch+0x110>
    8898:	e5933000 	ldr	r3, [r3]
    889c:	e5933010 	ldr	r3, [r3, #16]
    88a0:	e3530000 	cmp	r3, #0
    88a4:	1a000001 	bne	88b0 <ctx_switch+0x1c>
    88a8:	ebffff2c 	bl	8560 <start_current_process>
    88ac:	ea000021 	b	8938 <ctx_switch+0xa4>
    88b0:	e59f30ec 	ldr	r3, [pc, #236]	; 89a4 <ctx_switch+0x110>
    88b4:	e5933000 	ldr	r3, [r3]
    88b8:	e5933010 	ldr	r3, [r3, #16]
    88bc:	e3530003 	cmp	r3, #3
    88c0:	1a00000c 	bne	88f8 <ctx_switch+0x64>
    88c4:	e59f30d8 	ldr	r3, [pc, #216]	; 89a4 <ctx_switch+0x110>
    88c8:	e5934000 	ldr	r4, [r3]
    88cc:	ea000000 	b	88d4 <ctx_switch+0x40>
    88d0:	e5944000 	ldr	r4, [r4]
    88d4:	e5943000 	ldr	r3, [r4]
    88d8:	e5933010 	ldr	r3, [r3, #16]
    88dc:	e3530003 	cmp	r3, #3
    88e0:	0afffffa 	beq	88d0 <ctx_switch+0x3c>
    88e4:	e5942000 	ldr	r2, [r4]
    88e8:	e59f30b4 	ldr	r3, [pc, #180]	; 89a4 <ctx_switch+0x110>
    88ec:	e5832000 	str	r2, [r3]
    88f0:	ebffff34 	bl	85c8 <terminate_process>
    88f4:	ea00000f 	b	8938 <ctx_switch+0xa4>
    88f8:	e92d1fff 	push	{r0, r1, r2, r3, r4, r5, r6, r7, r8, r9, sl, fp, ip}
    88fc:	e59f30a0 	ldr	r3, [pc, #160]	; 89a4 <ctx_switch+0x110>
    8900:	e5933000 	ldr	r3, [r3]
    8904:	e593300c 	ldr	r3, [r3, #12]
    8908:	e1a0200d 	mov	r2, sp
    890c:	e5832000 	str	r2, [r3]
    8910:	e59f308c 	ldr	r3, [pc, #140]	; 89a4 <ctx_switch+0x110>
    8914:	e5933000 	ldr	r3, [r3]
    8918:	e593300c 	ldr	r3, [r3, #12]
    891c:	e1a0200e 	mov	r2, lr
    8920:	e5832004 	str	r2, [r3, #4]
    8924:	e59f3078 	ldr	r3, [pc, #120]	; 89a4 <ctx_switch+0x110>
    8928:	e5933000 	ldr	r3, [r3]
    892c:	e3a02001 	mov	r2, #1
    8930:	e5832010 	str	r2, [r3, #16]
    8934:	ebffff60 	bl	86bc <elect>
    8938:	e59f3064 	ldr	r3, [pc, #100]	; 89a4 <ctx_switch+0x110>
    893c:	e5933000 	ldr	r3, [r3]
    8940:	e5933010 	ldr	r3, [r3, #16]
    8944:	e3530000 	cmp	r3, #0
    8948:	1a000000 	bne	8950 <ctx_switch+0xbc>
    894c:	ebffff03 	bl	8560 <start_current_process>
    8950:	e59f304c 	ldr	r3, [pc, #76]	; 89a4 <ctx_switch+0x110>
    8954:	e5933000 	ldr	r3, [r3]
    8958:	e5933010 	ldr	r3, [r3, #16]
    895c:	e3530001 	cmp	r3, #1
    8960:	1a00000f 	bne	89a4 <ctx_switch+0x110>
    8964:	e59f3038 	ldr	r3, [pc, #56]	; 89a4 <ctx_switch+0x110>
    8968:	e5933000 	ldr	r3, [r3]
    896c:	e3a02002 	mov	r2, #2
    8970:	e5832010 	str	r2, [r3, #16]
    8974:	e59f3028 	ldr	r3, [pc, #40]	; 89a4 <ctx_switch+0x110>
    8978:	e5933000 	ldr	r3, [r3]
    897c:	e593300c 	ldr	r3, [r3, #12]
    8980:	e5933000 	ldr	r3, [r3]
    8984:	e1a0d003 	mov	sp, r3
    8988:	e59f3014 	ldr	r3, [pc, #20]	; 89a4 <ctx_switch+0x110>
    898c:	e5933000 	ldr	r3, [r3]
    8990:	e593300c 	ldr	r3, [r3, #12]
    8994:	e5933004 	ldr	r3, [r3, #4]
    8998:	e1a0e003 	mov	lr, r3
    899c:	e8bd1fff 	pop	{r0, r1, r2, r3, r4, r5, r6, r7, r8, r9, sl, fp, ip}
    89a0:	e12fff1e 	bx	lr
    89a4:	00008d28 	andeq	r8, r0, r8, lsr #26

000089a8 <sys_reboot>:
    89a8:	e52de004 	push	{lr}		; (str lr, [sp, #-4]!)
    89ac:	e3a03001 	mov	r3, #1
    89b0:	e1a00003 	mov	r0, r3
    89b4:	ef000000 	svc	0x00000000
    89b8:	e49df004 	pop	{pc}		; (ldr pc, [sp], #4)

000089bc <sys_wait>:
    89bc:	e52de004 	push	{lr}		; (str lr, [sp, #-4]!)
    89c0:	e24dd00c 	sub	sp, sp, #12
    89c4:	e58d0004 	str	r0, [sp, #4]
    89c8:	e3a03001 	mov	r3, #1
    89cc:	e1a00003 	mov	r0, r3
    89d0:	e59d3004 	ldr	r3, [sp, #4]
    89d4:	e1a01003 	mov	r1, r3
    89d8:	ef000000 	svc	0x00000000
    89dc:	e28dd00c 	add	sp, sp, #12
    89e0:	e8bd8000 	pop	{pc}

000089e4 <doSysCallReboot>:
    89e4:	e12fff1e 	bx	lr

000089e8 <doSysCallWait>:
    89e8:	e52d4004 	push	{r4}		; (str r4, [sp, #-4]!)
    89ec:	e24dd00c 	sub	sp, sp, #12
    89f0:	e1a04001 	mov	r4, r1
    89f4:	e58d4004 	str	r4, [sp, #4]
    89f8:	e59f3014 	ldr	r3, [pc, #20]	; 8a14 <doSysCallWait+0x2c>
    89fc:	e5933000 	ldr	r3, [r3]
    8a00:	e59d2004 	ldr	r2, [sp, #4]
    8a04:	e5832008 	str	r2, [r3, #8]
    8a08:	e28dd00c 	add	sp, sp, #12
    8a0c:	e8bd0010 	pop	{r4}
    8a10:	e12fff1e 	bx	lr
    8a14:	00008d28 	andeq	r8, r0, r8, lsr #26

00008a18 <SWIHandler>:
    8a18:	e92d4010 	push	{r4, lr}
    8a1c:	e24dd008 	sub	sp, sp, #8
    8a20:	e3a03000 	mov	r3, #0
    8a24:	e58d3004 	str	r3, [sp, #4]
    8a28:	e1a04000 	mov	r4, r0
    8a2c:	e58d4004 	str	r4, [sp, #4]
    8a30:	e59d3004 	ldr	r3, [sp, #4]
    8a34:	e3530001 	cmp	r3, #1
    8a38:	0a000002 	beq	8a48 <SWIHandler+0x30>
    8a3c:	e3530002 	cmp	r3, #2
    8a40:	0a000002 	beq	8a50 <SWIHandler+0x38>
    8a44:	ea000003 	b	8a58 <SWIHandler+0x40>
    8a48:	ebffffe5 	bl	89e4 <doSysCallReboot>
    8a4c:	ea000001 	b	8a58 <SWIHandler+0x40>
    8a50:	ebffffe4 	bl	89e8 <doSysCallWait>
    8a54:	e1a00000 	nop			; (mov r0, r0)
    8a58:	e28dd008 	add	sp, sp, #8
    8a5c:	e8bd8010 	pop	{r4, pc}

00008a60 <init_kern_translation_table>:
    8a60:	e24dd008 	sub	sp, sp, #8
    8a64:	e59f3050 	ldr	r3, [pc, #80]	; 8abc <init_kern_translation_table+0x5c>
    8a68:	e3a02912 	mov	r2, #294912	; 0x48000
    8a6c:	e5832000 	str	r2, [r3]
    8a70:	e3a03000 	mov	r3, #0
    8a74:	e58d3004 	str	r3, [sp, #4]
    8a78:	ea000008 	b	8aa0 <init_kern_translation_table+0x40>
    8a7c:	e59f3038 	ldr	r3, [pc, #56]	; 8abc <init_kern_translation_table+0x5c>
    8a80:	e5932000 	ldr	r2, [r3]
    8a84:	e59d3004 	ldr	r3, [sp, #4]
    8a88:	e0823003 	add	r3, r2, r3
    8a8c:	e3a02000 	mov	r2, #0
    8a90:	e5c32000 	strb	r2, [r3]
    8a94:	e59d3004 	ldr	r3, [sp, #4]
    8a98:	e2833001 	add	r3, r3, #1
    8a9c:	e58d3004 	str	r3, [sp, #4]
    8aa0:	e59d2004 	ldr	r2, [sp, #4]
    8aa4:	e59f3014 	ldr	r3, [pc, #20]	; 8ac0 <init_kern_translation_table+0x60>
    8aa8:	e1520003 	cmp	r2, r3
    8aac:	dafffff2 	ble	8a7c <init_kern_translation_table+0x1c>
    8ab0:	e1a00003 	mov	r0, r3
    8ab4:	e28dd008 	add	sp, sp, #8
    8ab8:	e12fff1e 	bx	lr
    8abc:	00008d14 	andeq	r8, r0, r4, lsl sp
    8ac0:	00001fff 	strdeq	r1, [r0], -pc	; <UNPREDICTABLE>

00008ac4 <new_first_table>:
    8ac4:	e24dd010 	sub	sp, sp, #16
    8ac8:	e3a03000 	mov	r3, #0
    8acc:	e58d300c 	str	r3, [sp, #12]
    8ad0:	ea000032 	b	8ba0 <new_first_table+0xdc>
    8ad4:	e59d300c 	ldr	r3, [sp, #12]
    8ad8:	e58d3008 	str	r3, [sp, #8]
    8adc:	ea000027 	b	8b80 <new_first_table+0xbc>
    8ae0:	e59f30d8 	ldr	r3, [pc, #216]	; 8bc0 <new_first_table+0xfc>
    8ae4:	e5932000 	ldr	r2, [r3]
    8ae8:	e59d3008 	ldr	r3, [sp, #8]
    8aec:	e0823003 	add	r3, r2, r3
    8af0:	e5d33000 	ldrb	r3, [r3]
    8af4:	e3530000 	cmp	r3, #0
    8af8:	0a000003 	beq	8b0c <new_first_table+0x48>
    8afc:	e59d3008 	ldr	r3, [sp, #8]
    8b00:	e2833001 	add	r3, r3, #1
    8b04:	e58d300c 	str	r3, [sp, #12]
    8b08:	ea000021 	b	8b94 <new_first_table+0xd0>
    8b0c:	e59d300c 	ldr	r3, [sp, #12]
    8b10:	e283200f 	add	r2, r3, #15
    8b14:	e59d3008 	ldr	r3, [sp, #8]
    8b18:	e1520003 	cmp	r2, r3
    8b1c:	1a000014 	bne	8b74 <new_first_table+0xb0>
    8b20:	e3a03000 	mov	r3, #0
    8b24:	e58d3004 	str	r3, [sp, #4]
    8b28:	ea00000a 	b	8b58 <new_first_table+0x94>
    8b2c:	e59f308c 	ldr	r3, [pc, #140]	; 8bc0 <new_first_table+0xfc>
    8b30:	e5932000 	ldr	r2, [r3]
    8b34:	e59d100c 	ldr	r1, [sp, #12]
    8b38:	e59d3004 	ldr	r3, [sp, #4]
    8b3c:	e0813003 	add	r3, r1, r3
    8b40:	e0823003 	add	r3, r2, r3
    8b44:	e3a02001 	mov	r2, #1
    8b48:	e5c32000 	strb	r2, [r3]
    8b4c:	e59d3004 	ldr	r3, [sp, #4]
    8b50:	e2833001 	add	r3, r3, #1
    8b54:	e58d3004 	str	r3, [sp, #4]
    8b58:	e59d3004 	ldr	r3, [sp, #4]
    8b5c:	e353000f 	cmp	r3, #15
    8b60:	dafffff1 	ble	8b2c <new_first_table+0x68>
    8b64:	e59d300c 	ldr	r3, [sp, #12]
    8b68:	e2833e12 	add	r3, r3, #288	; 0x120
    8b6c:	e1a03503 	lsl	r3, r3, #10
    8b70:	ea00000f 	b	8bb4 <new_first_table+0xf0>
    8b74:	e59d3008 	ldr	r3, [sp, #8]
    8b78:	e2833001 	add	r3, r3, #1
    8b7c:	e58d3008 	str	r3, [sp, #8]
    8b80:	e59d300c 	ldr	r3, [sp, #12]
    8b84:	e2832010 	add	r2, r3, #16
    8b88:	e59d3008 	ldr	r3, [sp, #8]
    8b8c:	e1520003 	cmp	r2, r3
    8b90:	caffffd2 	bgt	8ae0 <new_first_table+0x1c>
    8b94:	e59d300c 	ldr	r3, [sp, #12]
    8b98:	e2833001 	add	r3, r3, #1
    8b9c:	e58d300c 	str	r3, [sp, #12]
    8ba0:	e59d200c 	ldr	r2, [sp, #12]
    8ba4:	e59f3018 	ldr	r3, [pc, #24]	; 8bc4 <new_first_table+0x100>
    8ba8:	e1520003 	cmp	r2, r3
    8bac:	daffffc8 	ble	8ad4 <new_first_table+0x10>
    8bb0:	e3a03000 	mov	r3, #0
    8bb4:	e1a00003 	mov	r0, r3
    8bb8:	e28dd010 	add	sp, sp, #16
    8bbc:	e12fff1e 	bx	lr
    8bc0:	00008d14 	andeq	r8, r0, r4, lsl sp
    8bc4:	00001fff 	strdeq	r1, [r0], -pc	; <UNPREDICTABLE>

00008bc8 <new_second_table>:
    8bc8:	e24dd008 	sub	sp, sp, #8
    8bcc:	e3a03000 	mov	r3, #0
    8bd0:	e58d3004 	str	r3, [sp, #4]
    8bd4:	ea000013 	b	8c28 <new_second_table+0x60>
    8bd8:	e59f3068 	ldr	r3, [pc, #104]	; 8c48 <new_second_table+0x80>
    8bdc:	e5932000 	ldr	r2, [r3]
    8be0:	e59d3004 	ldr	r3, [sp, #4]
    8be4:	e0823003 	add	r3, r2, r3
    8be8:	e5d33000 	ldrb	r3, [r3]
    8bec:	e3530000 	cmp	r3, #0
    8bf0:	1a000009 	bne	8c1c <new_second_table+0x54>
    8bf4:	e59f304c 	ldr	r3, [pc, #76]	; 8c48 <new_second_table+0x80>
    8bf8:	e5932000 	ldr	r2, [r3]
    8bfc:	e59d3004 	ldr	r3, [sp, #4]
    8c00:	e0823003 	add	r3, r2, r3
    8c04:	e3a02001 	mov	r2, #1
    8c08:	e5c32000 	strb	r2, [r3]
    8c0c:	e59d3004 	ldr	r3, [sp, #4]
    8c10:	e2833e12 	add	r3, r3, #288	; 0x120
    8c14:	e1a03503 	lsl	r3, r3, #10
    8c18:	ea000007 	b	8c3c <new_second_table+0x74>
    8c1c:	e59d3004 	ldr	r3, [sp, #4]
    8c20:	e2833001 	add	r3, r3, #1
    8c24:	e58d3004 	str	r3, [sp, #4]
    8c28:	e59d2004 	ldr	r2, [sp, #4]
    8c2c:	e59f3018 	ldr	r3, [pc, #24]	; 8c4c <new_second_table+0x84>
    8c30:	e1520003 	cmp	r2, r3
    8c34:	daffffe7 	ble	8bd8 <new_second_table+0x10>
    8c38:	e3a03000 	mov	r3, #0
    8c3c:	e1a00003 	mov	r0, r3
    8c40:	e28dd008 	add	sp, sp, #8
    8c44:	e12fff1e 	bx	lr
    8c48:	00008d14 	andeq	r8, r0, r4, lsl sp
    8c4c:	00001fff 	strdeq	r1, [r0], -pc	; <UNPREDICTABLE>

00008c50 <init_no_translation_pages>:
    8c50:	e24dd008 	sub	sp, sp, #8
    8c54:	e58d0004 	str	r0, [sp, #4]
    8c58:	e58d1000 	str	r1, [sp]
    8c5c:	e28dd008 	add	sp, sp, #8
    8c60:	e12fff1e 	bx	lr

00008c64 <start_mmu_C>:
    8c64:	e52d4004 	push	{r4}		; (str r4, [sp, #-4]!)
    8c68:	e3a03000 	mov	r3, #0
    8c6c:	ee013f10 	mcr	15, 0, r3, cr1, cr0, {0}
    8c70:	ee070f17 	mcr	15, 0, r0, cr7, cr7, {0}
    8c74:	ee080f17 	mcr	15, 0, r0, cr8, cr7, {0}
    8c78:	e59f4010 	ldr	r4, [pc, #16]	; 8c90 <start_mmu_C+0x2c>
    8c7c:	e3a03000 	mov	r3, #0
    8c80:	ee083f17 	mcr	15, 0, r3, cr8, cr7, {0}
    8c84:	ee014f10 	mcr	15, 0, r4, cr1, cr0, {0}
    8c88:	e8bd0010 	pop	{r4}
    8c8c:	e12fff1e 	bx	lr
    8c90:	00808011 	addeq	r8, r0, r1, lsl r0

00008c94 <configure_mmu_C>:
    8c94:	e52d4004 	push	{r4}		; (str r4, [sp, #-4]!)
    8c98:	e3a04912 	mov	r4, #294912	; 0x48000
    8c9c:	e59f302c 	ldr	r3, [pc, #44]	; 8cd0 <configure_mmu_C+0x3c>
    8ca0:	e5933000 	ldr	r3, [r3]
    8ca4:	e2832001 	add	r2, r3, #1
    8ca8:	e59f3020 	ldr	r3, [pc, #32]	; 8cd0 <configure_mmu_C+0x3c>
    8cac:	e5832000 	str	r2, [r3]
    8cb0:	ee024f10 	mcr	15, 0, r4, cr2, cr0, {0}
    8cb4:	ee024f30 	mcr	15, 0, r4, cr2, cr0, {1}
    8cb8:	e3a03000 	mov	r3, #0
    8cbc:	ee023f50 	mcr	15, 0, r3, cr2, cr0, {2}
    8cc0:	e3a03003 	mov	r3, #3
    8cc4:	ee033f10 	mcr	15, 0, r3, cr3, cr0, {0}
    8cc8:	e8bd0010 	pop	{r4}
    8ccc:	e12fff1e 	bx	lr
    8cd0:	00008d2c 	andeq	r8, r0, ip, lsr #26

00008cd4 <vMem_Alloc>:
    8cd4:	e24dd008 	sub	sp, sp, #8
    8cd8:	e58d0004 	str	r0, [sp, #4]
    8cdc:	e3a03000 	mov	r3, #0
    8ce0:	e1a00003 	mov	r0, r3
    8ce4:	e28dd008 	add	sp, sp, #8
    8ce8:	e12fff1e 	bx	lr

00008cec <vMem_Free>:
    8cec:	e24dd008 	sub	sp, sp, #8
    8cf0:	e58d0004 	str	r0, [sp, #4]
    8cf4:	e58d1000 	str	r1, [sp]
    8cf8:	e28dd008 	add	sp, sp, #8
    8cfc:	e12fff1e 	bx	lr

Disassembly of section .bss:

00008d00 <freelist>:
    8d00:	00000000 	andeq	r0, r0, r0

00008d04 <top>:
    8d04:	00000000 	andeq	r0, r0, r0

00008d08 <heap_limit>:
    8d08:	00000000 	andeq	r0, r0, r0

00008d0c <t_table>:
    8d0c:	00000000 	andeq	r0, r0, r0

00008d10 <pages_occupation>:
    8d10:	00000000 	andeq	r0, r0, r0

00008d14 <mini_table>:
    8d14:	00000000 	andeq	r0, r0, r0

00008d18 <device_flags>:
    8d18:	00000437 	andeq	r0, r0, r7, lsr r4

00008d1c <kernel_flags>:
    8d1c:	00000472 	andeq	r0, r0, r2, ror r4

00008d20 <CL>:
	...

00008d28 <current_process>:
    8d28:	00000000 	andeq	r0, r0, r0

00008d2c <total>:
    8d2c:	00000000 	andeq	r0, r0, r0

Disassembly of section .ARM.attributes:

00000000 <.ARM.attributes>:
   0:	00003141 	andeq	r3, r0, r1, asr #2
   4:	61656100 	cmnvs	r5, r0, lsl #2
   8:	01006962 	tsteq	r0, r2, ror #18
   c:	00000027 	andeq	r0, r0, r7, lsr #32
  10:	005a3605 	subseq	r3, sl, r5, lsl #12
  14:	01080706 	tsteq	r8, r6, lsl #14
  18:	020a0109 	andeq	r0, sl, #1073741826	; 0x40000002
  1c:	01140412 	tsteq	r4, r2, lsl r4
  20:	03170115 	tsteq	r7, #1073741829	; 0x40000005
  24:	011a0118 	tsteq	sl, r8, lsl r1
  28:	011c031b 	tsteq	ip, fp, lsl r3
  2c:	012c0122 	teqeq	ip, r2, lsr #2
  30:	Address 0x0000000000000030 is out of bounds.


Disassembly of section .comment:

00000000 <.comment>:
   0:	3a434347 	bcc	10d0d24 <__bss_end+0x10c7ff4>
   4:	4e472820 	cdpmi	8, 4, cr2, cr7, cr0, {1}
   8:	34202955 	strtcc	r2, [r0], #-2389	; 0x955
   c:	312e372e 	teqcc	lr, lr, lsr #14
	...

Disassembly of section .debug_line:

00000000 <.debug_line>:
   0:	00000061 	andeq	r0, r0, r1, rrx
   4:	00200002 	eoreq	r0, r0, r2
   8:	01020000 	mrseq	r0, (UNDEF: 2)
   c:	000d0efb 	strdeq	r0, [sp], -fp
  10:	01010101 	tsteq	r1, r1, lsl #2
  14:	01000000 	mrseq	r0, (UNDEF: 0)
  18:	00010000 	andeq	r0, r1, r0
  1c:	74636576 	strbtvc	r6, [r3], #-1398	; 0x576
  20:	2e73726f 	cdpcs	2, 7, cr7, cr3, cr15, {3}
  24:	00000073 	andeq	r0, r0, r3, ror r0
  28:	05000000 	streq	r0, [r0, #-0]
  2c:	00800002 	addeq	r0, r0, r2
  30:	2f2f1900 	svccs	0x002f1900
  34:	2f2f2f2f 	svccs	0x002f2f2f
  38:	080b032f 	stmdaeq	fp, {r0, r1, r2, r3, r5, r8, r9}
  3c:	2f2f2f20 	svccs	0x002f2f20
  40:	2f322f2f 	svccs	0x00322f2f
  44:	2f2f322f 	svccs	0x002f322f
  48:	302f2f31 	eorcc	r2, pc, r1, lsr pc	; <UNPREDICTABLE>
  4c:	2f2f2f30 	svccs	0x002f2f30
  50:	2f322f2f 	svccs	0x00322f2f
  54:	2f322f32 	svccs	0x00322f32
  58:	2f322f32 	svccs	0x00322f32
  5c:	31303232 	teqcc	r0, r2, lsr r2
  60:	01000202 	tsteq	r0, r2, lsl #4
  64:	00005901 	andeq	r5, r0, r1, lsl #18
  68:	2a000200 	bcs	870 <_start-0x7790>
  6c:	02000000 	andeq	r0, r0, #0
  70:	0d0efb01 	vstreq	d15, [lr, #-4]
  74:	01010100 	mrseq	r0, (UNDEF: 17)
  78:	00000001 	andeq	r0, r0, r1
  7c:	01000001 	tsteq	r0, r1
  80:	72656b00 	rsbvc	r6, r5, #0
  84:	2e6c656e 	cdpcs	5, 6, cr6, cr12, cr14, {3}
  88:	00000063 	andeq	r0, r0, r3, rrx
  8c:	68637300 	stmdavs	r3!, {r8, r9, ip, sp, lr}^
  90:	682e6465 	stmdavs	lr!, {r0, r2, r5, r6, sl, sp, lr}
  94:	00000000 	andeq	r0, r0, r0
  98:	02050000 	andeq	r0, r5, #0
  9c:	000080d0 	ldrdeq	r8, [r0], -r0
  a0:	2a6c2f18 	bcs	1b0bd08 <__bss_end+0x1b02fd8>
  a4:	4c4c8367 	mcrrmi	3, 6, r8, ip, cr7
  a8:	0402002f 	streq	r0, [r2], #-47	; 0x2f
  ac:	02004c01 	andeq	r4, r0, #256	; 0x100
  b0:	31670104 	cmncc	r7, r4, lsl #2
  b4:	2f302f2f 	svccs	0x00302f2f
  b8:	01040200 	mrseq	r0, R12_usr
  bc:	00020233 	andeq	r0, r2, r3, lsr r2
  c0:	00590101 	subseq	r0, r9, r1, lsl #2
  c4:	00020000 	andeq	r0, r2, r0
  c8:	00000021 	andeq	r0, r0, r1, lsr #32
  cc:	0efb0102 	cdpeq	1, 15, cr0, cr11, cr2, {0}
  d0:	0101000d 	tsteq	r1, sp
  d4:	00000101 	andeq	r0, r0, r1, lsl #2
  d8:	00000100 	andeq	r0, r0, r0, lsl #2
  dc:	68700001 	ldmdavs	r0!, {r0}^
  e0:	6c6c4179 	stfvse	f4, [ip], #-484	; 0xfffffe1c
  e4:	632e636f 	teqvs	lr, #-1140850687	; 0xbc000001
  e8:	00000000 	andeq	r0, r0, r0
  ec:	02050000 	andeq	r0, r5, #0
  f0:	00008144 	andeq	r8, r0, r4, asr #2
  f4:	67010c03 	strvs	r0, [r1, -r3, lsl #24]
  f8:	2f2f2f4c 	svccs	0x002f2f4c
  fc:	01040200 	mrseq	r0, R12_usr
 100:	0402002c 	streq	r0, [r2], #-44	; 0x2c
 104:	064a0602 	strbeq	r0, [sl], -r2, lsl #12
 108:	f44b4b86 			; <UNDEFINED> instruction: 0xf44b4b86
 10c:	2f4c4cbb 	svccs	0x004c4cbb
 110:	833083da 	teqhi	r0, #1744830467	; 0x68000003
 114:	67864b67 	strvs	r4, [r6, r7, ror #22]
 118:	08029f67 	stmdaeq	r2, {r0, r1, r2, r5, r6, r8, r9, sl, fp, ip, pc}
 11c:	4b010100 	blmi	40524 <__bss_end+0x377f4>
 120:	02000000 	andeq	r0, r0, #0
 124:	00001b00 	andeq	r1, r0, r0, lsl #22
 128:	fb010200 	blx	40932 <__bss_end+0x37c02>
 12c:	01000d0e 	tsteq	r0, lr, lsl #26
 130:	00010101 	andeq	r0, r1, r1, lsl #2
 134:	00010000 	andeq	r0, r1, r0
 138:	68000100 	stmdavs	r0, {r8}
 13c:	00632e77 	rsbeq	r2, r3, r7, ror lr
 140:	00000000 	andeq	r0, r0, r0
 144:	7c020500 	cfstr32vc	mvfx0, [r2], {-0}
 148:	03000082 	movweq	r0, #130	; 0x82
 14c:	674b011c 	smlaldvs	r0, fp, ip, r1
 150:	03676867 	cmneq	r7, #6750208	; 0x670000
 154:	672f9e09 	strvs	r9, [pc, -r9, lsl #28]!
 158:	51672f4e 	cmnpl	r7, lr, asr #30
 15c:	6767674f 	strbvs	r6, [r7, -pc, asr #14]!
 160:	67676969 	strbvs	r6, [r7, -r9, ror #18]!
 164:	a068696a 	rsbge	r6, r8, sl, ror #18
 168:	00100267 	andseq	r0, r0, r7, ror #4
 16c:	00da0101 	sbcseq	r0, sl, r1, lsl #2
 170:	00020000 	andeq	r0, r2, r0
 174:	00000029 	andeq	r0, r0, r9, lsr #32
 178:	0efb0102 	cdpeq	1, 15, cr0, cr11, cr2, {0}
 17c:	0101000d 	tsteq	r1, sp
 180:	00000101 	andeq	r0, r0, r1, lsl #2
 184:	00000100 	andeq	r0, r0, r0, lsl #2
 188:	63730001 	cmnvs	r3, #1
 18c:	2e646568 	cdpcs	5, 6, cr6, cr4, cr8, {3}
 190:	00000063 	andeq	r0, r0, r3, rrx
 194:	68637300 	stmdavs	r3!, {r8, r9, ip, sp, lr}^
 198:	682e6465 	stmdavs	lr!, {r0, r2, r5, r6, sl, sp, lr}
 19c:	00000000 	andeq	r0, r0, r0
 1a0:	02050000 	andeq	r0, r5, #0
 1a4:	000083b8 			; <UNDEFINED> instruction: 0x000083b8
 1a8:	bb9f9f17 	bllt	fe7e7e0c <__bss_end+0xfe7df0dc>
 1ac:	4a0f0367 	bmi	3c0f50 <__bss_end+0x3b8220>
 1b0:	676767bb 			; <UNDEFINED> instruction: 0x676767bb
 1b4:	4c676783 	stclmi	7, cr6, [r7], #-524	; 0xfffffdf4
 1b8:	00a067a0 	adceq	r6, r0, r0, lsr #15
 1bc:	06010402 	streq	r0, [r1], -r2, lsl #8
 1c0:	c908069e 	stmdbgt	r8, {r1, r2, r3, r4, r7, r9, sl}
 1c4:	83856767 	orrhi	r6, r5, #27000832	; 0x19c0000
 1c8:	2f68a067 	svccs	0x0068a067
 1cc:	83832f9f 	orrhi	r2, r3, #636	; 0x27c
 1d0:	4b4c839f 	blmi	1321054 <__bss_end+0x1318324>
 1d4:	00813069 	addeq	r3, r1, r9, rrx
 1d8:	06010402 	streq	r0, [r1], -r2, lsl #8
 1dc:	0402002e 	streq	r0, [r2], #-46	; 0x2e
 1e0:	bd069e02 	stclt	14, cr9, [r6, #-8]
 1e4:	bbd7839f 	bllt	ff5e1068 <__bss_end+0xff5d8338>
 1e8:	0402009f 	streq	r0, [r2], #-159	; 0x9f
 1ec:	66770301 	ldrbtvs	r0, [r7], -r1, lsl #6
 1f0:	68ba1803 	ldmvs	sl!, {r0, r1, fp, ip}
 1f4:	2f4c9f13 	svccs	0x004c9f13
 1f8:	68832f9f 	stmvs	r3, {r0, r1, r2, r3, r4, r7, r8, r9, sl, fp, sp}
 1fc:	2f2f9f4b 	svccs	0x002f9f4b
 200:	04020030 	streq	r0, [r2], #-48	; 0x30
 204:	06820601 	streq	r0, [r2], r1, lsl #12
 208:	9f9f2f9f 	svcls	0x009f2f9f
 20c:	679f2f84 	ldrvs	r2, [pc, r4, lsl #31]
 210:	0402002f 	streq	r0, [r2], #-47	; 0x2f
 214:	83a16501 			; <UNDEFINED> instruction: 0x83a16501
 218:	472f3030 			; <UNDEFINED> instruction: 0x472f3030
 21c:	01040200 	mrseq	r0, R12_usr
 220:	a3062e06 	movwge	r2, #28166	; 0x6e06
 224:	9f9f849f 	svcls	0x009f849f
 228:	2f2f9f30 	svccs	0x002f9f30
 22c:	4ba01369 	blmi	fe804fd8 <__bss_end+0xfe7fc2a8>
 230:	002f4b9f 	mlaeq	pc, pc, fp, r4	; <UNPREDICTABLE>
 234:	2d010402 	cfstrscs	mvf0, [r1, #-8]
 238:	2f4c6785 	svccs	0x004c6785
 23c:	30849f9f 	umullcc	r9, r4, pc, pc	; <UNPREDICTABLE>
 240:	839f30a0 	orrshi	r3, pc, #160	; 0xa0
 244:	022f9f9f 	eoreq	r9, pc, #636	; 0x27c
 248:	01010004 	tsteq	r1, r4
 24c:	00000055 	andeq	r0, r0, r5, asr r0
 250:	002b0002 	eoreq	r0, fp, r2
 254:	01020000 	mrseq	r0, (UNDEF: 2)
 258:	000d0efb 	strdeq	r0, [sp], -fp
 25c:	01010101 	tsteq	r1, r1, lsl #2
 260:	01000000 	mrseq	r0, (UNDEF: 0)
 264:	00010000 	andeq	r0, r1, r0
 268:	63737973 	cmnvs	r3, #1884160	; 0x1cc000
 26c:	2e6c6c61 	cdpcs	12, 6, cr6, cr12, cr1, {3}
 270:	00000063 	andeq	r0, r0, r3, rrx
 274:	68637300 	stmdavs	r3!, {r8, r9, ip, sp, lr}^
 278:	682e6465 	stmdavs	lr!, {r0, r2, r5, r6, sl, sp, lr}
 27c:	00000000 	andeq	r0, r0, r0
 280:	02050000 	andeq	r0, r5, #0
 284:	000089a8 	andeq	r8, r0, r8, lsr #19
 288:	2f4b2f15 	svccs	0x004b2f15
 28c:	4b4b6730 	blmi	12d9f54 <__bss_end+0x12d1224>
 290:	30014c2f 	andcc	r4, r1, pc, lsr #24
 294:	84834c4c 	strhi	r4, [r3], #3148	; 0xc4c
 298:	bc4b4b4b 	mcrrlt	11, 4, r4, fp, cr11
 29c:	302f302f 	eorcc	r3, pc, pc, lsr #32
 2a0:	01000402 	tsteq	r0, r2, lsl #8
 2a4:	0000c201 	andeq	ip, r0, r1, lsl #4
 2a8:	3f000200 	svccc	0x00000200
 2ac:	02000000 	andeq	r0, r0, #0
 2b0:	0d0efb01 	vstreq	d15, [lr, #-4]
 2b4:	01010100 	mrseq	r0, (UNDEF: 17)
 2b8:	00000001 	andeq	r0, r0, r1
 2bc:	01000001 	tsteq	r0, r1
 2c0:	6d656d76 	stclvs	13, cr6, [r5, #-472]!	; 0xfffffe28
 2c4:	656d7600 	strbvs	r7, [sp, #-1536]!	; 0x600
 2c8:	2e2e2f6d 	cdpcs	15, 2, cr2, cr14, cr13, {3}
 2cc:	6d760000 	ldclvs	0, cr0, [r6, #-0]
 2d0:	632e6d65 	teqvs	lr, #6464	; 0x1940
 2d4:	00000100 	andeq	r0, r0, r0, lsl #2
 2d8:	65707974 	ldrbvs	r7, [r0, #-2420]!	; 0x974
 2dc:	00682e73 	rsbeq	r2, r8, r3, ror lr
 2e0:	76000002 	strvc	r0, [r0], -r2
 2e4:	2e6d656d 	cdpcs	5, 6, cr6, cr13, cr13, {3}
 2e8:	00010068 	andeq	r0, r1, r8, rrx
 2ec:	05000000 	streq	r0, [r0, #-0]
 2f0:	008a6002 	addeq	r6, sl, r2
 2f4:	011a0300 	tsteq	sl, r0, lsl #6
 2f8:	02006831 	andeq	r6, r0, #3211264	; 0x310000
 2fc:	00670204 	rsbeq	r0, r7, r4, lsl #4
 300:	b9020402 	stmdblt	r2, {r1, sl}
 304:	01040200 	mrseq	r0, R12_usr
 308:	86066606 	strhi	r6, [r6], -r6, lsl #12
 30c:	686831a1 	stmdavs	r8!, {r0, r5, r7, r8, ip, sp}^
 310:	a13067d8 			; <UNDEFINED> instruction: 0xa13067d8
 314:	02040200 	andeq	r0, r4, #0
 318:	04020068 	streq	r0, [r2], #-104	; 0x68
 31c:	0200f002 	andeq	pc, r0, #2
 320:	66060104 	strvs	r0, [r6], -r4, lsl #2
 324:	72036a06 	andvc	r6, r3, #24576	; 0x6000
 328:	04020082 	streq	r0, [r2], #-130	; 0x82
 32c:	06660601 	strbteq	r0, [r6], -r1, lsl #12
 330:	0402009c 	streq	r0, [r2], #-156	; 0x9c
 334:	06660601 	strbteq	r0, [r6], -r1, lsl #12
 338:	2f821603 	svccs	0x00821603
 33c:	d86830a1 	stmdale	r8!, {r0, r5, r7, ip, sp}^
 340:	02007dbb 	andeq	r7, r0, #11968	; 0x2ec0
 344:	66060104 	strvs	r0, [r6], -r4, lsl #2
 348:	82090306 	andhi	r0, r9, #402653184	; 0x18000000
 34c:	0368a12f 	cmneq	r8, #-1073741813	; 0xc000000b
 350:	4b304a34 	blmi	c12c28 <__bss_end+0xc09ef8>
 354:	4c30302f 	ldcmi	0, cr3, [r0], #-188	; 0xffffff44
 358:	2f2f6930 	svccs	0x002f6930
 35c:	4e3030a0 	cdpmi	0, 3, cr3, cr0, cr0, {5}
 360:	2f4b694b 	svccs	0x004b694b
 364:	04026869 	streq	r6, [r2], #-2153	; 0x869
 368:	Address 0x0000000000000368 is out of bounds.


Disassembly of section .debug_info:

00000000 <.debug_info>:
   0:	00000052 	andeq	r0, r0, r2, asr r0
   4:	00000002 	andeq	r0, r0, r2
   8:	01040000 	mrseq	r0, (UNDEF: 4)
   c:	00000000 	andeq	r0, r0, r0
  10:	00008000 	andeq	r8, r0, r0
  14:	000080d0 	ldrdeq	r8, [r0], -r0
  18:	74636576 	strbtvc	r6, [r3], #-1398	; 0x576
  1c:	2e73726f 	cdpcs	2, 7, cr7, cr3, cr15, {3}
  20:	682f0073 	stmdavs	pc!, {r0, r1, r4, r5, r6}	; <UNPREDICTABLE>
  24:	2f656d6f 	svccs	0x00656d6f
  28:	63696e72 	cmnvs	r9, #1824	; 0x720
  2c:	74656c6f 	strbtvc	r6, [r5], #-3183	; 0xc6f
  30:	3134482f 	teqcc	r4, pc, lsr #16
  34:	4f2f3430 	svcmi	0x002f3430
  38:	734f2f53 	movtvc	r2, #65363	; 0xff53
  3c:	7361522d 	cmnvc	r1, #-805306366	; 0xd0000002
  40:	65626570 	strbvs	r6, [r2, #-1392]!	; 0x570
  44:	00797272 	rsbseq	r7, r9, r2, ror r2
  48:	20554e47 	subscs	r4, r5, r7, asr #28
  4c:	32205341 	eorcc	r5, r0, #67108865	; 0x4000001
  50:	0032322e 	eorseq	r3, r2, lr, lsr #4
  54:	01e98001 	mvneq	r8, r1
  58:	00020000 	andeq	r0, r2, r0
  5c:	00000014 	andeq	r0, r0, r4, lsl r0
  60:	00250104 	eoreq	r0, r5, r4, lsl #2
  64:	d8010000 	stmdale	r1, {}	; <UNPREDICTABLE>
  68:	a4000000 	strge	r0, [r0], #-0
  6c:	d0000000 	andle	r0, r0, r0
  70:	44000080 	strmi	r0, [r0], #-128	; 0x80
  74:	65000081 	strvs	r0, [r0, #-129]	; 0x81
  78:	02000000 	andeq	r0, r0, #0
  7c:	00000102 	andeq	r0, r0, r2, lsl #2
  80:	00300502 	eorseq	r0, r0, r2, lsl #10
  84:	02030000 	andeq	r0, r3, #0
  88:	04000001 	streq	r0, [r0], #-1
  8c:	00550502 	subseq	r0, r5, r2, lsl #10
  90:	4e040000 	cdpmi	0, 0, cr0, cr4, cr0, {0}
  94:	00005745 	andeq	r5, r0, r5, asr #14
  98:	00003105 	andeq	r3, r0, r5, lsl #2
  9c:	89050100 	stmdbhi	r5, {r8}
  a0:	02000000 	andeq	r0, r0, #0
  a4:	00006905 	andeq	r6, r0, r5, lsl #18
  a8:	02000300 	andeq	r0, r0, #0
  ac:	0000001d 	andeq	r0, r0, sp, lsl r0
  b0:	00600702 	rsbeq	r0, r0, r2, lsl #14
  b4:	04060000 	streq	r0, [r6], #-0
  b8:	00000066 	andeq	r0, r0, r6, rrx
  bc:	83080107 	movwhi	r0, #33031	; 0x8107
  c0:	0c000000 	stceq	0, cr0, [r0], {-0}
  c4:	009d0e02 	addseq	r0, sp, r2, lsl #28
  c8:	73090000 	movwvc	r0, #36864	; 0x9000
  cc:	0f020070 	svceq	0x00020070
  d0:	0000009d 	muleq	r0, sp, r0
  d4:	09002302 	stmdbeq	r0, {r1, r8, r9, sp}
  d8:	02006370 	andeq	r6, r0, #-1073741823	; 0xc0000001
  dc:	00009d10 	andeq	r9, r0, r0, lsl sp
  e0:	04230200 	strteq	r0, [r3], #-512	; 0x200
  e4:	0000fa0a 	andeq	pc, r0, sl, lsl #20
  e8:	9d110200 	lfmls	f0, 4, [r1, #-0]
  ec:	02000000 	andeq	r0, r0, #0
  f0:	0b000823 	bleq	2184 <_start-0x5e7c>
  f4:	00f40804 	rscseq	r0, r4, r4, lsl #16
  f8:	021c0000 	andseq	r0, ip, #0
  fc:	00010e14 	andeq	r0, r1, r4, lsl lr
 100:	00140a00 	andseq	r0, r4, r0, lsl #20
 104:	15020000 	strne	r0, [r2, #-0]
 108:	0000010e 	andeq	r0, r0, lr, lsl #2
 10c:	0a002302 	beq	8d1c <kernel_flags>
 110:	00000000 	andeq	r0, r0, r0
 114:	009d1602 	addseq	r1, sp, r2, lsl #12
 118:	23020000 	movwcs	r0, #8192	; 0x2000
 11c:	00e70a04 	rsceq	r0, r7, r4, lsl #20
 120:	17020000 	strne	r0, [r2, -r0]
 124:	00000114 	andeq	r0, r0, r4, lsl r1
 128:	0a082302 	beq	208d38 <__bss_end+0x200008>
 12c:	00000048 	andeq	r0, r0, r8, asr #32
 130:	00551802 	subseq	r1, r5, r2, lsl #16
 134:	23020000 	movwcs	r0, #8192	; 0x2000
 138:	01080a0c 	tsteq	r8, ip, lsl #20
 13c:	19020000 	stmdbne	r2, {}	; <UNPREDICTABLE>
 140:	0000011b 	andeq	r0, r0, fp, lsl r1
 144:	0a102302 	beq	408d54 <__bss_end+0x400024>
 148:	000000e1 	andeq	r0, r0, r1, ror #1
 14c:	00251a02 	eoreq	r1, r5, r2, lsl #20
 150:	23020000 	movwcs	r0, #8192	; 0x2000
 154:	00540a14 	subseq	r0, r4, r4, lsl sl
 158:	1b020000 	blne	80160 <__bss_end+0x77430>
 15c:	0000009d 	muleq	r0, sp, r0
 160:	00182302 	andseq	r2, r8, r2, lsl #6
 164:	009f0406 	addseq	r0, pc, r6, lsl #8
 168:	040c0000 	streq	r0, [ip], #-0
 16c:	00009707 	andeq	r9, r0, r7, lsl #14
 170:	68040600 	stmdavs	r4, {r9, sl}
 174:	08000000 	stmdaeq	r0, {}	; <UNPREDICTABLE>
 178:	0000005c 	andeq	r0, r0, ip, asr r0
 17c:	4a1e0208 	bmi	7809a4 <__bss_end+0x777c74>
 180:	0a000001 	beq	18c <_start-0x7e74>
 184:	0000003e 	andeq	r0, r0, lr, lsr r0
 188:	010e1f02 	tsteq	lr, r2, lsl #30
 18c:	23020000 	movwcs	r0, #8192	; 0x2000
 190:	00740a00 	rsbseq	r0, r4, r0, lsl #20
 194:	20020000 	andcs	r0, r2, r0
 198:	0000010e 	andeq	r0, r0, lr, lsl #2
 19c:	00042302 	andeq	r2, r4, r2, lsl #6
 1a0:	9107020c 	tstls	r7, ip, lsl #4
 1a4:	0c000000 	stceq	0, cr0, [r0], {-0}
 1a8:	00ca0801 	sbceq	r0, sl, r1, lsl #16
 1ac:	010d0000 	mrseq	r0, (UNDEF: 13)
 1b0:	0000004e 	andeq	r0, r0, lr, asr #32
 1b4:	80d00701 	sbcshi	r0, r0, r1, lsl #14
 1b8:	81100000 	tsthi	r0, r0
 1bc:	00000000 	andeq	r0, r0, r0
 1c0:	80010000 	andhi	r0, r1, r0
 1c4:	0e000001 	cdpeq	0, 0, cr0, cr0, cr1, {0}
 1c8:	00000039 	andeq	r0, r0, r9, lsr r0
 1cc:	01800801 	orreq	r0, r0, r1, lsl #16
 1d0:	91020000 	mrsls	r0, (UNDEF: 2)
 1d4:	040f007c 	streq	r0, [pc], #-124	; 1dc <_start-0x7e24>
 1d8:	746e6905 	strbtvc	r6, [lr], #-2309	; 0x905
 1dc:	7d010d00 	stcvc	13, cr0, [r1, #-0]
 1e0:	01000000 	mrseq	r0, (UNDEF: 0)
 1e4:	00811010 	addeq	r1, r1, r0, lsl r0
 1e8:	00812c00 	addeq	r2, r1, r0, lsl #24
 1ec:	00002000 	andeq	r2, r0, r0
 1f0:	01af0100 			; <UNDEFINED> instruction: 0x01af0100
 1f4:	0f0e0000 	svceq	0x000e0000
 1f8:	01000000 	mrseq	r0, (UNDEF: 0)
 1fc:	00018011 	andeq	r8, r1, r1, lsl r0
 200:	7c910200 	lfmvc	f0, 4, [r1], {0}
 204:	09011000 	stmdbeq	r1, {ip}
 208:	01000000 	mrseq	r0, (UNDEF: 0)
 20c:	01800117 	orreq	r0, r0, r7, lsl r1
 210:	812c0000 	teqhi	ip, r0
 214:	81440000 	mrshi	r0, (UNDEF: 68)
 218:	00400000 	subeq	r0, r0, r0
 21c:	11010000 	mrsne	r0, (UNDEF: 1)
 220:	00000251 	andeq	r0, r0, r1, asr r2
 224:	010e2302 	tsteq	lr, r2, lsl #6
 228:	05010000 	streq	r0, [r1, #-0]
 22c:	008d2803 	addeq	r2, sp, r3, lsl #16
 230:	4c431200 	sfmmi	f1, 2, [r3], {-0}
 234:	21240200 	teqcs	r4, r0, lsl #4
 238:	01000001 	tsteq	r0, r1
 23c:	8d200305 	stchi	3, cr0, [r0, #-20]!	; 0xffffffec
 240:	5e000000 	cdppl	0, 0, cr0, cr0, cr0, {0}
 244:	02000001 	andeq	r0, r0, #1
 248:	00011300 	andeq	r1, r1, r0, lsl #6
 24c:	25010400 	strcs	r0, [r1, #-1024]	; 0x400
 250:	01000000 	mrseq	r0, (UNDEF: 0)
 254:	00000110 	andeq	r0, r0, r0, lsl r1
 258:	00000137 	andeq	r0, r0, r7, lsr r1
 25c:	00008144 	andeq	r8, r0, r4, asr #2
 260:	0000827c 	andeq	r8, r0, ip, ror r2
 264:	000000c2 	andeq	r0, r0, r2, asr #1
 268:	006c6602 	rsbeq	r6, ip, r2, lsl #12
 26c:	4d030108 	stfmis	f0, [r3, #-32]	; 0xffffffe0
 270:	03000000 	movweq	r0, #0
 274:	0000017d 	andeq	r0, r0, sp, ror r1
 278:	004d0401 	subeq	r0, sp, r1, lsl #8
 27c:	23020000 	movwcs	r0, #8192	; 0x2000
 280:	022a0300 	eoreq	r0, sl, #0
 284:	05010000 	streq	r0, [r1, #-0]
 288:	00000053 	andeq	r0, r0, r3, asr r0
 28c:	00042302 	andeq	r2, r4, r2, lsl #6
 290:	00250404 	eoreq	r0, r5, r4, lsl #8
 294:	04050000 	streq	r0, [r5], #-0
 298:	00009707 	andeq	r9, r0, r7, lsl #14
 29c:	82010600 	andhi	r0, r1, #0
 2a0:	01000001 	tsteq	r0, r1
 2a4:	009f010c 	addseq	r0, pc, ip, lsl #2
 2a8:	81440000 	mrshi	r0, (UNDEF: 68)
 2ac:	81f80000 	mvnshi	r0, r0
 2b0:	00600000 	rsbeq	r0, r0, r0
 2b4:	9f010000 	svcls	0x00010000
 2b8:	07000000 	streq	r0, [r0, -r0]
 2bc:	0000022a 	andeq	r0, r0, sl, lsr #4
 2c0:	00530c01 	subseq	r0, r3, r1, lsl #24
 2c4:	91020000 	mrsls	r0, (UNDEF: 2)
 2c8:	00660874 	rsbeq	r0, r6, r4, ror r8
 2cc:	004d0e01 	subeq	r0, sp, r1, lsl #28
 2d0:	54010000 	strpl	r0, [r1], #-0
 2d4:	00011b09 	andeq	r1, r1, r9, lsl #22
 2d8:	a10e0100 	mrsge	r0, (UNDEF: 30)
 2dc:	01000000 	mrseq	r0, (UNDEF: 0)
 2e0:	040a0055 	streq	r0, [sl], #-85	; 0x55
 2e4:	004d0404 	subeq	r0, sp, r4, lsl #8
 2e8:	010b0000 	mrseq	r0, (UNDEF: 11)
 2ec:	00000129 	andeq	r0, r0, r9, lsr #2
 2f0:	f8012201 			; <UNDEFINED> instruction: 0xf8012201
 2f4:	40000081 	andmi	r0, r0, r1, lsl #1
 2f8:	8c000082 	stchi	0, cr0, [r0], {130}	; 0x82
 2fc:	01000000 	mrseq	r0, (UNDEF: 0)
 300:	000000e9 	andeq	r0, r0, r9, ror #1
 304:	7274700c 	rsbsvc	r7, r4, #12
 308:	9f220100 	svcls	0x00220100
 30c:	02000000 	andeq	r0, r0, #0
 310:	2a077491 	bcs	1dd55c <__bss_end+0x1d482c>
 314:	01000002 	tsteq	r0, r2
 318:	00005322 	andeq	r5, r0, r2, lsr #6
 31c:	70910200 	addsvc	r0, r1, r0, lsl #4
 320:	01006608 	tsteq	r0, r8, lsl #12
 324:	00004d24 	andeq	r4, r0, r4, lsr #26
 328:	00540100 	subseq	r0, r4, r0, lsl #2
 32c:	0191010b 	orrseq	r0, r1, fp, lsl #2
 330:	2c010000 	stccs	0, cr0, [r1], {-0}
 334:	00824001 	addeq	r4, r2, r1
 338:	00827c00 	addeq	r7, r2, r0, lsl #24
 33c:	0000b800 	andeq	fp, r0, r0, lsl #16
 340:	01200100 	teqeq	r0, r0, lsl #2
 344:	72070000 	andvc	r0, r7, #0
 348:	01000001 	tsteq	r0, r1
 34c:	0001202c 	andeq	r2, r1, ip, lsr #32
 350:	7c910200 	lfmvc	f0, 4, [r1], {0}
 354:	00019f07 	andeq	r9, r1, r7, lsl #30
 358:	532c0100 	teqpl	ip, #0
 35c:	02000000 	andeq	r0, r0, #0
 360:	04007891 	streq	r7, [r0], #-2193	; 0x891
 364:	00012604 	andeq	r2, r1, r4, lsl #12
 368:	08010500 	stmdaeq	r1, {r8, sl}
 36c:	000000d3 	ldrdeq	r0, [r0], -r3
 370:	706f7408 	rsbvc	r7, pc, r8, lsl #8
 374:	20080100 	andcs	r0, r8, r0, lsl #2
 378:	05000001 	streq	r0, [r0, #-1]
 37c:	008d0403 	addeq	r0, sp, r3, lsl #8
 380:	01670900 	cmneq	r7, r0, lsl #18
 384:	09010000 	stmdbeq	r1, {}	; <UNPREDICTABLE>
 388:	00000120 	andeq	r0, r0, r0, lsr #2
 38c:	8d080305 	stchi	3, cr0, [r8, #-20]	; 0xffffffec
 390:	200d0000 	andcs	r0, sp, r0
 394:	01000001 	tsteq	r0, r1
 398:	00004d06 	andeq	r4, r0, r6, lsl #26
 39c:	03050100 	movweq	r0, #20736	; 0x5100
 3a0:	00008d00 	andeq	r8, r0, r0, lsl #26
 3a4:	0000b800 	andeq	fp, r0, r0, lsl #16
 3a8:	e3000200 	movw	r0, #512	; 0x200
 3ac:	04000001 	streq	r0, [r0], #-1
 3b0:	00002501 	andeq	r2, r0, r1, lsl #10
 3b4:	01a90100 			; <UNDEFINED> instruction: 0x01a90100
 3b8:	01370000 	teqeq	r7, r0
 3bc:	827c0000 	rsbshi	r0, ip, #0
 3c0:	83b80000 			; <UNDEFINED> instruction: 0x83b80000
 3c4:	011f0000 	tsteq	pc, r0
 3c8:	02020000 	andeq	r0, r2, #0
 3cc:	00009107 	andeq	r9, r0, r7, lsl #2
 3d0:	07040200 	streq	r0, [r4, -r0, lsl #4]
 3d4:	00000097 	muleq	r0, r7, r0
 3d8:	ca080102 	bgt	2007e8 <__bss_end+0x1f7ab8>
 3dc:	03000000 	movweq	r0, #0
 3e0:	0001ae01 	andeq	sl, r1, r1, lsl #28
 3e4:	7c1c0100 	ldfvcs	f0, [ip], {-0}
 3e8:	c8000082 	stmdagt	r0, {r1, r7}
 3ec:	d8000082 	stmdale	r0, {r1, r7}
 3f0:	01000000 	mrseq	r0, (UNDEF: 0)
 3f4:	00000061 	andeq	r0, r0, r1, rrx
 3f8:	00787204 	rsbseq	r7, r8, r4, lsl #4
 3fc:	002c1e01 	eoreq	r1, ip, r1, lsl #28
 400:	91020000 	mrsls	r0, (UNDEF: 2)
 404:	01050074 	tsteq	r5, r4, ror r0
 408:	000001d7 	ldrdeq	r0, [r0], -r7
 40c:	82c82b01 	sbchi	r2, r8, #1024	; 0x400
 410:	82e00000 	rschi	r0, r0, #0
 414:	01040000 	mrseq	r0, (UNDEF: 4)
 418:	05010000 	streq	r0, [r1, #-0]
 41c:	0001c801 	andeq	ip, r1, r1, lsl #16
 420:	e0310100 	eors	r0, r1, r0, lsl #2
 424:	f8000082 			; <UNDEFINED> instruction: 0xf8000082
 428:	24000082 	strcs	r0, [r0], #-130	; 0x82
 42c:	01000001 	tsteq	r0, r1
 430:	01cf0106 	biceq	r0, pc, r6, lsl #2
 434:	3a010000 	bcc	4043c <__bss_end+0x3770c>
 438:	000082f8 	strdeq	r8, [r0], -r8	; <UNPREDICTABLE>
 43c:	000083b8 			; <UNDEFINED> instruction: 0x000083b8
 440:	00000144 	andeq	r0, r0, r4, asr #2
 444:	61720401 	cmnvs	r2, r1, lsl #8
 448:	2c3c0100 	ldfcss	f0, [ip], #-0
 44c:	02000000 	andeq	r0, r0, #0
 450:	72047491 	andvc	r7, r4, #-1862270976	; 0x91000000
 454:	3d010078 	stccc	0, cr0, [r1, #-480]	; 0xfffffe20
 458:	0000002c 	andeq	r0, r0, ip, lsr #32
 45c:	00709102 	rsbseq	r9, r0, r2, lsl #2
 460:	00032500 	andeq	r2, r3, r0, lsl #10
 464:	55000200 	strpl	r0, [r0, #-512]	; 0x200
 468:	04000002 	streq	r0, [r0], #-2
 46c:	00002501 	andeq	r2, r0, r1, lsl #10
 470:	01f30100 	mvnseq	r0, r0, lsl #2
 474:	01370000 	teqeq	r7, r0
 478:	83b80000 			; <UNDEFINED> instruction: 0x83b80000
 47c:	89a80000 	stmibhi	r8!, {}	; <UNPREDICTABLE>
 480:	016e0000 	cmneq	lr, r0
 484:	02020000 	andeq	r0, r2, #0
 488:	02000001 	andeq	r0, r0, #1
 48c:	00003005 	andeq	r3, r0, r5
 490:	01020300 	mrseq	r0, LR_svc
 494:	02040000 	andeq	r0, r4, #0
 498:	00005505 	andeq	r5, r0, r5, lsl #10
 49c:	454e0400 	strbmi	r0, [lr, #-1024]	; 0x400
 4a0:	05000057 	streq	r0, [r0, #-87]	; 0x57
 4a4:	00000031 	andeq	r0, r0, r1, lsr r0
 4a8:	00890501 	addeq	r0, r9, r1, lsl #10
 4ac:	05020000 	streq	r0, [r2, #-0]
 4b0:	00000069 	andeq	r0, r0, r9, rrx
 4b4:	1d020003 	stcne	0, cr0, [r2, #-12]
 4b8:	02000000 	andeq	r0, r0, #0
 4bc:	00006007 	andeq	r6, r0, r7
 4c0:	66040600 	strvs	r0, [r4], -r0, lsl #12
 4c4:	07000000 	streq	r0, [r0, -r0]
 4c8:	00830801 	addeq	r0, r3, r1, lsl #16
 4cc:	020c0000 	andeq	r0, ip, #0
 4d0:	00009d0e 	andeq	r9, r0, lr, lsl #26
 4d4:	70730900 	rsbsvc	r0, r3, r0, lsl #18
 4d8:	9d0f0200 	sfmls	f0, 4, [pc, #-0]	; 4e0 <_start-0x7b20>
 4dc:	02000000 	andeq	r0, r0, #0
 4e0:	70090023 	andvc	r0, r9, r3, lsr #32
 4e4:	10020063 	andne	r0, r2, r3, rrx
 4e8:	0000009d 	muleq	r0, sp, r0
 4ec:	0a042302 	beq	1090fc <__bss_end+0x1003cc>
 4f0:	000000fa 	strdeq	r0, [r0], -sl
 4f4:	009d1102 	addseq	r1, sp, r2, lsl #2
 4f8:	23020000 	movwcs	r0, #8192	; 0x2000
 4fc:	040b0008 	streq	r0, [fp], #-8
 500:	0000f408 	andeq	pc, r0, r8, lsl #8
 504:	14021800 	strne	r1, [r2], #-2048	; 0x800
 508:	00000100 	andeq	r0, r0, r0, lsl #2
 50c:	0000140a 	andeq	r1, r0, sl, lsl #8
 510:	00150200 	andseq	r0, r5, r0, lsl #4
 514:	02000001 	andeq	r0, r0, #1
 518:	000a0023 	andeq	r0, sl, r3, lsr #32
 51c:	02000000 	andeq	r0, r0, #0
 520:	00009d16 	andeq	r9, r0, r6, lsl sp
 524:	04230200 	strteq	r0, [r3], #-512	; 0x200
 528:	0000480a 	andeq	r4, r0, sl, lsl #16
 52c:	55170200 	ldrpl	r0, [r7, #-512]	; 0x200
 530:	02000000 	andeq	r0, r0, #0
 534:	080a0823 	stmdaeq	sl, {r0, r1, r5, fp}
 538:	02000001 	andeq	r0, r0, #1
 53c:	00010618 	andeq	r0, r1, r8, lsl r6
 540:	0c230200 	sfmeq	f0, 4, [r3], #-0
 544:	0000e10a 	andeq	lr, r0, sl, lsl #2
 548:	25190200 	ldrcs	r0, [r9, #-512]	; 0x200
 54c:	02000000 	andeq	r0, r0, #0
 550:	540a1023 	strpl	r1, [sl], #-35	; 0x23
 554:	02000000 	andeq	r0, r0, #0
 558:	00009d1a 	andeq	r9, r0, sl, lsl sp
 55c:	14230200 	strtne	r0, [r3], #-512	; 0x200
 560:	9f040600 	svcls	0x00040600
 564:	06000000 	streq	r0, [r0], -r0
 568:	00006804 	andeq	r6, r0, r4, lsl #16
 56c:	005c0800 	subseq	r0, ip, r0, lsl #16
 570:	02080000 	andeq	r0, r8, #0
 574:	0001351d 	andeq	r3, r1, sp, lsl r5
 578:	003e0a00 	eorseq	r0, lr, r0, lsl #20
 57c:	1e020000 	cdpne	0, 0, cr0, cr2, cr0, {0}
 580:	00000100 	andeq	r0, r0, r0, lsl #2
 584:	0a002302 	beq	9194 <__bss_end+0x464>
 588:	00000074 	andeq	r0, r0, r4, ror r0
 58c:	01001f02 	tsteq	r0, r2, lsl #30
 590:	23020000 	movwcs	r0, #8192	; 0x2000
 594:	010c0004 	tsteq	ip, r4
 598:	00000272 	andeq	r0, r0, r2, ror r2
 59c:	b8010601 	stmdalt	r1, {r0, r9, sl}
 5a0:	0c000083 	stceq	0, cr0, [r0], {131}	; 0x83
 5a4:	70000084 	andvc	r0, r0, r4, lsl #1
 5a8:	01000001 	tsteq	r0, r1
 5ac:	00000178 	andeq	r0, r0, r8, ror r1
 5b0:	00021c0d 	andeq	r1, r2, sp, lsl #24
 5b4:	06060100 	streq	r0, [r6], -r0, lsl #2
 5b8:	02000001 	andeq	r0, r0, #1
 5bc:	660e7491 			; <UNDEFINED> instruction: 0x660e7491
 5c0:	55060100 	strpl	r0, [r6, #-256]	; 0x100
 5c4:	02000000 	andeq	r0, r0, #0
 5c8:	2a0d7091 	bcs	35c814 <__bss_end+0x353ae4>
 5cc:	01000002 	tsteq	r0, r2
 5d0:	00017806 	andeq	r7, r1, r6, lsl #16
 5d4:	6c910200 	lfmvs	f0, 4, [r1], {0}
 5d8:	07040f00 	streq	r0, [r4, -r0, lsl #30]
 5dc:	00000097 	muleq	r0, r7, r0
 5e0:	0269010c 	rsbeq	r0, r9, #3
 5e4:	19010000 	stmdbne	r1, {}	; <UNPREDICTABLE>
 5e8:	00840c01 	addeq	r0, r4, r1, lsl #24
 5ec:	00847800 	addeq	r7, r4, r0, lsl #16
 5f0:	00019c00 	andeq	r9, r1, r0, lsl #24
 5f4:	01de0100 	bicseq	r0, lr, r0, lsl #2
 5f8:	700e0000 	andvc	r0, lr, r0
 5fc:	01006263 	tsteq	r0, r3, ror #4
 600:	00010019 	andeq	r0, r1, r9, lsl r0
 604:	6c910200 	lfmvs	f0, 4, [r1], {0}
 608:	0100660e 	tsteq	r0, lr, lsl #12
 60c:	00005519 	andeq	r5, r0, r9, lsl r5
 610:	68910200 	ldmvs	r1, {r9}
 614:	00022a0d 	andeq	r2, r2, sp, lsl #20
 618:	78190100 	ldmdavc	r9, {r8}
 61c:	02000001 	andeq	r0, r0, #1
 620:	040d6491 	streq	r6, [sp], #-1169	; 0x491
 624:	01000000 	mrseq	r0, (UNDEF: 0)
 628:	00009d19 	andeq	r9, r0, r9, lsl sp
 62c:	60910200 	addsvs	r0, r1, r0, lsl #4
 630:	78746310 	ldmdavc	r4!, {r4, r8, r9, sp, lr}^
 634:	061c0100 	ldreq	r0, [ip], -r0, lsl #2
 638:	02000001 	andeq	r0, r0, #1
 63c:	0c007491 	cfstrseq	mvf7, [r0], {145}	; 0x91
 640:	0001fb01 	andeq	pc, r1, r1, lsl #22
 644:	01220100 	teqeq	r2, r0, lsl #2
 648:	00008478 	andeq	r8, r0, r8, ror r4
 64c:	00008560 	andeq	r8, r0, r0, ror #10
 650:	000001c8 	andeq	r0, r0, r8, asr #3
 654:	00022f01 	andeq	r2, r2, r1, lsl #30
 658:	00660e00 	rsbeq	r0, r6, r0, lsl #28
 65c:	00552201 	subseq	r2, r5, r1, lsl #4
 660:	91020000 	mrsls	r0, (UNDEF: 2)
 664:	00040d6c 	andeq	r0, r4, ip, ror #26
 668:	22010000 	andcs	r0, r1, #0
 66c:	0000009d 	muleq	r0, sp, r0
 670:	0d689102 	stfeqp	f1, [r8, #-8]!
 674:	00000224 	andeq	r0, r0, r4, lsr #4
 678:	01782201 	cmneq	r8, r1, lsl #4
 67c:	91020000 	mrsls	r0, (UNDEF: 2)
 680:	02611164 	rsbeq	r1, r1, #25
 684:	24010000 	strcs	r0, [r1], #-0
 688:	00000100 	andeq	r0, r0, r0, lsl #2
 68c:	00749102 	rsbseq	r9, r4, r2, lsl #2
 690:	024b0112 	subeq	r0, fp, #-2147483644	; 0x80000004
 694:	33010000 	movwcc	r0, #4096	; 0x1000
 698:	00008560 	andeq	r8, r0, r0, ror #10
 69c:	000085c8 	andeq	r8, r0, r8, asr #11
 6a0:	000001f4 	strdeq	r0, [r0], -r4
 6a4:	0a011301 	beq	452b0 <__bss_end+0x3c580>
 6a8:	01000002 	tsteq	r0, r2
 6ac:	0085c83c 	addeq	ip, r5, ip, lsr r8
 6b0:	0086bc00 	addeq	fp, r6, r0, lsl #24
 6b4:	00021400 	andeq	r1, r2, r0, lsl #8
 6b8:	027a0100 	rsbseq	r0, sl, #0
 6bc:	3b110000 	blcc	4406c4 <__bss_end+0x437994>
 6c0:	01000002 	tsteq	r0, r2
 6c4:	0001003d 	andeq	r0, r1, sp, lsr r0
 6c8:	74910200 	ldrvc	r0, [r1], #512	; 0x200
 6cc:	706d7410 	rsbvc	r7, sp, r0, lsl r4
 6d0:	003e0100 	eorseq	r0, lr, r0, lsl #2
 6d4:	02000001 	andeq	r0, r0, #1
 6d8:	14007091 	strne	r7, [r0], #-145	; 0x91
 6dc:	00027b01 	andeq	r7, r2, r1, lsl #22
 6e0:	bc5a0100 	ldflte	f0, [sl], {-0}
 6e4:	d8000086 	stmdale	r0, {r1, r2, r7}
 6e8:	02000086 	andeq	r0, r0, #134	; 0x86
 6ec:	1201007d 	andne	r0, r1, #125	; 0x7d
 6f0:	00022f01 	andeq	r2, r2, r1, lsl #30
 6f4:	d85e0100 	ldmdale	lr, {r8}^
 6f8:	10000086 	andne	r0, r0, r6, lsl #1
 6fc:	40000087 	andmi	r0, r0, r7, lsl #1
 700:	01000002 	tsteq	r0, r2
 704:	01df0113 	bicseq	r0, pc, r3, lsl r1	; <UNPREDICTABLE>
 708:	64010000 	strvs	r0, [r1], #-0
 70c:	00008710 	andeq	r8, r0, r0, lsl r7
 710:	00008894 	muleq	r0, r4, r8
 714:	00000260 	andeq	r0, r0, r0, ror #4
 718:	0002d501 	andeq	sp, r2, r1, lsl #10
 71c:	87b01500 	ldrhi	r1, [r0, r0, lsl #10]!
 720:	87f40000 	ldrbhi	r0, [r4, r0]!
 724:	74100000 	ldrvc	r0, [r0], #-0
 728:	0100706d 	tsteq	r0, sp, rrx
 72c:	00010072 	andeq	r0, r1, r2, ror r0
 730:	74910200 	ldrvc	r0, [r1], #512	; 0x200
 734:	01160000 	tsteq	r6, r0
 738:	00000240 	andeq	r0, r0, r0, asr #4
 73c:	88948b01 	ldmhi	r4, {r0, r8, r9, fp, pc}
 740:	89a80000 	stmibhi	r8!, {}	; <UNPREDICTABLE>
 744:	7d020000 	stcvc	0, cr0, [r2, #-0]
 748:	03050100 	movweq	r0, #20736	; 0x5100
 74c:	c4150000 	ldrgt	r0, [r5], #-0
 750:	f8000088 			; <UNDEFINED> instruction: 0xf8000088
 754:	10000088 	andne	r0, r0, r8, lsl #1
 758:	00706d74 	rsbseq	r6, r0, r4, ror sp
 75c:	01009001 	tsteq	r0, r1
 760:	54010000 	strpl	r0, [r1], #-0
 764:	51170000 	tstpl	r7, r0
 768:	02000002 	andeq	r0, r0, #2
 76c:	00010022 	andeq	r0, r1, r2, lsr #32
 770:	03050100 	movweq	r0, #20736	; 0x5100
 774:	00008d28 	andeq	r8, r0, r8, lsr #26
 778:	004c4318 	subeq	r4, ip, r8, lsl r3
 77c:	010c2302 	tsteq	ip, r2, lsl #6
 780:	05010000 	streq	r0, [r1, #-0]
 784:	008d2003 	addeq	r2, sp, r3
 788:	02130000 	andseq	r0, r3, #0
 78c:	00020000 	andeq	r0, r2, r0
 790:	000003c3 	andeq	r0, r0, r3, asr #7
 794:	00250104 	eoreq	r0, r5, r4, lsl #2
 798:	d4010000 	strle	r0, [r1], #-0
 79c:	a4000002 	strge	r0, [r0], #-2
 7a0:	a8000000 	stmdage	r0, {}	; <UNPREDICTABLE>
 7a4:	60000089 	andvs	r0, r0, r9, lsl #1
 7a8:	4c00008a 	stcmi	0, cr0, [r0], {138}	; 0x8a
 7ac:	02000002 	andeq	r0, r0, #2
 7b0:	00000102 	andeq	r0, r0, r2, lsl #2
 7b4:	00300502 	eorseq	r0, r0, r2, lsl #10
 7b8:	02030000 	andeq	r0, r3, #0
 7bc:	04000001 	streq	r0, [r0], #-1
 7c0:	00550502 	subseq	r0, r5, r2, lsl #10
 7c4:	4e040000 	cdpmi	0, 0, cr0, cr4, cr0, {0}
 7c8:	00005745 	andeq	r5, r0, r5, asr #14
 7cc:	00003105 	andeq	r3, r0, r5, lsl #2
 7d0:	89050100 	stmdbhi	r5, {r8}
 7d4:	02000000 	andeq	r0, r0, #0
 7d8:	00006905 	andeq	r6, r0, r5, lsl #18
 7dc:	02000300 	andeq	r0, r0, #0
 7e0:	0000001d 	andeq	r0, r0, sp, lsl r0
 7e4:	00600702 	rsbeq	r0, r0, r2, lsl #14
 7e8:	04060000 	streq	r0, [r6], #-0
 7ec:	00000066 	andeq	r0, r0, r6, rrx
 7f0:	83080107 	movwhi	r0, #33031	; 0x8107
 7f4:	0c000000 	stceq	0, cr0, [r0], {-0}
 7f8:	009d0e02 	addseq	r0, sp, r2, lsl #28
 7fc:	73090000 	movwvc	r0, #36864	; 0x9000
 800:	0f020070 	svceq	0x00020070
 804:	0000009d 	muleq	r0, sp, r0
 808:	09002302 	stmdbeq	r0, {r1, r8, r9, sp}
 80c:	02006370 	andeq	r6, r0, #-1073741823	; 0xc0000001
 810:	00009d10 	andeq	r9, r0, r0, lsl sp
 814:	04230200 	strteq	r0, [r3], #-512	; 0x200
 818:	0000fa0a 	andeq	pc, r0, sl, lsl #20
 81c:	9d110200 	lfmls	f0, 4, [r1, #-0]
 820:	02000000 	andeq	r0, r0, #0
 824:	0b000823 	bleq	28b8 <_start-0x5748>
 828:	00f40804 	rscseq	r0, r4, r4, lsl #16
 82c:	021c0000 	andseq	r0, ip, #0
 830:	00010e14 	andeq	r0, r1, r4, lsl lr
 834:	00140a00 	andseq	r0, r4, r0, lsl #20
 838:	15020000 	strne	r0, [r2, #-0]
 83c:	0000010e 	andeq	r0, r0, lr, lsl #2
 840:	0a002302 	beq	9450 <__bss_end+0x720>
 844:	00000000 	andeq	r0, r0, r0
 848:	009d1602 	addseq	r1, sp, r2, lsl #12
 84c:	23020000 	movwcs	r0, #8192	; 0x2000
 850:	00e70a04 	rsceq	r0, r7, r4, lsl #20
 854:	17020000 	strne	r0, [r2, -r0]
 858:	00000114 	andeq	r0, r0, r4, lsl r1
 85c:	0a082302 	beq	20946c <__bss_end+0x20073c>
 860:	00000048 	andeq	r0, r0, r8, asr #32
 864:	00551802 	subseq	r1, r5, r2, lsl #16
 868:	23020000 	movwcs	r0, #8192	; 0x2000
 86c:	01080a0c 	tsteq	r8, ip, lsl #20
 870:	19020000 	stmdbne	r2, {}	; <UNPREDICTABLE>
 874:	0000011b 	andeq	r0, r0, fp, lsl r1
 878:	0a102302 	beq	409488 <__bss_end+0x400758>
 87c:	000000e1 	andeq	r0, r0, r1, ror #1
 880:	00251a02 	eoreq	r1, r5, r2, lsl #20
 884:	23020000 	movwcs	r0, #8192	; 0x2000
 888:	00540a14 	subseq	r0, r4, r4, lsl sl
 88c:	1b020000 	blne	80894 <__bss_end+0x77b64>
 890:	0000009d 	muleq	r0, sp, r0
 894:	00182302 	andseq	r2, r8, r2, lsl #6
 898:	009f0406 	addseq	r0, pc, r6, lsl #8
 89c:	040c0000 	streq	r0, [ip], #-0
 8a0:	00009707 	andeq	r9, r0, r7, lsl #14
 8a4:	68040600 	stmdavs	r4, {r9, sl}
 8a8:	08000000 	stmdaeq	r0, {}	; <UNPREDICTABLE>
 8ac:	0000005c 	andeq	r0, r0, ip, asr r0
 8b0:	4a1e0208 	bmi	7810d8 <__bss_end+0x7783a8>
 8b4:	0a000001 	beq	8c0 <_start-0x7740>
 8b8:	0000003e 	andeq	r0, r0, lr, lsr r0
 8bc:	010e1f02 	tsteq	lr, r2, lsl #30
 8c0:	23020000 	movwcs	r0, #8192	; 0x2000
 8c4:	00740a00 	rsbseq	r0, r4, r0, lsl #20
 8c8:	20020000 	andcs	r0, r2, r0
 8cc:	0000010e 	andeq	r0, r0, lr, lsl #2
 8d0:	00042302 	andeq	r2, r4, r2, lsl #6
 8d4:	02a8010d 	adceq	r0, r8, #1073741827	; 0x40000003
 8d8:	04010000 	streq	r0, [r1], #-0
 8dc:	000089a8 	andeq	r8, r0, r8, lsr #19
 8e0:	000089bc 			; <UNDEFINED> instruction: 0x000089bc
 8e4:	0000028c 	andeq	r0, r0, ip, lsl #5
 8e8:	81010e01 	tsthi	r1, r1, lsl #28
 8ec:	01000002 	tsteq	r0, r2
 8f0:	89bc0109 	ldmibhi	ip!, {r0, r3, r8}
 8f4:	89e40000 	stmibhi	r4!, {}^	; <UNPREDICTABLE>
 8f8:	02ac0000 	adceq	r0, ip, #0
 8fc:	88010000 	stmdahi	r1, {}	; <UNPREDICTABLE>
 900:	0f000001 	svceq	0x00000001
 904:	000002be 			; <UNDEFINED> instruction: 0x000002be
 908:	01140901 	tsteq	r4, r1, lsl #18
 90c:	91020000 	mrsls	r0, (UNDEF: 2)
 910:	01100074 	tsteq	r0, r4, ror r0
 914:	00000298 	muleq	r0, r8, r2
 918:	89e40f01 	stmibhi	r4!, {r0, r8, r9, sl, fp}^
 91c:	89e80000 	stmibhi	r8!, {}^	; <UNPREDICTABLE>
 920:	7d020000 	stcvc	0, cr0, [r2, #-0]
 924:	01110100 	tsteq	r1, r0, lsl #2
 928:	0000028a 	andeq	r0, r0, sl, lsl #5
 92c:	89e81101 	stmibhi	r8!, {r0, r8, ip}^
 930:	8a180000 	bhi	600938 <__bss_end+0x5f7c08>
 934:	02d80000 	sbcseq	r0, r8, #0
 938:	c4010000 	strgt	r0, [r1], #-0
 93c:	12000001 	andne	r0, r0, #1
 940:	000002be 			; <UNDEFINED> instruction: 0x000002be
 944:	01141201 	tsteq	r4, r1, lsl #4
 948:	91020000 	mrsls	r0, (UNDEF: 2)
 94c:	01130074 	tsteq	r3, r4, ror r0
 950:	000002b3 			; <UNDEFINED> instruction: 0x000002b3
 954:	8a181801 	bhi	606960 <__bss_end+0x5fdc30>
 958:	8a600000 	bhi	1800960 <__bss_end+0x17f7c30>
 95c:	03040000 	movweq	r0, #16384	; 0x4000
 960:	ec010000 	stc	0, cr0, [r1], {-0}
 964:	12000001 	andne	r0, r0, #1
 968:	000002c9 	andeq	r0, r0, r9, asr #5
 96c:	01ec1901 	mvneq	r1, r1, lsl #18
 970:	91020000 	mrsls	r0, (UNDEF: 2)
 974:	04140074 	ldreq	r0, [r4], #-116	; 0x74
 978:	746e6905 	strbtvc	r6, [lr], #-2309	; 0x905
 97c:	02511500 	subseq	r1, r1, #0
 980:	23020000 	movwcs	r0, #8192	; 0x2000
 984:	0000010e 	andeq	r0, r0, lr, lsl #2
 988:	28030501 	stmdacs	r3, {r0, r8, sl}
 98c:	1600008d 	strne	r0, [r0], -sp, lsl #1
 990:	02004c43 	andeq	r4, r0, #17152	; 0x4300
 994:	00012124 	andeq	r2, r1, r4, lsr #2
 998:	03050100 	movweq	r0, #20736	; 0x5100
 99c:	00008d20 	andeq	r8, r0, r0, lsr #26
 9a0:	00026300 	andeq	r6, r2, r0, lsl #6
 9a4:	15000200 	strne	r0, [r0, #-512]	; 0x200
 9a8:	04000005 	streq	r0, [r0], #-5
 9ac:	00002501 	andeq	r2, r0, r1, lsl #10
 9b0:	03b70100 			; <UNDEFINED> instruction: 0x03b70100
 9b4:	00a40000 	adceq	r0, r4, r0
 9b8:	8a600000 	bhi	18009c0 <__bss_end+0x17f7c90>
 9bc:	8d000000 	stchi	0, cr0, [r0, #-0]
 9c0:	02a50000 	adceq	r0, r5, #0
 9c4:	02020000 	andeq	r0, r2, #0
 9c8:	00009107 	andeq	r9, r0, r7, lsl #2
 9cc:	02de0300 	sbcseq	r0, lr, #0
 9d0:	05020000 	streq	r0, [r2, #-0]
 9d4:	00000037 	andeq	r0, r0, r7, lsr r0
 9d8:	97070402 	strls	r0, [r7, -r2, lsl #8]
 9dc:	03000000 	movweq	r0, #0
 9e0:	00000316 	andeq	r0, r0, r6, lsl r3
 9e4:	00490602 	subeq	r0, r9, r2, lsl #12
 9e8:	01020000 	mrseq	r0, (UNDEF: 2)
 9ec:	0000ca08 	andeq	ip, r0, r8, lsl #20
 9f0:	037e0300 	cmneq	lr, #0
 9f4:	2b030000 	blcs	c09fc <__bss_end+0xb7ccc>
 9f8:	0000002c 	andeq	r0, r0, ip, lsr #32
 9fc:	00036d03 	andeq	r6, r3, r3, lsl #26
 a00:	3e2c0300 	cdpcc	3, 2, cr0, cr12, cr0, {0}
 a04:	04000000 	streq	r0, [r0], #-0
 a08:	00032701 	andeq	r2, r3, r1, lsl #14
 a0c:	011a0100 	tsteq	sl, r0, lsl #2
 a10:	00000091 	muleq	r0, r1, r0
 a14:	00008a60 	andeq	r8, r0, r0, ror #20
 a18:	00008ac4 	andeq	r8, r0, r4, asr #21
 a1c:	00000330 	andeq	r0, r0, r0, lsr r3
 a20:	00009101 	andeq	r9, r0, r1, lsl #2
 a24:	00690500 	rsbeq	r0, r9, r0, lsl #10
 a28:	00911c01 	addseq	r1, r1, r1, lsl #24
 a2c:	91020000 	mrsls	r0, (UNDEF: 2)
 a30:	0406007c 	streq	r0, [r6], #-124	; 0x7c
 a34:	746e6905 	strbtvc	r6, [lr], #-2309	; 0x905
 a38:	a7010700 	strge	r0, [r1, -r0, lsl #14]
 a3c:	01000003 	tsteq	r0, r3
 a40:	00005026 	andeq	r5, r0, r6, lsr #32
 a44:	008ac400 	addeq	ip, sl, r0, lsl #8
 a48:	008bc800 	addeq	ip, fp, r0, lsl #16
 a4c:	00035000 	andeq	r5, r3, r0
 a50:	00e40100 	rsceq	r0, r4, r0, lsl #2
 a54:	69050000 	stmdbvs	r5, {}	; <UNPREDICTABLE>
 a58:	91280100 	teqls	r8, r0, lsl #2
 a5c:	02000000 	andeq	r0, r0, #0
 a60:	6a057c91 	bvs	15fcac <__bss_end+0x156f7c>
 a64:	91290100 	teqls	r9, r0, lsl #2
 a68:	02000000 	andeq	r0, r0, #0
 a6c:	20087891 	mulcs	r8, r1, r8
 a70:	7400008b 	strvc	r0, [r0], #-139	; 0x8b
 a74:	0500008b 	streq	r0, [r0, #-139]	; 0x8b
 a78:	3501006b 	strcc	r0, [r1, #-107]	; 0x6b
 a7c:	00000091 	muleq	r0, r1, r0
 a80:	00749102 	rsbseq	r9, r4, r2, lsl #2
 a84:	c3010700 	movwgt	r0, #5888	; 0x1700
 a88:	01000003 	tsteq	r0, r3
 a8c:	00005043 	andeq	r5, r0, r3, asr #32
 a90:	008bc800 	addeq	ip, fp, r0, lsl #16
 a94:	008c5000 	addeq	r5, ip, r0
 a98:	00037000 	andeq	r7, r3, r0
 a9c:	010e0100 	mrseq	r0, (UNDEF: 30)
 aa0:	69050000 	stmdbvs	r5, {}	; <UNPREDICTABLE>
 aa4:	91450100 	mrsls	r0, (UNDEF: 85)
 aa8:	02000000 	andeq	r0, r0, #0
 aac:	09007c91 	stmdbeq	r0, {r0, r4, r7, sl, fp, ip, sp, lr}
 ab0:	00035301 	andeq	r5, r3, r1, lsl #6
 ab4:	01520100 	cmpeq	r2, r0, lsl #2
 ab8:	00008c50 	andeq	r8, r0, r0, asr ip
 abc:	00008c64 	andeq	r8, r0, r4, ror #24
 ac0:	00000390 	muleq	r0, r0, r3
 ac4:	00014501 	andeq	r4, r1, r1, lsl #10
 ac8:	00540a00 	subseq	r0, r4, r0, lsl #20
 acc:	52010000 	andpl	r0, r1, #0
 ad0:	00000050 	andeq	r0, r0, r0, asr r0
 ad4:	0a7c9102 	beq	1f24ee4 <__bss_end+0x1f1c1b4>
 ad8:	00000375 	andeq	r0, r0, r5, ror r3
 adc:	00505201 	subseq	r5, r0, r1, lsl #4
 ae0:	91020000 	mrsls	r0, (UNDEF: 2)
 ae4:	01090078 	tsteq	r9, r8, ror r0
 ae8:	000002e5 	andeq	r0, r0, r5, ror #5
 aec:	64018801 	strvs	r8, [r1], #-2049	; 0x801
 af0:	9400008c 	strls	r0, [r0], #-140	; 0x8c
 af4:	b000008c 	andlt	r0, r0, ip, lsl #1
 af8:	01000003 	tsteq	r0, r3
 afc:	0000016d 	andeq	r0, r0, sp, ror #2
 b00:	0003d40b 	andeq	sp, r3, fp, lsl #8
 b04:	378a0100 	strcc	r0, [sl, r0, lsl #2]
 b08:	01000000 	mrseq	r0, (UNDEF: 0)
 b0c:	01090054 	qaddeq	r0, r4, r9
 b10:	00000343 	andeq	r0, r0, r3, asr #6
 b14:	94019701 	strls	r9, [r1], #-1793	; 0x701
 b18:	d400008c 	strle	r0, [r0], #-140	; 0x8c
 b1c:	d000008c 	andle	r0, r0, ip, lsl #1
 b20:	01000003 	tsteq	r0, r3
 b24:	00000195 	muleq	r0, r5, r1
 b28:	0003030b 	andeq	r0, r3, fp, lsl #6
 b2c:	37990100 	ldrcc	r0, [r9, r0, lsl #2]
 b30:	01000000 	mrseq	r0, (UNDEF: 0)
 b34:	01040054 	qaddeq	r0, r4, r4
 b38:	0000031c 	andeq	r0, r0, ip, lsl r3
 b3c:	c201a701 	andgt	sl, r1, #262144	; 0x40000
 b40:	d4000001 	strle	r0, [r0], #-1
 b44:	ec00008c 	stc	0, cr0, [r0], {140}	; 0x8c
 b48:	f000008c 			; <UNDEFINED> instruction: 0xf000008c
 b4c:	01000003 	tsteq	r0, r3
 b50:	000001c2 	andeq	r0, r0, r2, asr #3
 b54:	0002fb0a 	andeq	pc, r2, sl, lsl #22
 b58:	37a70100 	strcc	r0, [r7, r0, lsl #2]!
 b5c:	02000000 	andeq	r0, r0, #0
 b60:	0c007c91 	stceq	12, cr7, [r0], {145}	; 0x91
 b64:	00005b04 	andeq	r5, r0, r4, lsl #22
 b68:	f1010900 			; <UNDEFINED> instruction: 0xf1010900
 b6c:	01000002 	tsteq	r0, r2
 b70:	8cec01ac 	stfhie	f0, [ip], #688	; 0x2b0
 b74:	8d000000 	stchi	0, cr0, [r0, #-0]
 b78:	04100000 	ldreq	r0, [r0], #-0
 b7c:	ff010000 			; <UNDEFINED> instruction: 0xff010000
 b80:	0d000001 	stceq	0, cr0, [r0, #-4]
 b84:	00727470 	rsbseq	r7, r2, r0, ror r4
 b88:	01c2ac01 	biceq	sl, r2, r1, lsl #24
 b8c:	91020000 	mrsls	r0, (UNDEF: 2)
 b90:	02fb0a7c 	rscseq	r0, fp, #507904	; 0x7c000
 b94:	ac010000 	stcge	0, cr0, [r1], {-0}
 b98:	00000037 	andeq	r0, r0, r7, lsr r0
 b9c:	00789102 	rsbseq	r9, r8, r2, lsl #2
 ba0:	00039a0b 	andeq	r9, r3, fp, lsl #20
 ba4:	50120100 	andspl	r0, r2, r0, lsl #2
 ba8:	05000000 	streq	r0, [r0, #-0]
 bac:	008d1803 	addeq	r1, sp, r3, lsl #16
 bb0:	03870b00 	orreq	r0, r7, #0
 bb4:	13010000 	movwne	r0, #4096	; 0x1000
 bb8:	00000050 	andeq	r0, r0, r0, asr r0
 bbc:	8d1c0305 	ldchi	3, cr0, [ip, #-20]	; 0xffffffec
 bc0:	af0b0000 	svcge	0x000b0000
 bc4:	01000003 	tsteq	r0, r3
 bc8:	00005016 	andeq	r5, r0, r6, lsl r0
 bcc:	0c030500 	cfstr32eq	mvfx0, [r3], {-0}
 bd0:	0b00008d 	bleq	e0c <_start-0x71f4>
 bd4:	000003dc 	ldrdeq	r0, [r0], -ip
 bd8:	01c21701 	biceq	r1, r2, r1, lsl #14
 bdc:	03050000 	movweq	r0, #20480	; 0x5000
 be0:	00008d10 	andeq	r8, r0, r0, lsl sp
 be4:	00030b0b 	andeq	r0, r3, fp, lsl #22
 be8:	c2180100 	andsgt	r0, r8, #0
 bec:	05000001 	streq	r0, [r0, #-1]
 bf0:	008d1403 	addeq	r1, sp, r3, lsl #8
 bf4:	03940e00 	orrseq	r0, r4, #0
 bf8:	03010000 	movweq	r0, #4096	; 0x1000
 bfc:	00000050 	andeq	r0, r0, r0, asr r0
 c00:	2c030501 	cfstr32cs	mvfx0, [r3], {1}
 c04:	0000008d 	andeq	r0, r0, sp, lsl #1

Disassembly of section .debug_abbrev:

00000000 <.debug_abbrev>:
   0:	10001101 	andne	r1, r0, r1, lsl #2
   4:	12011106 	andne	r1, r1, #-2147483647	; 0x80000001
   8:	1b080301 	blne	200c14 <__bss_end+0x1f7ee4>
   c:	13082508 	movwne	r2, #34056	; 0x8508
  10:	00000005 	andeq	r0, r0, r5
  14:	25011101 	strcs	r1, [r1, #-257]	; 0x101
  18:	030b130e 	movweq	r1, #45838	; 0xb30e
  1c:	110e1b0e 	tstne	lr, lr, lsl #22
  20:	10011201 	andne	r1, r1, r1, lsl #4
  24:	02000006 	andeq	r0, r0, #6
  28:	0e030016 	mcreq	0, 0, r0, cr3, cr6, {0}
  2c:	0b3b0b3a 	bleq	ec2d1c <__bss_end+0xeb9fec>
  30:	00001349 	andeq	r1, r0, r9, asr #6
  34:	03010403 	movweq	r0, #5123	; 0x1403
  38:	3a0b0b0e 	bcc	2c2c78 <__bss_end+0x2b9f48>
  3c:	010b3b0b 	tsteq	fp, fp, lsl #22
  40:	04000013 	streq	r0, [r0], #-19
  44:	08030028 	stmdaeq	r3, {r3, r5}
  48:	00000d1c 	andeq	r0, r0, ip, lsl sp
  4c:	03002805 	movweq	r2, #2053	; 0x805
  50:	000d1c0e 	andeq	r1, sp, lr, lsl #24
  54:	000f0600 	andeq	r0, pc, r0, lsl #12
  58:	13490b0b 	movtne	r0, #39691	; 0x9b0b
  5c:	15070000 	strne	r0, [r7, #-0]
  60:	000c2700 	andeq	r2, ip, r0, lsl #14
  64:	01130800 	tsteq	r3, r0, lsl #16
  68:	0b0b0e03 	bleq	2c387c <__bss_end+0x2bab4c>
  6c:	0b3b0b3a 	bleq	ec2d5c <__bss_end+0xeba02c>
  70:	00001301 	andeq	r1, r0, r1, lsl #6
  74:	03000d09 	movweq	r0, #3337	; 0xd09
  78:	3b0b3a08 	blcc	2ce8a0 <__bss_end+0x2c5b70>
  7c:	3813490b 	ldmdacc	r3, {r0, r1, r3, r8, fp, lr}
  80:	0a00000a 	beq	b0 <_start-0x7f50>
  84:	0e03000d 	cdpeq	0, 0, cr0, cr3, cr13, {0}
  88:	0b3b0b3a 	bleq	ec2d78 <__bss_end+0xeba048>
  8c:	0a381349 	beq	e04db8 <__bss_end+0xdfc088>
  90:	0f0b0000 	svceq	0x000b0000
  94:	000b0b00 	andeq	r0, fp, r0, lsl #22
  98:	00240c00 	eoreq	r0, r4, r0, lsl #24
  9c:	0b3e0b0b 	bleq	f82cd0 <__bss_end+0xf79fa0>
  a0:	00000e03 	andeq	r0, r0, r3, lsl #28
  a4:	3f012e0d 	svccc	0x00012e0d
  a8:	3a0e030c 	bcc	380ce0 <__bss_end+0x377fb0>
  ac:	110b3b0b 	tstne	fp, fp, lsl #22
  b0:	40011201 	andmi	r1, r1, r1, lsl #4
  b4:	0c429706 	mcrreq	7, 0, r9, r2, cr6
  b8:	00001301 	andeq	r1, r0, r1, lsl #6
  bc:	0300340e 	movweq	r3, #1038	; 0x40e
  c0:	3b0b3a0e 	blcc	2ce900 <__bss_end+0x2c5bd0>
  c4:	0213490b 	andseq	r4, r3, #180224	; 0x2c000
  c8:	0f00000a 	svceq	0x0000000a
  cc:	0b0b0024 	bleq	2c0164 <__bss_end+0x2b7434>
  d0:	08030b3e 	stmdaeq	r3, {r1, r2, r3, r4, r5, r8, r9, fp}
  d4:	2e100000 	cdpcs	0, 1, cr0, cr0, cr0, {0}
  d8:	030c3f00 	movweq	r3, #52992	; 0xcf00
  dc:	3b0b3a0e 	blcc	2ce91c <__bss_end+0x2c5bec>
  e0:	490c270b 	stmdbmi	ip, {r0, r1, r3, r8, r9, sl, sp}
  e4:	12011113 	andne	r1, r1, #-1073741820	; 0xc0000004
  e8:	96064001 	strls	r4, [r6], -r1
  ec:	00000c42 	andeq	r0, r0, r2, asr #24
  f0:	03003411 	movweq	r3, #1041	; 0x411
  f4:	3b0b3a0e 	blcc	2ce934 <__bss_end+0x2c5c04>
  f8:	3f13490b 	svccc	0x0013490b
  fc:	000a020c 	andeq	r0, sl, ip, lsl #4
 100:	00341200 	eorseq	r1, r4, r0, lsl #4
 104:	0b3a0803 	bleq	e82118 <__bss_end+0xe793e8>
 108:	13490b3b 	movtne	r0, #39739	; 0x9b3b
 10c:	0a020c3f 	beq	83210 <__bss_end+0x7a4e0>
 110:	01000000 	mrseq	r0, (UNDEF: 0)
 114:	0e250111 	mcreq	1, 1, r0, cr5, cr1, {0}
 118:	0e030b13 	vmoveq.32	d3[0], r0
 11c:	01110e1b 	tsteq	r1, fp, lsl lr
 120:	06100112 			; <UNDEFINED> instruction: 0x06100112
 124:	13020000 	movwne	r0, #8192	; 0x2000
 128:	0b080301 	bleq	200d34 <__bss_end+0x1f8004>
 12c:	3b0b3a0b 	blcc	2ce960 <__bss_end+0x2c5c30>
 130:	0013010b 	andseq	r0, r3, fp, lsl #2
 134:	000d0300 	andeq	r0, sp, r0, lsl #6
 138:	0b3a0e03 	bleq	e8394c <__bss_end+0xe7ac1c>
 13c:	13490b3b 	movtne	r0, #39739	; 0x9b3b
 140:	00000a38 	andeq	r0, r0, r8, lsr sl
 144:	0b000f04 	bleq	3d5c <_start-0x42a4>
 148:	0013490b 	andseq	r4, r3, fp, lsl #18
 14c:	00240500 	eoreq	r0, r4, r0, lsl #10
 150:	0b3e0b0b 	bleq	f82d84 <__bss_end+0xf7a054>
 154:	00000e03 	andeq	r0, r0, r3, lsl #28
 158:	3f012e06 	svccc	0x00012e06
 15c:	3a0e030c 	bcc	380d94 <__bss_end+0x378064>
 160:	270b3b0b 	strcs	r3, [fp, -fp, lsl #22]
 164:	1113490c 	tstne	r3, ip, lsl #18
 168:	40011201 	andmi	r1, r1, r1, lsl #4
 16c:	0c429706 	mcrreq	7, 0, r9, r2, cr6
 170:	00001301 	andeq	r1, r0, r1, lsl #6
 174:	03000507 	movweq	r0, #1287	; 0x507
 178:	3b0b3a0e 	blcc	2ce9b8 <__bss_end+0x2c5c88>
 17c:	0213490b 	andseq	r4, r3, #180224	; 0x2c000
 180:	0800000a 	stmdaeq	r0, {r1, r3}
 184:	08030034 	stmdaeq	r3, {r2, r4, r5}
 188:	0b3b0b3a 	bleq	ec2e78 <__bss_end+0xeba148>
 18c:	0a021349 	beq	84eb8 <__bss_end+0x7c188>
 190:	34090000 	strcc	r0, [r9], #-0
 194:	3a0e0300 	bcc	380d9c <__bss_end+0x37806c>
 198:	490b3b0b 	stmdbmi	fp, {r0, r1, r3, r8, r9, fp, ip, sp}
 19c:	000a0213 	andeq	r0, sl, r3, lsl r2
 1a0:	000f0a00 	andeq	r0, pc, r0, lsl #20
 1a4:	00000b0b 	andeq	r0, r0, fp, lsl #22
 1a8:	3f012e0b 	svccc	0x00012e0b
 1ac:	3a0e030c 	bcc	380de4 <__bss_end+0x3780b4>
 1b0:	270b3b0b 	strcs	r3, [fp, -fp, lsl #22]
 1b4:	1201110c 	andne	r1, r1, #3
 1b8:	97064001 	strls	r4, [r6, -r1]
 1bc:	13010c42 	movwne	r0, #7234	; 0x1c42
 1c0:	050c0000 	streq	r0, [ip, #-0]
 1c4:	3a080300 	bcc	200dcc <__bss_end+0x1f809c>
 1c8:	490b3b0b 	stmdbmi	fp, {r0, r1, r3, r8, r9, fp, ip, sp}
 1cc:	000a0213 	andeq	r0, sl, r3, lsl r2
 1d0:	00340d00 	eorseq	r0, r4, r0, lsl #26
 1d4:	0b3a0e03 	bleq	e839e8 <__bss_end+0xe7acb8>
 1d8:	13490b3b 	movtne	r0, #39739	; 0x9b3b
 1dc:	0a020c3f 	beq	832e0 <__bss_end+0x7a5b0>
 1e0:	01000000 	mrseq	r0, (UNDEF: 0)
 1e4:	0e250111 	mcreq	1, 1, r0, cr5, cr1, {0}
 1e8:	0e030b13 	vmoveq.32	d3[0], r0
 1ec:	01110e1b 	tsteq	r1, fp, lsl lr
 1f0:	06100112 			; <UNDEFINED> instruction: 0x06100112
 1f4:	24020000 	strcs	r0, [r2], #-0
 1f8:	3e0b0b00 	vmlacc.f64	d0, d11, d0
 1fc:	000e030b 	andeq	r0, lr, fp, lsl #6
 200:	012e0300 	teqeq	lr, r0, lsl #6
 204:	0e030c3f 	mcreq	12, 0, r0, cr3, cr15, {1}
 208:	0b3b0b3a 	bleq	ec2ef8 <__bss_end+0xeba1c8>
 20c:	01120111 	tsteq	r2, r1, lsl r1
 210:	42960640 	addsmi	r0, r6, #67108864	; 0x4000000
 214:	0013010c 	andseq	r0, r3, ip, lsl #2
 218:	00340400 	eorseq	r0, r4, r0, lsl #8
 21c:	0b3a0803 	bleq	e82230 <__bss_end+0xe79500>
 220:	13490b3b 	movtne	r0, #39739	; 0x9b3b
 224:	00000a02 	andeq	r0, r0, r2, lsl #20
 228:	3f002e05 	svccc	0x00002e05
 22c:	3a0e030c 	bcc	380e64 <__bss_end+0x378134>
 230:	110b3b0b 	tstne	fp, fp, lsl #22
 234:	40011201 	andmi	r1, r1, r1, lsl #4
 238:	0c429606 	mcrreq	6, 0, r9, r2, cr6
 23c:	2e060000 	cdpcs	0, 0, cr0, cr6, cr0, {0}
 240:	030c3f01 	movweq	r3, #52993	; 0xcf01
 244:	3b0b3a0e 	blcc	2cea84 <__bss_end+0x2c5d54>
 248:	1201110b 	andne	r1, r1, #-1073741822	; 0xc0000002
 24c:	96064001 	strls	r4, [r6], -r1
 250:	00000c42 	andeq	r0, r0, r2, asr #24
 254:	01110100 	tsteq	r1, r0, lsl #2
 258:	0b130e25 	bleq	4c3af4 <__bss_end+0x4badc4>
 25c:	0e1b0e03 	cdpeq	14, 1, cr0, cr11, cr3, {0}
 260:	01120111 	tsteq	r2, r1, lsl r1
 264:	00000610 	andeq	r0, r0, r0, lsl r6
 268:	03001602 	movweq	r1, #1538	; 0x602
 26c:	3b0b3a0e 	blcc	2ceaac <__bss_end+0x2c5d7c>
 270:	0013490b 	andseq	r4, r3, fp, lsl #18
 274:	01040300 	mrseq	r0, LR_abt
 278:	0b0b0e03 	bleq	2c3a8c <__bss_end+0x2bad5c>
 27c:	0b3b0b3a 	bleq	ec2f6c <__bss_end+0xeba23c>
 280:	00001301 	andeq	r1, r0, r1, lsl #6
 284:	03002804 	movweq	r2, #2052	; 0x804
 288:	000d1c08 	andeq	r1, sp, r8, lsl #24
 28c:	00280500 	eoreq	r0, r8, r0, lsl #10
 290:	0d1c0e03 	ldceq	14, cr0, [ip, #-12]
 294:	0f060000 	svceq	0x00060000
 298:	490b0b00 	stmdbmi	fp, {r8, r9, fp}
 29c:	07000013 	smladeq	r0, r3, r0, r0
 2a0:	0c270015 	stceq	0, cr0, [r7], #-84	; 0xffffffac
 2a4:	13080000 	movwne	r0, #32768	; 0x8000
 2a8:	0b0e0301 	bleq	380eb4 <__bss_end+0x378184>
 2ac:	3b0b3a0b 	blcc	2ceae0 <__bss_end+0x2c5db0>
 2b0:	0013010b 	andseq	r0, r3, fp, lsl #2
 2b4:	000d0900 	andeq	r0, sp, r0, lsl #18
 2b8:	0b3a0803 	bleq	e822cc <__bss_end+0xe7959c>
 2bc:	13490b3b 	movtne	r0, #39739	; 0x9b3b
 2c0:	00000a38 	andeq	r0, r0, r8, lsr sl
 2c4:	03000d0a 	movweq	r0, #3338	; 0xd0a
 2c8:	3b0b3a0e 	blcc	2ceb08 <__bss_end+0x2c5dd8>
 2cc:	3813490b 	ldmdacc	r3, {r0, r1, r3, r8, fp, lr}
 2d0:	0b00000a 	bleq	300 <_start-0x7d00>
 2d4:	0b0b000f 	bleq	2c0318 <__bss_end+0x2b75e8>
 2d8:	2e0c0000 	cdpcs	0, 0, cr0, cr12, cr0, {0}
 2dc:	030c3f01 	movweq	r3, #52993	; 0xcf01
 2e0:	3b0b3a0e 	blcc	2ceb20 <__bss_end+0x2c5df0>
 2e4:	110c270b 	tstne	ip, fp, lsl #14
 2e8:	40011201 	andmi	r1, r1, r1, lsl #4
 2ec:	0c429606 	mcrreq	6, 0, r9, r2, cr6
 2f0:	00001301 	andeq	r1, r0, r1, lsl #6
 2f4:	0300050d 	movweq	r0, #1293	; 0x50d
 2f8:	3b0b3a0e 	blcc	2ceb38 <__bss_end+0x2c5e08>
 2fc:	0213490b 	andseq	r4, r3, #180224	; 0x2c000
 300:	0e00000a 	cdpeq	0, 0, cr0, cr0, cr10, {0}
 304:	08030005 	stmdaeq	r3, {r0, r2}
 308:	0b3b0b3a 	bleq	ec2ff8 <__bss_end+0xeba2c8>
 30c:	0a021349 	beq	85038 <__bss_end+0x7c308>
 310:	240f0000 	strcs	r0, [pc], #-0	; 318 <_start-0x7ce8>
 314:	3e0b0b00 	vmlacc.f64	d0, d11, d0
 318:	000e030b 	andeq	r0, lr, fp, lsl #6
 31c:	00341000 	eorseq	r1, r4, r0
 320:	0b3a0803 	bleq	e82334 <__bss_end+0xe79604>
 324:	13490b3b 	movtne	r0, #39739	; 0x9b3b
 328:	00000a02 	andeq	r0, r0, r2, lsl #20
 32c:	03003411 	movweq	r3, #1041	; 0x411
 330:	3b0b3a0e 	blcc	2ceb70 <__bss_end+0x2c5e40>
 334:	0213490b 	andseq	r4, r3, #180224	; 0x2c000
 338:	1200000a 	andne	r0, r0, #10
 33c:	0c3f002e 	ldceq	0, cr0, [pc], #-184	; 28c <_start-0x7d74>
 340:	0b3a0e03 	bleq	e83b54 <__bss_end+0xe7ae24>
 344:	01110b3b 	tsteq	r1, fp, lsr fp
 348:	06400112 			; <UNDEFINED> instruction: 0x06400112
 34c:	000c4296 	muleq	ip, r6, r2
 350:	012e1300 	teqeq	lr, r0, lsl #6
 354:	0e030c3f 	mcreq	12, 0, r0, cr3, cr15, {1}
 358:	0b3b0b3a 	bleq	ec3048 <__bss_end+0xeba318>
 35c:	01120111 	tsteq	r2, r1, lsl r1
 360:	42960640 	addsmi	r0, r6, #67108864	; 0x4000000
 364:	0013010c 	andseq	r0, r3, ip, lsl #2
 368:	002e1400 	eoreq	r1, lr, r0, lsl #8
 36c:	0e030c3f 	mcreq	12, 0, r0, cr3, cr15, {1}
 370:	0b3b0b3a 	bleq	ec3060 <__bss_end+0xeba330>
 374:	01120111 	tsteq	r2, r1, lsl r1
 378:	42970a40 	addsmi	r0, r7, #262144	; 0x40000
 37c:	1500000c 	strne	r0, [r0, #-12]
 380:	0111010b 	tsteq	r1, fp, lsl #2
 384:	00000112 	andeq	r0, r0, r2, lsl r1
 388:	3f012e16 	svccc	0x00012e16
 38c:	3a0e030c 	bcc	380fc4 <__bss_end+0x378294>
 390:	110b3b0b 	tstne	fp, fp, lsl #22
 394:	40011201 	andmi	r1, r1, r1, lsl #4
 398:	0c42960a 	mcrreq	6, 0, r9, r2, cr10
 39c:	00001301 	andeq	r1, r0, r1, lsl #6
 3a0:	03003417 	movweq	r3, #1047	; 0x417
 3a4:	3b0b3a0e 	blcc	2cebe4 <__bss_end+0x2c5eb4>
 3a8:	3f13490b 	svccc	0x0013490b
 3ac:	000a020c 	andeq	r0, sl, ip, lsl #4
 3b0:	00341800 	eorseq	r1, r4, r0, lsl #16
 3b4:	0b3a0803 	bleq	e823c8 <__bss_end+0xe79698>
 3b8:	13490b3b 	movtne	r0, #39739	; 0x9b3b
 3bc:	0a020c3f 	beq	834c0 <__bss_end+0x7a790>
 3c0:	01000000 	mrseq	r0, (UNDEF: 0)
 3c4:	0e250111 	mcreq	1, 1, r0, cr5, cr1, {0}
 3c8:	0e030b13 	vmoveq.32	d3[0], r0
 3cc:	01110e1b 	tsteq	r1, fp, lsl lr
 3d0:	06100112 			; <UNDEFINED> instruction: 0x06100112
 3d4:	16020000 	strne	r0, [r2], -r0
 3d8:	3a0e0300 	bcc	380fe0 <__bss_end+0x3782b0>
 3dc:	490b3b0b 	stmdbmi	fp, {r0, r1, r3, r8, r9, fp, ip, sp}
 3e0:	03000013 	movweq	r0, #19
 3e4:	0e030104 	adfeqs	f0, f3, f4
 3e8:	0b3a0b0b 	bleq	e8301c <__bss_end+0xe7a2ec>
 3ec:	13010b3b 	movwne	r0, #6971	; 0x1b3b
 3f0:	28040000 	stmdacs	r4, {}	; <UNPREDICTABLE>
 3f4:	1c080300 	stcne	3, cr0, [r8], {-0}
 3f8:	0500000d 	streq	r0, [r0, #-13]
 3fc:	0e030028 	cdpeq	0, 0, cr0, cr3, cr8, {1}
 400:	00000d1c 	andeq	r0, r0, ip, lsl sp
 404:	0b000f06 	bleq	4024 <_start-0x3fdc>
 408:	0013490b 	andseq	r4, r3, fp, lsl #18
 40c:	00150700 	andseq	r0, r5, r0, lsl #14
 410:	00000c27 	andeq	r0, r0, r7, lsr #24
 414:	03011308 	movweq	r1, #4872	; 0x1308
 418:	3a0b0b0e 	bcc	2c3058 <__bss_end+0x2ba328>
 41c:	010b3b0b 	tsteq	fp, fp, lsl #22
 420:	09000013 	stmdbeq	r0, {r0, r1, r4}
 424:	0803000d 	stmdaeq	r3, {r0, r2, r3}
 428:	0b3b0b3a 	bleq	ec3118 <__bss_end+0xeba3e8>
 42c:	0a381349 	beq	e05158 <__bss_end+0xdfc428>
 430:	0d0a0000 	stceq	0, cr0, [sl, #-0]
 434:	3a0e0300 	bcc	38103c <__bss_end+0x37830c>
 438:	490b3b0b 	stmdbmi	fp, {r0, r1, r3, r8, r9, fp, ip, sp}
 43c:	000a3813 	andeq	r3, sl, r3, lsl r8
 440:	000f0b00 	andeq	r0, pc, r0, lsl #22
 444:	00000b0b 	andeq	r0, r0, fp, lsl #22
 448:	0b00240c 	bleq	9480 <__bss_end+0x750>
 44c:	030b3e0b 	movweq	r3, #48651	; 0xbe0b
 450:	0d00000e 	stceq	0, cr0, [r0, #-56]	; 0xffffffc8
 454:	0c3f002e 	ldceq	0, cr0, [pc], #-184	; 3a4 <_start-0x7c5c>
 458:	0b3a0e03 	bleq	e83c6c <__bss_end+0xe7af3c>
 45c:	01110b3b 	tsteq	r1, fp, lsr fp
 460:	06400112 			; <UNDEFINED> instruction: 0x06400112
 464:	000c4297 	muleq	ip, r7, r2
 468:	012e0e00 	teqeq	lr, r0, lsl #28
 46c:	0e030c3f 	mcreq	12, 0, r0, cr3, cr15, {1}
 470:	0b3b0b3a 	bleq	ec3160 <__bss_end+0xeba430>
 474:	01110c27 	tsteq	r1, r7, lsr #24
 478:	06400112 			; <UNDEFINED> instruction: 0x06400112
 47c:	010c4297 			; <UNDEFINED> instruction: 0x010c4297
 480:	0f000013 	svceq	0x00000013
 484:	0e030005 	cdpeq	0, 0, cr0, cr3, cr5, {0}
 488:	0b3b0b3a 	bleq	ec3178 <__bss_end+0xeba448>
 48c:	0a021349 	beq	851b8 <__bss_end+0x7c488>
 490:	2e100000 	cdpcs	0, 1, cr0, cr0, cr0, {0}
 494:	030c3f00 	movweq	r3, #52992	; 0xcf00
 498:	3b0b3a0e 	blcc	2cecd8 <__bss_end+0x2c5fa8>
 49c:	1201110b 	andne	r1, r1, #-1073741822	; 0xc0000002
 4a0:	970a4001 	strls	r4, [sl, -r1]
 4a4:	00000c42 	andeq	r0, r0, r2, asr #24
 4a8:	3f012e11 	svccc	0x00012e11
 4ac:	3a0e030c 	bcc	3810e4 <__bss_end+0x3783b4>
 4b0:	110b3b0b 	tstne	fp, fp, lsl #22
 4b4:	40011201 	andmi	r1, r1, r1, lsl #4
 4b8:	0c429706 	mcrreq	7, 0, r9, r2, cr6
 4bc:	00001301 	andeq	r1, r0, r1, lsl #6
 4c0:	03003412 	movweq	r3, #1042	; 0x412
 4c4:	3b0b3a0e 	blcc	2ced04 <__bss_end+0x2c5fd4>
 4c8:	0213490b 	andseq	r4, r3, #180224	; 0x2c000
 4cc:	1300000a 	movwne	r0, #10
 4d0:	0c3f012e 	ldfeqs	f0, [pc], #-184	; 420 <_start-0x7be0>
 4d4:	0b3a0e03 	bleq	e83ce8 <__bss_end+0xe7afb8>
 4d8:	01110b3b 	tsteq	r1, fp, lsr fp
 4dc:	06400112 			; <UNDEFINED> instruction: 0x06400112
 4e0:	010c4296 			; <UNDEFINED> instruction: 0x010c4296
 4e4:	14000013 	strne	r0, [r0], #-19
 4e8:	0b0b0024 	bleq	2c0580 <__bss_end+0x2b7850>
 4ec:	08030b3e 	stmdaeq	r3, {r1, r2, r3, r4, r5, r8, r9, fp}
 4f0:	34150000 	ldrcc	r0, [r5], #-0
 4f4:	3a0e0300 	bcc	3810fc <__bss_end+0x3783cc>
 4f8:	490b3b0b 	stmdbmi	fp, {r0, r1, r3, r8, r9, fp, ip, sp}
 4fc:	020c3f13 	andeq	r3, ip, #76	; 0x4c
 500:	1600000a 	strne	r0, [r0], -sl
 504:	08030034 	stmdaeq	r3, {r2, r4, r5}
 508:	0b3b0b3a 	bleq	ec31f8 <__bss_end+0xeba4c8>
 50c:	0c3f1349 	ldceq	3, cr1, [pc], #-292	; 3f0 <_start-0x7c10>
 510:	00000a02 	andeq	r0, r0, r2, lsl #20
 514:	01110100 	tsteq	r1, r0, lsl #2
 518:	0b130e25 	bleq	4c3db4 <__bss_end+0x4bb084>
 51c:	0e1b0e03 	cdpeq	14, 1, cr0, cr11, cr3, {0}
 520:	01120111 	tsteq	r2, r1, lsl r1
 524:	00000610 	andeq	r0, r0, r0, lsl r6
 528:	0b002402 	bleq	9538 <__bss_end+0x808>
 52c:	030b3e0b 	movweq	r3, #48651	; 0xbe0b
 530:	0300000e 	movweq	r0, #14
 534:	0e030016 	mcreq	0, 0, r0, cr3, cr6, {0}
 538:	0b3b0b3a 	bleq	ec3228 <__bss_end+0xeba4f8>
 53c:	00001349 	andeq	r1, r0, r9, asr #6
 540:	3f012e04 	svccc	0x00012e04
 544:	3a0e030c 	bcc	38117c <__bss_end+0x37844c>
 548:	270b3b0b 	strcs	r3, [fp, -fp, lsl #22]
 54c:	1113490c 	tstne	r3, ip, lsl #18
 550:	40011201 	andmi	r1, r1, r1, lsl #4
 554:	0c429706 	mcrreq	7, 0, r9, r2, cr6
 558:	00001301 	andeq	r1, r0, r1, lsl #6
 55c:	03003405 	movweq	r3, #1029	; 0x405
 560:	3b0b3a08 	blcc	2ced88 <__bss_end+0x2c6058>
 564:	0213490b 	andseq	r4, r3, #180224	; 0x2c000
 568:	0600000a 	streq	r0, [r0], -sl
 56c:	0b0b0024 	bleq	2c0604 <__bss_end+0x2b78d4>
 570:	08030b3e 	stmdaeq	r3, {r1, r2, r3, r4, r5, r8, r9, fp}
 574:	2e070000 	cdpcs	0, 0, cr0, cr7, cr0, {0}
 578:	030c3f01 	movweq	r3, #52993	; 0xcf01
 57c:	3b0b3a0e 	blcc	2cedbc <__bss_end+0x2c608c>
 580:	1113490b 	tstne	r3, fp, lsl #18
 584:	40011201 	andmi	r1, r1, r1, lsl #4
 588:	0c429706 	mcrreq	7, 0, r9, r2, cr6
 58c:	00001301 	andeq	r1, r0, r1, lsl #6
 590:	11010b08 	tstne	r1, r8, lsl #22
 594:	00011201 	andeq	r1, r1, r1, lsl #4
 598:	012e0900 	teqeq	lr, r0, lsl #18
 59c:	0e030c3f 	mcreq	12, 0, r0, cr3, cr15, {1}
 5a0:	0b3b0b3a 	bleq	ec3290 <__bss_end+0xeba560>
 5a4:	01110c27 	tsteq	r1, r7, lsr #24
 5a8:	06400112 			; <UNDEFINED> instruction: 0x06400112
 5ac:	010c4297 			; <UNDEFINED> instruction: 0x010c4297
 5b0:	0a000013 	beq	604 <_start-0x79fc>
 5b4:	0e030005 	cdpeq	0, 0, cr0, cr3, cr5, {0}
 5b8:	0b3b0b3a 	bleq	ec32a8 <__bss_end+0xeba578>
 5bc:	0a021349 	beq	852e8 <__bss_end+0x7c5b8>
 5c0:	340b0000 	strcc	r0, [fp], #-0
 5c4:	3a0e0300 	bcc	3811cc <__bss_end+0x37849c>
 5c8:	490b3b0b 	stmdbmi	fp, {r0, r1, r3, r8, r9, fp, ip, sp}
 5cc:	000a0213 	andeq	r0, sl, r3, lsl r2
 5d0:	000f0c00 	andeq	r0, pc, r0, lsl #24
 5d4:	13490b0b 	movtne	r0, #39691	; 0x9b0b
 5d8:	050d0000 	streq	r0, [sp, #-0]
 5dc:	3a080300 	bcc	2011e4 <__bss_end+0x1f84b4>
 5e0:	490b3b0b 	stmdbmi	fp, {r0, r1, r3, r8, r9, fp, ip, sp}
 5e4:	000a0213 	andeq	r0, sl, r3, lsl r2
 5e8:	00340e00 	eorseq	r0, r4, r0, lsl #28
 5ec:	0b3a0e03 	bleq	e83e00 <__bss_end+0xe7b0d0>
 5f0:	13490b3b 	movtne	r0, #39739	; 0x9b3b
 5f4:	0a020c3f 	beq	836f8 <__bss_end+0x7a9c8>
 5f8:	Address 0x00000000000005f8 is out of bounds.


Disassembly of section .debug_aranges:

00000000 <.debug_aranges>:
   0:	0000001c 	andeq	r0, r0, ip, lsl r0
   4:	00000002 	andeq	r0, r0, r2
   8:	00040000 	andeq	r0, r4, r0
   c:	00000000 	andeq	r0, r0, r0
  10:	00008000 	andeq	r8, r0, r0
  14:	000000d0 	ldrdeq	r0, [r0], -r0	; <UNPREDICTABLE>
	...
  20:	0000001c 	andeq	r0, r0, ip, lsl r0
  24:	00560002 	subseq	r0, r6, r2
  28:	00040000 	andeq	r0, r4, r0
  2c:	00000000 	andeq	r0, r0, r0
  30:	000080d0 	ldrdeq	r8, [r0], -r0
  34:	00000074 	andeq	r0, r0, r4, ror r0
	...
  40:	0000001c 	andeq	r0, r0, ip, lsl r0
  44:	02430002 	subeq	r0, r3, #2
  48:	00040000 	andeq	r0, r4, r0
  4c:	00000000 	andeq	r0, r0, r0
  50:	00008144 	andeq	r8, r0, r4, asr #2
  54:	00000138 	andeq	r0, r0, r8, lsr r1
	...
  60:	0000001c 	andeq	r0, r0, ip, lsl r0
  64:	03a50002 			; <UNDEFINED> instruction: 0x03a50002
  68:	00040000 	andeq	r0, r4, r0
  6c:	00000000 	andeq	r0, r0, r0
  70:	0000827c 	andeq	r8, r0, ip, ror r2
  74:	0000013c 	andeq	r0, r0, ip, lsr r1
	...
  80:	0000001c 	andeq	r0, r0, ip, lsl r0
  84:	04610002 	strbteq	r0, [r1], #-2
  88:	00040000 	andeq	r0, r4, r0
  8c:	00000000 	andeq	r0, r0, r0
  90:	000083b8 			; <UNDEFINED> instruction: 0x000083b8
  94:	000005f0 	strdeq	r0, [r0], -r0	; <UNPREDICTABLE>
	...
  a0:	0000001c 	andeq	r0, r0, ip, lsl r0
  a4:	078a0002 	streq	r0, [sl, r2]
  a8:	00040000 	andeq	r0, r4, r0
  ac:	00000000 	andeq	r0, r0, r0
  b0:	000089a8 	andeq	r8, r0, r8, lsr #19
  b4:	000000b8 	strheq	r0, [r0], -r8
	...
  c0:	0000001c 	andeq	r0, r0, ip, lsl r0
  c4:	09a10002 	stmibeq	r1!, {r1}
  c8:	00040000 	andeq	r0, r4, r0
  cc:	00000000 	andeq	r0, r0, r0
  d0:	00008a60 	andeq	r8, r0, r0, ror #20
  d4:	000002a0 	andeq	r0, r0, r0, lsr #5
	...

Disassembly of section .debug_loc:

00000000 <.debug_loc>:
   0:	00000000 	andeq	r0, r0, r0
   4:	00000004 	andeq	r0, r0, r4
   8:	007d0002 	rsbseq	r0, sp, r2
   c:	00000004 	andeq	r0, r0, r4
  10:	00000040 	andeq	r0, r0, r0, asr #32
  14:	087d0002 	ldmdaeq	sp!, {r1}^
	...
  20:	00000040 	andeq	r0, r0, r0, asr #32
  24:	00000044 	andeq	r0, r0, r4, asr #32
  28:	007d0002 	rsbseq	r0, sp, r2
  2c:	00000044 	andeq	r0, r0, r4, asr #32
  30:	0000005c 	andeq	r0, r0, ip, asr r0
  34:	087d0002 	ldmdaeq	sp!, {r1}^
	...
  40:	0000005c 	andeq	r0, r0, ip, asr r0
  44:	00000060 	andeq	r0, r0, r0, rrx
  48:	007d0002 	rsbseq	r0, sp, r2
  4c:	00000060 	andeq	r0, r0, r0, rrx
  50:	00000074 	andeq	r0, r0, r4, ror r0
  54:	087d0002 	ldmdaeq	sp!, {r1}^
	...
  64:	00000004 	andeq	r0, r0, r4
  68:	007d0002 	rsbseq	r0, sp, r2
  6c:	00000004 	andeq	r0, r0, r4
  70:	00000008 	andeq	r0, r0, r8
  74:	087d0002 	ldmdaeq	sp!, {r1}^
  78:	00000008 	andeq	r0, r0, r8
  7c:	000000b4 	strheq	r0, [r0], -r4
  80:	107d0002 	rsbsne	r0, sp, r2
	...
  8c:	000000b4 	strheq	r0, [r0], -r4
  90:	000000b8 	strheq	r0, [r0], -r8
  94:	007d0002 	rsbseq	r0, sp, r2
  98:	000000b8 	strheq	r0, [r0], -r8
  9c:	000000bc 	strheq	r0, [r0], -ip
  a0:	047d0002 	ldrbteq	r0, [sp], #-2
  a4:	000000bc 	strheq	r0, [r0], -ip
  a8:	000000fc 	strdeq	r0, [r0], -ip
  ac:	107d0002 	rsbsne	r0, sp, r2
	...
  b8:	000000fc 	strdeq	r0, [r0], -ip
  bc:	00000100 	andeq	r0, r0, r0, lsl #2
  c0:	007d0002 	rsbseq	r0, sp, r2
  c4:	00000100 	andeq	r0, r0, r0, lsl #2
  c8:	00000138 	andeq	r0, r0, r8, lsr r1
  cc:	087d0002 	ldmdaeq	sp!, {r1}^
	...
  dc:	00000004 	andeq	r0, r0, r4
  e0:	007d0002 	rsbseq	r0, sp, r2
  e4:	00000004 	andeq	r0, r0, r4
  e8:	00000008 	andeq	r0, r0, r8
  ec:	047d0002 	ldrbteq	r0, [sp], #-2
  f0:	00000008 	andeq	r0, r0, r8
  f4:	0000004c 	andeq	r0, r0, ip, asr #32
  f8:	107d0002 	rsbsne	r0, sp, r2
	...
 104:	0000004c 	andeq	r0, r0, ip, asr #32
 108:	00000050 	andeq	r0, r0, r0, asr r0
 10c:	007d0002 	rsbseq	r0, sp, r2
 110:	00000050 	andeq	r0, r0, r0, asr r0
 114:	00000064 	andeq	r0, r0, r4, rrx
 118:	087d0002 	ldmdaeq	sp!, {r1}^
	...
 124:	00000064 	andeq	r0, r0, r4, rrx
 128:	00000068 	andeq	r0, r0, r8, rrx
 12c:	007d0002 	rsbseq	r0, sp, r2
 130:	00000068 	andeq	r0, r0, r8, rrx
 134:	0000007c 	andeq	r0, r0, ip, ror r0
 138:	087d0002 	ldmdaeq	sp!, {r1}^
	...
 144:	0000007c 	andeq	r0, r0, ip, ror r0
 148:	00000080 	andeq	r0, r0, r0, lsl #1
 14c:	007d0002 	rsbseq	r0, sp, r2
 150:	00000080 	andeq	r0, r0, r0, lsl #1
 154:	00000084 	andeq	r0, r0, r4, lsl #1
 158:	047d0002 	ldrbteq	r0, [sp], #-2
 15c:	00000084 	andeq	r0, r0, r4, lsl #1
 160:	0000013c 	andeq	r0, r0, ip, lsr r1
 164:	107d0002 	rsbsne	r0, sp, r2
	...
 174:	00000004 	andeq	r0, r0, r4
 178:	007d0002 	rsbseq	r0, sp, r2
 17c:	00000004 	andeq	r0, r0, r4
 180:	00000008 	andeq	r0, r0, r8
 184:	047d0002 	ldrbteq	r0, [sp], #-2
 188:	00000008 	andeq	r0, r0, r8
 18c:	00000054 	andeq	r0, r0, r4, asr r0
 190:	187d0002 	ldmdane	sp!, {r1}^
	...
 19c:	00000054 	andeq	r0, r0, r4, asr r0
 1a0:	00000058 	andeq	r0, r0, r8, asr r0
 1a4:	007d0002 	rsbseq	r0, sp, r2
 1a8:	00000058 	andeq	r0, r0, r8, asr r0
 1ac:	0000005c 	andeq	r0, r0, ip, asr r0
 1b0:	047d0002 	ldrbteq	r0, [sp], #-2
 1b4:	0000005c 	andeq	r0, r0, ip, asr r0
 1b8:	000000c0 	andeq	r0, r0, r0, asr #1
 1bc:	207d0002 	rsbscs	r0, sp, r2
	...
 1c8:	000000c0 	andeq	r0, r0, r0, asr #1
 1cc:	000000c4 	andeq	r0, r0, r4, asr #1
 1d0:	007d0002 	rsbseq	r0, sp, r2
 1d4:	000000c4 	andeq	r0, r0, r4, asr #1
 1d8:	000000c8 	andeq	r0, r0, r8, asr #1
 1dc:	047d0002 	ldrbteq	r0, [sp], #-2
 1e0:	000000c8 	andeq	r0, r0, r8, asr #1
 1e4:	000001a8 	andeq	r0, r0, r8, lsr #3
 1e8:	207d0002 	rsbscs	r0, sp, r2
	...
 1f4:	000001a8 	andeq	r0, r0, r8, lsr #3
 1f8:	000001ac 	andeq	r0, r0, ip, lsr #3
 1fc:	007d0002 	rsbseq	r0, sp, r2
 200:	000001ac 	andeq	r0, r0, ip, lsr #3
 204:	00000210 	andeq	r0, r0, r0, lsl r2
 208:	087d0002 	ldmdaeq	sp!, {r1}^
	...
 214:	00000210 	andeq	r0, r0, r0, lsl r2
 218:	00000214 	andeq	r0, r0, r4, lsl r2
 21c:	007d0002 	rsbseq	r0, sp, r2
 220:	00000214 	andeq	r0, r0, r4, lsl r2
 224:	00000218 	andeq	r0, r0, r8, lsl r2
 228:	047d0002 	ldrbteq	r0, [sp], #-2
 22c:	00000218 	andeq	r0, r0, r8, lsl r2
 230:	00000304 	andeq	r0, r0, r4, lsl #6
 234:	107d0002 	rsbsne	r0, sp, r2
	...
 240:	00000320 	andeq	r0, r0, r0, lsr #6
 244:	00000324 	andeq	r0, r0, r4, lsr #6
 248:	007d0002 	rsbseq	r0, sp, r2
 24c:	00000324 	andeq	r0, r0, r4, lsr #6
 250:	00000358 	andeq	r0, r0, r8, asr r3
 254:	087d0002 	ldmdaeq	sp!, {r1}^
	...
 260:	00000358 	andeq	r0, r0, r8, asr r3
 264:	0000035c 	andeq	r0, r0, ip, asr r3
 268:	007d0002 	rsbseq	r0, sp, r2
 26c:	0000035c 	andeq	r0, r0, ip, asr r3
 270:	00000360 	andeq	r0, r0, r0, ror #6
 274:	047d0002 	ldrbteq	r0, [sp], #-2
 278:	00000360 	andeq	r0, r0, r0, ror #6
 27c:	000004dc 	ldrdeq	r0, [r0], -ip
 280:	107d0002 	rsbsne	r0, sp, r2
	...
 290:	00000004 	andeq	r0, r0, r4
 294:	007d0002 	rsbseq	r0, sp, r2
 298:	00000004 	andeq	r0, r0, r4
 29c:	00000014 	andeq	r0, r0, r4, lsl r0
 2a0:	047d0002 	ldrbteq	r0, [sp], #-2
	...
 2ac:	00000014 	andeq	r0, r0, r4, lsl r0
 2b0:	00000018 	andeq	r0, r0, r8, lsl r0
 2b4:	007d0002 	rsbseq	r0, sp, r2
 2b8:	00000018 	andeq	r0, r0, r8, lsl r0
 2bc:	0000001c 	andeq	r0, r0, ip, lsl r0
 2c0:	047d0002 	ldrbteq	r0, [sp], #-2
 2c4:	0000001c 	andeq	r0, r0, ip, lsl r0
 2c8:	0000003c 	andeq	r0, r0, ip, lsr r0
 2cc:	107d0002 	rsbsne	r0, sp, r2
	...
 2d8:	00000040 	andeq	r0, r0, r0, asr #32
 2dc:	00000044 	andeq	r0, r0, r4, asr #32
 2e0:	007d0002 	rsbseq	r0, sp, r2
 2e4:	00000044 	andeq	r0, r0, r4, asr #32
 2e8:	00000048 	andeq	r0, r0, r8, asr #32
 2ec:	047d0002 	ldrbteq	r0, [sp], #-2
 2f0:	00000048 	andeq	r0, r0, r8, asr #32
 2f4:	00000070 	andeq	r0, r0, r0, ror r0
 2f8:	107d0002 	rsbsne	r0, sp, r2
	...
 304:	00000070 	andeq	r0, r0, r0, ror r0
 308:	00000074 	andeq	r0, r0, r4, ror r0
 30c:	007d0002 	rsbseq	r0, sp, r2
 310:	00000074 	andeq	r0, r0, r4, ror r0
 314:	00000078 	andeq	r0, r0, r8, ror r0
 318:	087d0002 	ldmdaeq	sp!, {r1}^
 31c:	00000078 	andeq	r0, r0, r8, ror r0
 320:	000000b8 	strheq	r0, [r0], -r8
 324:	107d0002 	rsbsne	r0, sp, r2
	...
 334:	00000004 	andeq	r0, r0, r4
 338:	007d0002 	rsbseq	r0, sp, r2
 33c:	00000004 	andeq	r0, r0, r4
 340:	00000064 	andeq	r0, r0, r4, rrx
 344:	087d0002 	ldmdaeq	sp!, {r1}^
	...
 350:	00000064 	andeq	r0, r0, r4, rrx
 354:	00000068 	andeq	r0, r0, r8, rrx
 358:	007d0002 	rsbseq	r0, sp, r2
 35c:	00000068 	andeq	r0, r0, r8, rrx
 360:	00000168 	andeq	r0, r0, r8, ror #2
 364:	107d0002 	rsbsne	r0, sp, r2
	...
 370:	00000168 	andeq	r0, r0, r8, ror #2
 374:	0000016c 	andeq	r0, r0, ip, ror #2
 378:	007d0002 	rsbseq	r0, sp, r2
 37c:	0000016c 	andeq	r0, r0, ip, ror #2
 380:	000001f0 	strdeq	r0, [r0], -r0	; <UNPREDICTABLE>
 384:	087d0002 	ldmdaeq	sp!, {r1}^
	...
 390:	000001f0 	strdeq	r0, [r0], -r0	; <UNPREDICTABLE>
 394:	000001f4 	strdeq	r0, [r0], -r4
 398:	007d0002 	rsbseq	r0, sp, r2
 39c:	000001f4 	strdeq	r0, [r0], -r4
 3a0:	00000204 	andeq	r0, r0, r4, lsl #4
 3a4:	087d0002 	ldmdaeq	sp!, {r1}^
	...
 3b0:	00000204 	andeq	r0, r0, r4, lsl #4
 3b4:	00000208 	andeq	r0, r0, r8, lsl #4
 3b8:	007d0002 	rsbseq	r0, sp, r2
 3bc:	00000208 	andeq	r0, r0, r8, lsl #4
 3c0:	00000234 	andeq	r0, r0, r4, lsr r2
 3c4:	047d0002 	ldrbteq	r0, [sp], #-2
	...
 3d0:	00000234 	andeq	r0, r0, r4, lsr r2
 3d4:	00000238 	andeq	r0, r0, r8, lsr r2
 3d8:	007d0002 	rsbseq	r0, sp, r2
 3dc:	00000238 	andeq	r0, r0, r8, lsr r2
 3e0:	00000274 	andeq	r0, r0, r4, ror r2
 3e4:	047d0002 	ldrbteq	r0, [sp], #-2
	...
 3f0:	00000274 	andeq	r0, r0, r4, ror r2
 3f4:	00000278 	andeq	r0, r0, r8, ror r2
 3f8:	007d0002 	rsbseq	r0, sp, r2
 3fc:	00000278 	andeq	r0, r0, r8, ror r2
 400:	0000028c 	andeq	r0, r0, ip, lsl #5
 404:	087d0002 	ldmdaeq	sp!, {r1}^
	...
 410:	0000028c 	andeq	r0, r0, ip, lsl #5
 414:	00000290 	muleq	r0, r0, r2
 418:	007d0002 	rsbseq	r0, sp, r2
 41c:	00000290 	muleq	r0, r0, r2
 420:	000002a0 	andeq	r0, r0, r0, lsr #5
 424:	087d0002 	ldmdaeq	sp!, {r1}^
	...

Disassembly of section .debug_str:

00000000 <.debug_str>:
   0:	5f626370 	svcpl	0x00626370
   4:	73677261 	cmnvc	r7, #268435462	; 0x10000006
   8:	616d6b00 	cmnvs	sp, r0, lsl #22
   c:	63006e69 	movwvs	r6, #3689	; 0xe69
  10:	00427470 	subeq	r7, r2, r0, ror r4
  14:	7478656e 	ldrbtvc	r6, [r8], #-1390	; 0x56e
  18:	6263705f 	rsbvs	r7, r3, #95	; 0x5f
  1c:	6e756600 	cdpvs	6, 7, cr6, cr5, cr0, {0}
  20:	745f7463 	ldrbvc	r7, [pc], #-1123	; 28 <_start-0x7fd8>
  24:	554e4700 	strbpl	r4, [lr, #-1792]	; 0x700
  28:	34204320 	strtcc	r4, [r0], #-800	; 0x320
  2c:	312e372e 	teqcc	lr, lr, lsr #14
  30:	49415700 	stmdbmi	r1, {r8, r9, sl, ip, lr}^
  34:	474e4954 	smlsldmi	r4, lr, r4, r9
  38:	74706300 	ldrbtvc	r6, [r0], #-768	; 0x300
  3c:	69660041 	stmdbvs	r6!, {r0, r6}^
  40:	5f747372 	svcpl	0x00747372
  44:	00626370 	rsbeq	r6, r2, r0, ror r3
  48:	5f626370 	svcpl	0x00626370
  4c:	75660066 	strbvc	r0, [r6, #-102]!	; 0x66
  50:	0041636e 	subeq	r6, r1, lr, ror #6
  54:	72646461 	rsbvc	r6, r4, #1627389952	; 0x61000000
  58:	00737365 	rsbseq	r7, r3, r5, ror #6
  5c:	69616863 	stmdbvs	r1!, {r0, r1, r5, r6, fp, sp, lr}^
  60:	5f64656e 	svcpl	0x0064656e
  64:	7473696c 	ldrbtvc	r6, [r3], #-2412	; 0x96c
  68:	52455400 	subpl	r5, r5, #0
  6c:	414e494d 	cmpmi	lr, sp, asr #18
  70:	00444554 	subeq	r4, r4, r4, asr r5
  74:	7473616c 	ldrbtvc	r6, [r3], #-364	; 0x16c
  78:	6263705f 	rsbvs	r7, r3, #95	; 0x5f
  7c:	6e756600 	cdpvs	6, 7, cr6, cr5, cr0, {0}
  80:	63004263 	movwvs	r4, #611	; 0x263
  84:	735f7874 	cmpvc	pc, #7602176	; 0x740000
  88:	4e555200 	cdpmi	2, 5, cr5, cr5, cr0, {0}
  8c:	474e494e 	strbmi	r4, [lr, -lr, asr #18]
  90:	6f687300 	svcvs	0x00687300
  94:	75207472 	strvc	r7, [r0, #-1138]!	; 0x472
  98:	6769736e 	strbvs	r7, [r9, -lr, ror #6]!
  9c:	2064656e 	rsbcs	r6, r4, lr, ror #10
  a0:	00746e69 	rsbseq	r6, r4, r9, ror #28
  a4:	6d6f682f 	stclvs	8, cr6, [pc, #-188]!	; fffffff0 <__bss_end+0xffff72c0>
  a8:	6e722f65 	cdpvs	15, 7, cr2, cr2, cr5, {3}
  ac:	6c6f6369 	stclvs	3, cr6, [pc], #-420	; ffffff10 <__bss_end+0xffff71e0>
  b0:	482f7465 	stmdami	pc!, {r0, r2, r5, r6, sl, ip, sp, lr}	; <UNPREDICTABLE>
  b4:	34303134 	ldrtcc	r3, [r0], #-308	; 0x134
  b8:	2f534f2f 	svccs	0x00534f2f
  bc:	522d734f 	eorpl	r7, sp, #1006632961	; 0x3c000001
  c0:	65707361 	ldrbvs	r7, [r0, #-865]!	; 0x361
  c4:	72726562 	rsbsvc	r6, r2, #411041792	; 0x18800000
  c8:	6e750079 	mrcvs	0, 3, r0, cr5, cr9, {3}
  cc:	6e676973 	mcrvs	9, 3, r6, cr7, cr3, {3}
  d0:	63206465 	teqvs	r0, #1694498816	; 0x65000000
  d4:	00726168 	rsbseq	r6, r2, r8, ror #2
  d8:	6e72656b 	cdpvs	5, 7, cr6, cr2, cr11, {3}
  dc:	632e6c65 	teqvs	lr, #25856	; 0x6500
  e0:	61747300 	cmnvs	r4, r0, lsl #6
  e4:	74006574 	strvc	r6, [r0], #-1396	; 0x574
  e8:	73706d65 	cmnvc	r0, #6464	; 0x1940
  ec:	65747441 	ldrbvs	r7, [r4, #-1089]!	; 0x441
  f0:	0065746e 	rsbeq	r7, r5, lr, ror #8
  f4:	5f626370 	svcpl	0x00626370
  f8:	6e690073 	mcrvs	0, 3, r0, cr9, cr3, {3}
  fc:	735f7469 	cmpvc	pc, #1761607680	; 0x69000000
 100:	74530070 	ldrbvc	r0, [r3], #-112	; 0x70
 104:	00657461 	rsbeq	r7, r5, r1, ror #8
 108:	5f626370 	svcpl	0x00626370
 10c:	00787463 	rsbseq	r7, r8, r3, ror #8
 110:	41796870 	cmnmi	r9, r0, ror r8
 114:	636f6c6c 	cmnvs	pc, #27648	; 0x6c00
 118:	7000632e 	andvc	r6, r0, lr, lsr #6
 11c:	00766572 	rsbseq	r6, r6, r2, ror r5
 120:	65657266 	strbvs	r7, [r5, #-614]!	; 0x266
 124:	7473696c 	ldrbtvc	r6, [r3], #-2412	; 0x96c
 128:	79687000 	stmdbvc	r8!, {ip, sp, lr}^
 12c:	6f6c6c41 	svcvs	0x006c6c41
 130:	72665f63 	rsbvc	r5, r6, #396	; 0x18c
 134:	2f006565 	svccs	0x00006565
 138:	656d6f68 	strbvs	r6, [sp, #-3944]!	; 0xf68
 13c:	6f63762f 	svcvs	0x0063762f
 140:	2f65746d 	svccs	0x0065746d
 144:	75636f44 	strbvc	r6, [r3, #-3908]!	; 0xf44
 148:	746e656d 	strbtvc	r6, [lr], #-1389	; 0x56d
 14c:	70542f73 	subsvc	r2, r4, r3, ror pc
 150:	7361522d 	cmnvc	r1, #-805306366	; 0xd0000002
 154:	72656270 	rsbvc	r6, r5, #7
 158:	6f2f7972 	svcvs	0x002f7972
 15c:	65697073 	strbvs	r7, [r9, #-115]!	; 0x73
 160:	6174732d 	cmnvs	r4, sp, lsr #6
 164:	68007472 	stmdavs	r0, {r1, r4, r5, r6, sl, ip, sp, lr}
 168:	5f706165 	svcpl	0x00706165
 16c:	696d696c 	stmdbvs	sp!, {r2, r3, r5, r6, r8, fp, sp, lr}^
 170:	65680074 	strbvs	r0, [r8, #-116]!	; 0x74
 174:	735f7061 	cmpvc	pc, #97	; 0x61
 178:	74726174 	ldrbtvc	r6, [r2], #-372	; 0x174
 17c:	78656e00 	stmdavc	r5!, {r9, sl, fp, sp, lr}^
 180:	68700074 	ldmdavs	r0!, {r2, r4, r5, r6}^
 184:	6c6c4179 	stfvse	f4, [ip], #-484	; 0xfffffe1c
 188:	615f636f 	cmpvs	pc, pc, ror #6
 18c:	636f6c6c 	cmnvs	pc, #27648	; 0x6c00
 190:	79687000 	stmdbvc	r8!, {ip, sp, lr}^
 194:	6f6c6c41 	svcvs	0x006c6c41
 198:	6e695f63 	cdpvs	15, 6, cr5, cr9, cr3, {3}
 19c:	68007469 	stmdavs	r0, {r0, r3, r5, r6, sl, ip, sp, lr}
 1a0:	5f706165 	svcpl	0x00706165
 1a4:	657a6973 	ldrbvs	r6, [sl, #-2419]!	; 0x973
 1a8:	2e776800 	cdpcs	8, 7, cr6, cr7, cr0, {0}
 1ac:	65730063 	ldrbvs	r0, [r3, #-99]!	; 0x63
 1b0:	69745f74 	ldmdbvs	r4!, {r2, r4, r5, r6, r8, r9, sl, fp, ip, lr}^
 1b4:	615f6b63 	cmpvs	pc, r3, ror #22
 1b8:	655f646e 	ldrbvs	r6, [pc, #-1134]	; fffffd52 <__bss_end+0xffff7022>
 1bc:	6c62616e 	stfvse	f6, [r2], #-440	; 0xfffffe48
 1c0:	69745f65 	ldmdbvs	r4!, {r0, r2, r5, r6, r8, r9, sl, fp, ip, lr}^
 1c4:	0072656d 	rsbseq	r6, r2, sp, ror #10
 1c8:	5f64656c 	svcpl	0x0064656c
 1cc:	69006e6f 	stmdbvs	r0, {r0, r1, r2, r3, r5, r6, r9, sl, fp, sp, lr}
 1d0:	5f74696e 	svcpl	0x0074696e
 1d4:	6c007768 	stcvs	7, cr7, [r0], {104}	; 0x68
 1d8:	6f5f6465 	svcvs	0x005f6465
 1dc:	63006666 	movwvs	r6, #1638	; 0x666
 1e0:	735f7874 	cmpvc	pc, #7602176	; 0x740000
 1e4:	63746977 	cmnvs	r4, #1949696	; 0x1dc000
 1e8:	72665f68 	rsbvc	r5, r6, #416	; 0x1a0
 1ec:	695f6d6f 	ldmdbvs	pc, {r0, r1, r2, r3, r5, r6, r8, sl, fp, sp, lr}^	; <UNPREDICTABLE>
 1f0:	73007172 	movwvc	r7, #370	; 0x172
 1f4:	64656863 	strbtvs	r6, [r5], #-2147	; 0x863
 1f8:	6300632e 	movwvs	r6, #814	; 0x32e
 1fc:	74616572 	strbtvc	r6, [r1], #-1394	; 0x572
 200:	72705f65 	rsbsvc	r5, r0, #404	; 0x194
 204:	7365636f 	cmnvc	r5, #-1140850687	; 0xbc000001
 208:	65740073 	ldrbvs	r0, [r4, #-115]!	; 0x73
 20c:	6e696d72 	mcrvs	13, 3, r6, cr9, cr2, {3}
 210:	5f657461 	svcpl	0x00657461
 214:	636f7270 	cmnvs	pc, #7
 218:	00737365 	rsbseq	r7, r3, r5, ror #6
 21c:	746e6f63 	strbtvc	r6, [lr], #-3939	; 0xf63
 220:	00747865 	rsbseq	r7, r4, r5, ror #16
 224:	63617473 	cmnvs	r1, #1929379840	; 0x73000000
 228:	69735f6b 	ldmdbvs	r3!, {r0, r1, r3, r5, r6, r8, r9, sl, fp, ip, lr}^
 22c:	7300657a 	movwvc	r6, #1402	; 0x57a
 230:	74726174 	ldrbtvc	r6, [r2], #-372	; 0x174
 234:	6863735f 	stmdavs	r3!, {r0, r1, r2, r3, r4, r6, r8, r9, ip, sp, lr}^
 238:	70006465 	andvc	r6, r0, r5, ror #8
 23c:	00636f72 	rsbeq	r6, r3, r2, ror pc
 240:	5f787463 	svcpl	0x00787463
 244:	74697773 	strbtvc	r7, [r9], #-1907	; 0x773
 248:	73006863 	movwvc	r6, #2147	; 0x863
 24c:	74726174 	ldrbtvc	r6, [r2], #-372	; 0x174
 250:	7275635f 	rsbsvc	r6, r5, #2080374785	; 0x7c000001
 254:	746e6572 	strbtvc	r6, [lr], #-1394	; 0x572
 258:	6f72705f 	svcvs	0x0072705f
 25c:	73736563 	cmnvc	r3, #415236096	; 0x18c00000
 260:	77656e00 	strbvc	r6, [r5, -r0, lsl #28]!
 264:	6263705f 	rsbvs	r7, r3, #95	; 0x5f
 268:	696e6900 	stmdbvs	lr!, {r8, fp, sp, lr}^
 26c:	63705f74 	cmnvs	r0, #464	; 0x1d0
 270:	6e690062 	cdpvs	0, 6, cr0, cr9, cr2, {3}
 274:	635f7469 	cmpvs	pc, #1761607680	; 0x69000000
 278:	65007874 	strvs	r7, [r0, #-2164]	; 0x874
 27c:	7463656c 	strbtvc	r6, [r3], #-1388	; 0x56c
 280:	73797300 	cmnvc	r9, #0
 284:	6961775f 	stmdbvs	r1!, {r0, r1, r2, r3, r4, r6, r8, r9, sl, ip, sp, lr}^
 288:	6f640074 	svcvs	0x00640074
 28c:	43737953 	cmnmi	r3, #1359872	; 0x14c000
 290:	576c6c61 	strbpl	r6, [ip, -r1, ror #24]!
 294:	00746961 	rsbseq	r6, r4, r1, ror #18
 298:	79536f64 	ldmdbvc	r3, {r2, r5, r6, r8, r9, sl, fp, sp, lr}^
 29c:	6c614373 	stclvs	3, cr4, [r1], #-460	; 0xfffffe34
 2a0:	6265526c 	rsbvs	r5, r5, #-1073741818	; 0xc0000006
 2a4:	00746f6f 	rsbseq	r6, r4, pc, ror #30
 2a8:	5f737973 	svcpl	0x00737973
 2ac:	6f626572 	svcvs	0x00626572
 2b0:	5300746f 	movwpl	r7, #1135	; 0x46f
 2b4:	61484957 	cmpvs	r8, r7, asr r9
 2b8:	656c646e 	strbvs	r6, [ip, #-1134]!	; 0x46e
 2bc:	626e0072 	rsbvs	r0, lr, #114	; 0x72
 2c0:	6e617551 	mcrvs	5, 3, r7, cr1, cr1, {2}
 2c4:	736d7574 	cmnvc	sp, #486539264	; 0x1d000000
 2c8:	6d756e00 	ldclvs	14, cr6, [r5, #-0]
 2cc:	43737953 	cmnmi	r3, #1359872	; 0x14c000
 2d0:	006c6c61 	rsbeq	r6, ip, r1, ror #24
 2d4:	63737973 	cmnvs	r3, #1884160	; 0x1cc000
 2d8:	2e6c6c61 	cdpcs	12, 6, cr6, cr12, cr1, {3}
 2dc:	69750063 	ldmdbvs	r5!, {r0, r1, r5, r6}^
 2e0:	3233746e 	eorscc	r7, r3, #1845493760	; 0x6e000000
 2e4:	61747300 	cmnvs	r4, r0, lsl #6
 2e8:	6d5f7472 	cfldrdvs	mvd7, [pc, #-456]	; 128 <_start-0x7ed8>
 2ec:	435f756d 	cmpmi	pc, #457179136	; 0x1b400000
 2f0:	654d7600 	strbvs	r7, [sp, #-1536]	; 0x600
 2f4:	72465f6d 	subvc	r5, r6, #436	; 0x1b4
 2f8:	6e006565 	cfsh32vs	mvfx6, mvfx0, #53
 2fc:	67615062 	strbvs	r5, [r1, -r2, rrx]!
 300:	70007365 	andvc	r7, r0, r5, ror #6
 304:	64615f74 	strbtvs	r5, [r1], #-3956	; 0xf74
 308:	6d007264 	sfmvs	f7, 4, [r0, #-400]	; 0xfffffe70
 30c:	5f696e69 	svcpl	0x00696e69
 310:	6c626174 	stfvse	f6, [r2], #-464	; 0xfffffe30
 314:	69750065 	ldmdbvs	r5!, {r0, r2, r5, r6}^
 318:	0038746e 	eorseq	r7, r8, lr, ror #8
 31c:	6d654d76 	stclvs	13, cr4, [r5, #-472]!	; 0xfffffe28
 320:	6c6c415f 	stfvse	f4, [ip], #-380	; 0xfffffe84
 324:	6900636f 	stmdbvs	r0, {r0, r1, r2, r3, r5, r6, r8, r9, sp, lr}
 328:	5f74696e 	svcpl	0x0074696e
 32c:	6e72656b 	cdpvs	5, 7, cr6, cr2, cr11, {3}
 330:	6172745f 	cmnvs	r2, pc, asr r4
 334:	616c736e 	cmnvs	ip, lr, ror #6
 338:	6e6f6974 	mcrvs	9, 3, r6, cr15, cr4, {3}
 33c:	6261745f 	rsbvs	r7, r1, #1593835520	; 0x5f000000
 340:	6300656c 	movwvs	r6, #1388	; 0x56c
 344:	69666e6f 	stmdbvs	r6!, {r0, r1, r2, r3, r5, r6, r9, sl, fp, sp, lr}^
 348:	65727567 	ldrbvs	r7, [r2, #-1383]!	; 0x567
 34c:	756d6d5f 	strbvc	r6, [sp, #-3423]!	; 0xd5f
 350:	6900435f 	stmdbvs	r0, {r0, r1, r2, r3, r4, r6, r8, r9, lr}
 354:	5f74696e 	svcpl	0x0074696e
 358:	745f6f6e 	ldrbvc	r6, [pc], #-3950	; 360 <_start-0x7ca0>
 35c:	736e6172 	cmnvc	lr, #-2147483620	; 0x8000001c
 360:	6974616c 	ldmdbvs	r4!, {r2, r3, r5, r6, r8, sp, lr}^
 364:	705f6e6f 	subsvc	r6, pc, pc, ror #28
 368:	73656761 	cmnvc	r5, #25427968	; 0x1840000
 36c:	6e697500 	cdpvs	5, 6, cr7, cr9, cr0, {0}
 370:	745f3874 	ldrbvc	r3, [pc], #-2164	; 378 <_start-0x7c88>
 374:	63657300 	cmnvs	r5, #0
 378:	616c665f 	cmnvs	ip, pc, asr r6
 37c:	69750067 	ldmdbvs	r5!, {r0, r1, r2, r5, r6}^
 380:	3233746e 	eorscc	r7, r3, #1845493760	; 0x6e000000
 384:	6b00745f 	blvs	1d508 <__bss_end+0x147d8>
 388:	656e7265 	strbvs	r7, [lr, #-613]!	; 0x265
 38c:	6c665f6c 	stclvs	15, cr5, [r6], #-432	; 0xfffffe50
 390:	00736761 	rsbseq	r6, r3, r1, ror #14
 394:	61746f74 	cmnvs	r4, r4, ror pc
 398:	6564006c 	strbvs	r0, [r4, #-108]!	; 0x6c
 39c:	65636976 	strbvs	r6, [r3, #-2422]!	; 0x976
 3a0:	616c665f 	cmnvs	ip, pc, asr r6
 3a4:	6e007367 	cdpvs	3, 0, cr7, cr0, cr7, {3}
 3a8:	665f7765 	ldrbvs	r7, [pc], -r5, ror #14
 3ac:	74737269 	ldrbtvc	r7, [r3], #-617	; 0x269
 3b0:	6261745f 	rsbvs	r7, r1, #1593835520	; 0x5f000000
 3b4:	7600656c 	strvc	r6, [r0], -ip, ror #10
 3b8:	2f6d656d 	svccs	0x006d656d
 3bc:	6d656d76 	stclvs	13, cr6, [r5, #-472]!	; 0xfffffe28
 3c0:	6e00632e 	cdpvs	3, 0, cr6, cr0, cr14, {1}
 3c4:	735f7765 	cmpvc	pc, #26476544	; 0x1940000
 3c8:	6e6f6365 	cdpvs	3, 6, cr6, cr15, cr5, {3}
 3cc:	61745f64 	cmnvs	r4, r4, ror #30
 3d0:	00656c62 	rsbeq	r6, r5, r2, ror #24
 3d4:	746e6f63 	strbtvc	r6, [lr], #-3939	; 0xf63
 3d8:	006c6f72 	rsbeq	r6, ip, r2, ror pc
 3dc:	65676170 	strbvs	r6, [r7, #-368]!	; 0x170
 3e0:	636f5f73 	cmnvs	pc, #460	; 0x1cc
 3e4:	61707563 	cmnvs	r0, r3, ror #10
 3e8:	6e6f6974 	mcrvs	9, 3, r6, cr15, cr4, {3}
	...

Disassembly of section .debug_frame:

00000000 <.debug_frame>:
   0:	0000000c 	andeq	r0, r0, ip
   4:	ffffffff 			; <UNDEFINED> instruction: 0xffffffff
   8:	7c020001 	stcvc	0, cr0, [r2], {1}
   c:	000d0c0e 	andeq	r0, sp, lr, lsl #24
  10:	00000010 	andeq	r0, r0, r0, lsl r0
  14:	00000000 	andeq	r0, r0, r0
  18:	000080d0 	ldrdeq	r8, [r0], -r0
  1c:	00000040 	andeq	r0, r0, r0, asr #32
  20:	00080e42 	andeq	r0, r8, r2, asr #28
  24:	00000010 	andeq	r0, r0, r0, lsl r0
  28:	00000000 	andeq	r0, r0, r0
  2c:	00008110 	andeq	r8, r0, r0, lsl r1
  30:	0000001c 	andeq	r0, r0, ip, lsl r0
  34:	00080e42 	andeq	r0, r8, r2, asr #28
  38:	00000014 	andeq	r0, r0, r4, lsl r0
  3c:	00000000 	andeq	r0, r0, r0
  40:	0000812c 	andeq	r8, r0, ip, lsr #2
  44:	00000018 	andeq	r0, r0, r8, lsl r0
  48:	83080e42 	movwhi	r0, #36418	; 0x8e42
  4c:	00018e02 	andeq	r8, r1, r2, lsl #28
  50:	0000000c 	andeq	r0, r0, ip
  54:	ffffffff 			; <UNDEFINED> instruction: 0xffffffff
  58:	7c020001 	stcvc	0, cr0, [r2], {1}
  5c:	000d0c0e 	andeq	r0, sp, lr, lsl #24
  60:	00000018 	andeq	r0, r0, r8, lsl r0
  64:	00000050 	andeq	r0, r0, r0, asr r0
  68:	00008144 	andeq	r8, r0, r4, asr #2
  6c:	000000b4 	strheq	r0, [r0], -r4
  70:	84080e42 	strhi	r0, [r8], #-3650	; 0xe42
  74:	42018502 	andmi	r8, r1, #8388608	; 0x800000
  78:	0000100e 	andeq	r1, r0, lr
  7c:	00000014 	andeq	r0, r0, r4, lsl r0
  80:	00000050 	andeq	r0, r0, r0, asr r0
  84:	000081f8 	strdeq	r8, [r0], -r8	; <UNPREDICTABLE>
  88:	00000048 	andeq	r0, r0, r8, asr #32
  8c:	84040e42 	strhi	r0, [r4], #-3650	; 0xe42
  90:	100e4201 	andne	r4, lr, r1, lsl #4
  94:	00000010 	andeq	r0, r0, r0, lsl r0
  98:	00000050 	andeq	r0, r0, r0, asr r0
  9c:	00008240 	andeq	r8, r0, r0, asr #4
  a0:	0000003c 	andeq	r0, r0, ip, lsr r0
  a4:	00080e42 	andeq	r0, r8, r2, asr #28
  a8:	0000000c 	andeq	r0, r0, ip
  ac:	ffffffff 			; <UNDEFINED> instruction: 0xffffffff
  b0:	7c020001 	stcvc	0, cr0, [r2], {1}
  b4:	000d0c0e 	andeq	r0, sp, lr, lsl #24
  b8:	00000014 	andeq	r0, r0, r4, lsl r0
  bc:	000000a8 	andeq	r0, r0, r8, lsr #1
  c0:	0000827c 	andeq	r8, r0, ip, ror r2
  c4:	0000004c 	andeq	r0, r0, ip, asr #32
  c8:	8e040e42 	cdphi	14, 0, cr0, cr4, cr2, {2}
  cc:	100e4201 	andne	r4, lr, r1, lsl #4
  d0:	00000014 	andeq	r0, r0, r4, lsl r0
  d4:	000000a8 	andeq	r0, r0, r8, lsr #1
  d8:	000082c8 	andeq	r8, r0, r8, asr #5
  dc:	00000018 	andeq	r0, r0, r8, lsl r0
  e0:	83080e42 	movwhi	r0, #36418	; 0x8e42
  e4:	00018e02 	andeq	r8, r1, r2, lsl #28
  e8:	00000014 	andeq	r0, r0, r4, lsl r0
  ec:	000000a8 	andeq	r0, r0, r8, lsr #1
  f0:	000082e0 	andeq	r8, r0, r0, ror #5
  f4:	00000018 	andeq	r0, r0, r8, lsl r0
  f8:	83080e42 	movwhi	r0, #36418	; 0x8e42
  fc:	00018e02 	andeq	r8, r1, r2, lsl #28
 100:	00000014 	andeq	r0, r0, r4, lsl r0
 104:	000000a8 	andeq	r0, r0, r8, lsr #1
 108:	000082f8 	strdeq	r8, [r0], -r8	; <UNPREDICTABLE>
 10c:	000000c0 	andeq	r0, r0, r0, asr #1
 110:	8e040e42 	cdphi	14, 0, cr0, cr4, cr2, {2}
 114:	100e4201 	andne	r4, lr, r1, lsl #4
 118:	0000000c 	andeq	r0, r0, ip
 11c:	ffffffff 			; <UNDEFINED> instruction: 0xffffffff
 120:	7c020001 	stcvc	0, cr0, [r2], {1}
 124:	000d0c0e 	andeq	r0, sp, lr, lsl #24
 128:	00000014 	andeq	r0, r0, r4, lsl r0
 12c:	00000118 	andeq	r0, r0, r8, lsl r1
 130:	000083b8 			; <UNDEFINED> instruction: 0x000083b8
 134:	00000054 	andeq	r0, r0, r4, asr r0
 138:	8e040e42 	cdphi	14, 0, cr0, cr4, cr2, {2}
 13c:	180e4201 	stmdane	lr, {r0, r9, lr}
 140:	00000014 	andeq	r0, r0, r4, lsl r0
 144:	00000118 	andeq	r0, r0, r8, lsl r1
 148:	0000840c 	andeq	r8, r0, ip, lsl #8
 14c:	0000006c 	andeq	r0, r0, ip, rrx
 150:	8e040e42 	cdphi	14, 0, cr0, cr4, cr2, {2}
 154:	200e4201 	andcs	r4, lr, r1, lsl #4
 158:	00000014 	andeq	r0, r0, r4, lsl r0
 15c:	00000118 	andeq	r0, r0, r8, lsl r1
 160:	00008478 	andeq	r8, r0, r8, ror r4
 164:	000000e8 	andeq	r0, r0, r8, ror #1
 168:	8e040e42 	cdphi	14, 0, cr0, cr4, cr2, {2}
 16c:	200e4201 	andcs	r4, lr, r1, lsl #4
 170:	00000014 	andeq	r0, r0, r4, lsl r0
 174:	00000118 	andeq	r0, r0, r8, lsl r1
 178:	00008560 	andeq	r8, r0, r0, ror #10
 17c:	00000068 	andeq	r0, r0, r8, rrx
 180:	83080e42 	movwhi	r0, #36418	; 0x8e42
 184:	00018e02 	andeq	r8, r1, r2, lsl #28
 188:	00000014 	andeq	r0, r0, r4, lsl r0
 18c:	00000118 	andeq	r0, r0, r8, lsl r1
 190:	000085c8 	andeq	r8, r0, r8, asr #11
 194:	000000f4 	strdeq	r0, [r0], -r4
 198:	8e040e42 	cdphi	14, 0, cr0, cr4, cr2, {2}
 19c:	100e4201 	andne	r4, lr, r1, lsl #4
 1a0:	0000000c 	andeq	r0, r0, ip
 1a4:	00000118 	andeq	r0, r0, r8, lsl r1
 1a8:	000086bc 			; <UNDEFINED> instruction: 0x000086bc
 1ac:	0000001c 	andeq	r0, r0, ip, lsl r0
 1b0:	00000014 	andeq	r0, r0, r4, lsl r0
 1b4:	00000118 	andeq	r0, r0, r8, lsl r1
 1b8:	000086d8 	ldrdeq	r8, [r0], -r8	; <UNPREDICTABLE>
 1bc:	00000038 	andeq	r0, r0, r8, lsr r0
 1c0:	83080e42 	movwhi	r0, #36418	; 0x8e42
 1c4:	00018e02 	andeq	r8, r1, r2, lsl #28
 1c8:	00000014 	andeq	r0, r0, r4, lsl r0
 1cc:	00000118 	andeq	r0, r0, r8, lsl r1
 1d0:	00008710 	andeq	r8, r0, r0, lsl r7
 1d4:	00000184 	andeq	r0, r0, r4, lsl #3
 1d8:	8e040e42 	cdphi	14, 0, cr0, cr4, cr2, {2}
 1dc:	100e4201 	andne	r4, lr, r1, lsl #4
 1e0:	0000000c 	andeq	r0, r0, ip
 1e4:	00000118 	andeq	r0, r0, r8, lsl r1
 1e8:	00008894 	muleq	r0, r4, r8
 1ec:	00000114 	andeq	r0, r0, r4, lsl r1
 1f0:	0000000c 	andeq	r0, r0, ip
 1f4:	ffffffff 			; <UNDEFINED> instruction: 0xffffffff
 1f8:	7c020001 	stcvc	0, cr0, [r2], {1}
 1fc:	000d0c0e 	andeq	r0, sp, lr, lsl #24
 200:	00000014 	andeq	r0, r0, r4, lsl r0
 204:	000001f0 	strdeq	r0, [r0], -r0	; <UNPREDICTABLE>
 208:	000089a8 	andeq	r8, r0, r8, lsr #19
 20c:	00000014 	andeq	r0, r0, r4, lsl r0
 210:	8e040e42 	cdphi	14, 0, cr0, cr4, cr2, {2}
 214:	00000001 	andeq	r0, r0, r1
 218:	00000014 	andeq	r0, r0, r4, lsl r0
 21c:	000001f0 	strdeq	r0, [r0], -r0	; <UNPREDICTABLE>
 220:	000089bc 			; <UNDEFINED> instruction: 0x000089bc
 224:	00000028 	andeq	r0, r0, r8, lsr #32
 228:	8e040e42 	cdphi	14, 0, cr0, cr4, cr2, {2}
 22c:	100e4201 	andne	r4, lr, r1, lsl #4
 230:	0000000c 	andeq	r0, r0, ip
 234:	000001f0 	strdeq	r0, [r0], -r0	; <UNPREDICTABLE>
 238:	000089e4 	andeq	r8, r0, r4, ror #19
 23c:	00000004 	andeq	r0, r0, r4
 240:	00000014 	andeq	r0, r0, r4, lsl r0
 244:	000001f0 	strdeq	r0, [r0], -r0	; <UNPREDICTABLE>
 248:	000089e8 	andeq	r8, r0, r8, ror #19
 24c:	00000030 	andeq	r0, r0, r0, lsr r0
 250:	84040e42 	strhi	r0, [r4], #-3650	; 0xe42
 254:	100e4201 	andne	r4, lr, r1, lsl #4
 258:	00000018 	andeq	r0, r0, r8, lsl r0
 25c:	000001f0 	strdeq	r0, [r0], -r0	; <UNPREDICTABLE>
 260:	00008a18 	andeq	r8, r0, r8, lsl sl
 264:	00000048 	andeq	r0, r0, r8, asr #32
 268:	84080e42 	strhi	r0, [r8], #-3650	; 0xe42
 26c:	42018e02 	andmi	r8, r1, #32
 270:	0000100e 	andeq	r1, r0, lr
 274:	0000000c 	andeq	r0, r0, ip
 278:	ffffffff 			; <UNDEFINED> instruction: 0xffffffff
 27c:	7c020001 	stcvc	0, cr0, [r2], {1}
 280:	000d0c0e 	andeq	r0, sp, lr, lsl #24
 284:	00000010 	andeq	r0, r0, r0, lsl r0
 288:	00000274 	andeq	r0, r0, r4, ror r2
 28c:	00008a60 	andeq	r8, r0, r0, ror #20
 290:	00000064 	andeq	r0, r0, r4, rrx
 294:	00080e42 	andeq	r0, r8, r2, asr #28
 298:	00000010 	andeq	r0, r0, r0, lsl r0
 29c:	00000274 	andeq	r0, r0, r4, ror r2
 2a0:	00008ac4 	andeq	r8, r0, r4, asr #21
 2a4:	00000104 	andeq	r0, r0, r4, lsl #2
 2a8:	00100e42 	andseq	r0, r0, r2, asr #28
 2ac:	00000010 	andeq	r0, r0, r0, lsl r0
 2b0:	00000274 	andeq	r0, r0, r4, ror r2
 2b4:	00008bc8 	andeq	r8, r0, r8, asr #23
 2b8:	00000088 	andeq	r0, r0, r8, lsl #1
 2bc:	00080e42 	andeq	r0, r8, r2, asr #28
 2c0:	00000010 	andeq	r0, r0, r0, lsl r0
 2c4:	00000274 	andeq	r0, r0, r4, ror r2
 2c8:	00008c50 	andeq	r8, r0, r0, asr ip
 2cc:	00000014 	andeq	r0, r0, r4, lsl r0
 2d0:	00080e42 	andeq	r0, r8, r2, asr #28
 2d4:	00000014 	andeq	r0, r0, r4, lsl r0
 2d8:	00000274 	andeq	r0, r0, r4, ror r2
 2dc:	00008c64 	andeq	r8, r0, r4, ror #24
 2e0:	00000030 	andeq	r0, r0, r0, lsr r0
 2e4:	84040e42 	strhi	r0, [r4], #-3650	; 0xe42
 2e8:	00000001 	andeq	r0, r0, r1
 2ec:	00000014 	andeq	r0, r0, r4, lsl r0
 2f0:	00000274 	andeq	r0, r0, r4, ror r2
 2f4:	00008c94 	muleq	r0, r4, ip
 2f8:	00000040 	andeq	r0, r0, r0, asr #32
 2fc:	84040e42 	strhi	r0, [r4], #-3650	; 0xe42
 300:	00000001 	andeq	r0, r0, r1
 304:	00000010 	andeq	r0, r0, r0, lsl r0
 308:	00000274 	andeq	r0, r0, r4, ror r2
 30c:	00008cd4 	ldrdeq	r8, [r0], -r4
 310:	00000018 	andeq	r0, r0, r8, lsl r0
 314:	00080e42 	andeq	r0, r8, r2, asr #28
 318:	00000010 	andeq	r0, r0, r0, lsl r0
 31c:	00000274 	andeq	r0, r0, r4, ror r2
 320:	00008cec 	andeq	r8, r0, ip, ror #25
 324:	00000014 	andeq	r0, r0, r4, lsl r0
 328:	00080e42 	andeq	r0, r8, r2, asr #28
